
ButtonManager.elf:     file format elf32-littlearm

Sections:
Idx Name          Size      VMA       LMA       File off  Algn
  0 .isr_vector   000001c8  08000000  08000000  00010000  2**0
                  CONTENTS, ALLOC, LOAD, READONLY, DATA
  1 .text         0000695c  080001d0  080001d0  000101d0  2**4
                  CONTENTS, ALLOC, LOAD, READONLY, CODE
  2 .rodata       00000880  08006b2c  08006b2c  00016b2c  2**2
                  CONTENTS, ALLOC, LOAD, READONLY, DATA
  3 .ARM          00000008  080073ac  080073ac  000173ac  2**2
                  CONTENTS, ALLOC, LOAD, READONLY, DATA
  4 .init_array   00000008  080073b4  080073b4  000173b4  2**2
                  CONTENTS, ALLOC, LOAD, DATA
  5 .fini_array   00000008  080073bc  080073bc  000173bc  2**2
                  CONTENTS, ALLOC, LOAD, DATA
  6 .data         00000074  20000000  080073c4  00020000  2**2
                  CONTENTS, ALLOC, LOAD, DATA
  7 .bss          00000748  20000074  08007438  00020074  2**2
                  ALLOC
  8 ._user_heap_stack 00001404  200007bc  08007438  000207bc  2**0
                  ALLOC
  9 .ARM.attributes 00000030  00000000  00000000  00020074  2**0
                  CONTENTS, READONLY
 10 .debug_info   00063e0a  00000000  00000000  000200a4  2**0
                  CONTENTS, READONLY, DEBUGGING
 11 .debug_abbrev 0000c767  00000000  00000000  00083eae  2**0
                  CONTENTS, READONLY, DEBUGGING
 12 .debug_loc    00019191  00000000  00000000  00090615  2**0
                  CONTENTS, READONLY, DEBUGGING
 13 .debug_aranges 00001a70  00000000  00000000  000a97a8  2**3
                  CONTENTS, READONLY, DEBUGGING
 14 .debug_ranges 00003ac8  00000000  00000000  000ab218  2**3
                  CONTENTS, READONLY, DEBUGGING
 15 .debug_macro  000366bf  00000000  00000000  000aece0  2**0
                  CONTENTS, READONLY, DEBUGGING
 16 .debug_line   0002f1b2  00000000  00000000  000e539f  2**0
                  CONTENTS, READONLY, DEBUGGING
 17 .debug_str    001213e9  00000000  00000000  00114551  2**0
                  CONTENTS, READONLY, DEBUGGING
 18 .comment      0000007b  00000000  00000000  0023593a  2**0
                  CONTENTS, READONLY
 19 .debug_frame  0000655c  00000000  00000000  002359b8  2**2
                  CONTENTS, READONLY, DEBUGGING

Disassembly of section .text:

080001d0 <__do_global_dtors_aux>:
 80001d0:	b510      	push	{r4, lr}
 80001d2:	4c05      	ldr	r4, [pc, #20]	; (80001e8 <__do_global_dtors_aux+0x18>)
 80001d4:	7823      	ldrb	r3, [r4, #0]
 80001d6:	b933      	cbnz	r3, 80001e6 <__do_global_dtors_aux+0x16>
 80001d8:	4b04      	ldr	r3, [pc, #16]	; (80001ec <__do_global_dtors_aux+0x1c>)
 80001da:	b113      	cbz	r3, 80001e2 <__do_global_dtors_aux+0x12>
 80001dc:	4804      	ldr	r0, [pc, #16]	; (80001f0 <__do_global_dtors_aux+0x20>)
 80001de:	f3af 8000 	nop.w
 80001e2:	2301      	movs	r3, #1
 80001e4:	7023      	strb	r3, [r4, #0]
 80001e6:	bd10      	pop	{r4, pc}
 80001e8:	20000074 	.word	0x20000074
 80001ec:	00000000 	.word	0x00000000
 80001f0:	08006b14 	.word	0x08006b14

080001f4 <frame_dummy>:
 80001f4:	b508      	push	{r3, lr}
 80001f6:	4b03      	ldr	r3, [pc, #12]	; (8000204 <frame_dummy+0x10>)
 80001f8:	b11b      	cbz	r3, 8000202 <frame_dummy+0xe>
 80001fa:	4903      	ldr	r1, [pc, #12]	; (8000208 <frame_dummy+0x14>)
 80001fc:	4803      	ldr	r0, [pc, #12]	; (800020c <frame_dummy+0x18>)
 80001fe:	f3af 8000 	nop.w
 8000202:	bd08      	pop	{r3, pc}
 8000204:	00000000 	.word	0x00000000
 8000208:	20000078 	.word	0x20000078
 800020c:	08006b14 	.word	0x08006b14

08000210 <memchr>:
 8000210:	f001 01ff 	and.w	r1, r1, #255	; 0xff
 8000214:	2a10      	cmp	r2, #16
 8000216:	db2b      	blt.n	8000270 <memchr+0x60>
 8000218:	f010 0f07 	tst.w	r0, #7
 800021c:	d008      	beq.n	8000230 <memchr+0x20>
 800021e:	f810 3b01 	ldrb.w	r3, [r0], #1
 8000222:	3a01      	subs	r2, #1
 8000224:	428b      	cmp	r3, r1
 8000226:	d02d      	beq.n	8000284 <memchr+0x74>
 8000228:	f010 0f07 	tst.w	r0, #7
 800022c:	b342      	cbz	r2, 8000280 <memchr+0x70>
 800022e:	d1f6      	bne.n	800021e <memchr+0xe>
 8000230:	b4f0      	push	{r4, r5, r6, r7}
 8000232:	ea41 2101 	orr.w	r1, r1, r1, lsl #8
 8000236:	ea41 4101 	orr.w	r1, r1, r1, lsl #16
 800023a:	f022 0407 	bic.w	r4, r2, #7
 800023e:	f07f 0700 	mvns.w	r7, #0
 8000242:	2300      	movs	r3, #0
 8000244:	e8f0 5602 	ldrd	r5, r6, [r0], #8
 8000248:	3c08      	subs	r4, #8
 800024a:	ea85 0501 	eor.w	r5, r5, r1
 800024e:	ea86 0601 	eor.w	r6, r6, r1
 8000252:	fa85 f547 	uadd8	r5, r5, r7
 8000256:	faa3 f587 	sel	r5, r3, r7
 800025a:	fa86 f647 	uadd8	r6, r6, r7
 800025e:	faa5 f687 	sel	r6, r5, r7
 8000262:	b98e      	cbnz	r6, 8000288 <memchr+0x78>
 8000264:	d1ee      	bne.n	8000244 <memchr+0x34>
 8000266:	bcf0      	pop	{r4, r5, r6, r7}
 8000268:	f001 01ff 	and.w	r1, r1, #255	; 0xff
 800026c:	f002 0207 	and.w	r2, r2, #7
 8000270:	b132      	cbz	r2, 8000280 <memchr+0x70>
 8000272:	f810 3b01 	ldrb.w	r3, [r0], #1
 8000276:	3a01      	subs	r2, #1
 8000278:	ea83 0301 	eor.w	r3, r3, r1
 800027c:	b113      	cbz	r3, 8000284 <memchr+0x74>
 800027e:	d1f8      	bne.n	8000272 <memchr+0x62>
 8000280:	2000      	movs	r0, #0
 8000282:	4770      	bx	lr
 8000284:	3801      	subs	r0, #1
 8000286:	4770      	bx	lr
 8000288:	2d00      	cmp	r5, #0
 800028a:	bf06      	itte	eq
 800028c:	4635      	moveq	r5, r6
 800028e:	3803      	subeq	r0, #3
 8000290:	3807      	subne	r0, #7
 8000292:	f015 0f01 	tst.w	r5, #1
 8000296:	d107      	bne.n	80002a8 <memchr+0x98>
 8000298:	3001      	adds	r0, #1
 800029a:	f415 7f80 	tst.w	r5, #256	; 0x100
 800029e:	bf02      	ittt	eq
 80002a0:	3001      	addeq	r0, #1
 80002a2:	f415 3fc0 	tsteq.w	r5, #98304	; 0x18000
 80002a6:	3001      	addeq	r0, #1
 80002a8:	bcf0      	pop	{r4, r5, r6, r7}
 80002aa:	3801      	subs	r0, #1
 80002ac:	4770      	bx	lr
 80002ae:	bf00      	nop

080002b0 <strlen>:
 80002b0:	4603      	mov	r3, r0
 80002b2:	f813 2b01 	ldrb.w	r2, [r3], #1
 80002b6:	2a00      	cmp	r2, #0
 80002b8:	d1fb      	bne.n	80002b2 <strlen+0x2>
 80002ba:	1a18      	subs	r0, r3, r0
 80002bc:	3801      	subs	r0, #1
 80002be:	4770      	bx	lr

080002c0 <__aeabi_uldivmod>:
 80002c0:	b953      	cbnz	r3, 80002d8 <__aeabi_uldivmod+0x18>
 80002c2:	b94a      	cbnz	r2, 80002d8 <__aeabi_uldivmod+0x18>
 80002c4:	2900      	cmp	r1, #0
 80002c6:	bf08      	it	eq
 80002c8:	2800      	cmpeq	r0, #0
 80002ca:	bf1c      	itt	ne
 80002cc:	f04f 31ff 	movne.w	r1, #4294967295
 80002d0:	f04f 30ff 	movne.w	r0, #4294967295
 80002d4:	f000 b972 	b.w	80005bc <__aeabi_idiv0>
 80002d8:	f1ad 0c08 	sub.w	ip, sp, #8
 80002dc:	e96d ce04 	strd	ip, lr, [sp, #-16]!
 80002e0:	f000 f806 	bl	80002f0 <__udivmoddi4>
 80002e4:	f8dd e004 	ldr.w	lr, [sp, #4]
 80002e8:	e9dd 2302 	ldrd	r2, r3, [sp, #8]
 80002ec:	b004      	add	sp, #16
 80002ee:	4770      	bx	lr

080002f0 <__udivmoddi4>:
 80002f0:	e92d 47f0 	stmdb	sp!, {r4, r5, r6, r7, r8, r9, sl, lr}
 80002f4:	9e08      	ldr	r6, [sp, #32]
 80002f6:	4604      	mov	r4, r0
 80002f8:	4688      	mov	r8, r1
 80002fa:	2b00      	cmp	r3, #0
 80002fc:	d14b      	bne.n	8000396 <__udivmoddi4+0xa6>
 80002fe:	428a      	cmp	r2, r1
 8000300:	4615      	mov	r5, r2
 8000302:	d967      	bls.n	80003d4 <__udivmoddi4+0xe4>
 8000304:	fab2 f282 	clz	r2, r2
 8000308:	b14a      	cbz	r2, 800031e <__udivmoddi4+0x2e>
 800030a:	f1c2 0720 	rsb	r7, r2, #32
 800030e:	fa01 f302 	lsl.w	r3, r1, r2
 8000312:	fa20 f707 	lsr.w	r7, r0, r7
 8000316:	4095      	lsls	r5, r2
 8000318:	ea47 0803 	orr.w	r8, r7, r3
 800031c:	4094      	lsls	r4, r2
 800031e:	ea4f 4e15 	mov.w	lr, r5, lsr #16
 8000322:	0c23      	lsrs	r3, r4, #16
 8000324:	fbb8 f7fe 	udiv	r7, r8, lr
 8000328:	fa1f fc85 	uxth.w	ip, r5
 800032c:	fb0e 8817 	mls	r8, lr, r7, r8
 8000330:	ea43 4308 	orr.w	r3, r3, r8, lsl #16
 8000334:	fb07 f10c 	mul.w	r1, r7, ip
 8000338:	4299      	cmp	r1, r3
 800033a:	d909      	bls.n	8000350 <__udivmoddi4+0x60>
 800033c:	18eb      	adds	r3, r5, r3
 800033e:	f107 30ff 	add.w	r0, r7, #4294967295
 8000342:	f080 811b 	bcs.w	800057c <__udivmoddi4+0x28c>
 8000346:	4299      	cmp	r1, r3
 8000348:	f240 8118 	bls.w	800057c <__udivmoddi4+0x28c>
 800034c:	3f02      	subs	r7, #2
 800034e:	442b      	add	r3, r5
 8000350:	1a5b      	subs	r3, r3, r1
 8000352:	b2a4      	uxth	r4, r4
 8000354:	fbb3 f0fe 	udiv	r0, r3, lr
 8000358:	fb0e 3310 	mls	r3, lr, r0, r3
 800035c:	ea44 4403 	orr.w	r4, r4, r3, lsl #16
 8000360:	fb00 fc0c 	mul.w	ip, r0, ip
 8000364:	45a4      	cmp	ip, r4
 8000366:	d909      	bls.n	800037c <__udivmoddi4+0x8c>
 8000368:	192c      	adds	r4, r5, r4
 800036a:	f100 33ff 	add.w	r3, r0, #4294967295
 800036e:	f080 8107 	bcs.w	8000580 <__udivmoddi4+0x290>
 8000372:	45a4      	cmp	ip, r4
 8000374:	f240 8104 	bls.w	8000580 <__udivmoddi4+0x290>
 8000378:	3802      	subs	r0, #2
 800037a:	442c      	add	r4, r5
 800037c:	ea40 4007 	orr.w	r0, r0, r7, lsl #16
 8000380:	eba4 040c 	sub.w	r4, r4, ip
 8000384:	2700      	movs	r7, #0
 8000386:	b11e      	cbz	r6, 8000390 <__udivmoddi4+0xa0>
 8000388:	40d4      	lsrs	r4, r2
 800038a:	2300      	movs	r3, #0
 800038c:	e9c6 4300 	strd	r4, r3, [r6]
 8000390:	4639      	mov	r1, r7
 8000392:	e8bd 87f0 	ldmia.w	sp!, {r4, r5, r6, r7, r8, r9, sl, pc}
 8000396:	428b      	cmp	r3, r1
 8000398:	d909      	bls.n	80003ae <__udivmoddi4+0xbe>
 800039a:	2e00      	cmp	r6, #0
 800039c:	f000 80eb 	beq.w	8000576 <__udivmoddi4+0x286>
 80003a0:	2700      	movs	r7, #0
 80003a2:	e9c6 0100 	strd	r0, r1, [r6]
 80003a6:	4638      	mov	r0, r7
 80003a8:	4639      	mov	r1, r7
 80003aa:	e8bd 87f0 	ldmia.w	sp!, {r4, r5, r6, r7, r8, r9, sl, pc}
 80003ae:	fab3 f783 	clz	r7, r3
 80003b2:	2f00      	cmp	r7, #0
 80003b4:	d147      	bne.n	8000446 <__udivmoddi4+0x156>
 80003b6:	428b      	cmp	r3, r1
 80003b8:	d302      	bcc.n	80003c0 <__udivmoddi4+0xd0>
 80003ba:	4282      	cmp	r2, r0
 80003bc:	f200 80fa 	bhi.w	80005b4 <__udivmoddi4+0x2c4>
 80003c0:	1a84      	subs	r4, r0, r2
 80003c2:	eb61 0303 	sbc.w	r3, r1, r3
 80003c6:	2001      	movs	r0, #1
 80003c8:	4698      	mov	r8, r3
 80003ca:	2e00      	cmp	r6, #0
 80003cc:	d0e0      	beq.n	8000390 <__udivmoddi4+0xa0>
 80003ce:	e9c6 4800 	strd	r4, r8, [r6]
 80003d2:	e7dd      	b.n	8000390 <__udivmoddi4+0xa0>
 80003d4:	b902      	cbnz	r2, 80003d8 <__udivmoddi4+0xe8>
 80003d6:	deff      	udf	#255	; 0xff
 80003d8:	fab2 f282 	clz	r2, r2
 80003dc:	2a00      	cmp	r2, #0
 80003de:	f040 808f 	bne.w	8000500 <__udivmoddi4+0x210>
 80003e2:	1b49      	subs	r1, r1, r5
 80003e4:	ea4f 4e15 	mov.w	lr, r5, lsr #16
 80003e8:	fa1f f885 	uxth.w	r8, r5
 80003ec:	2701      	movs	r7, #1
 80003ee:	fbb1 fcfe 	udiv	ip, r1, lr
 80003f2:	0c23      	lsrs	r3, r4, #16
 80003f4:	fb0e 111c 	mls	r1, lr, ip, r1
 80003f8:	ea43 4301 	orr.w	r3, r3, r1, lsl #16
 80003fc:	fb08 f10c 	mul.w	r1, r8, ip
 8000400:	4299      	cmp	r1, r3
 8000402:	d907      	bls.n	8000414 <__udivmoddi4+0x124>
 8000404:	18eb      	adds	r3, r5, r3
 8000406:	f10c 30ff 	add.w	r0, ip, #4294967295
 800040a:	d202      	bcs.n	8000412 <__udivmoddi4+0x122>
 800040c:	4299      	cmp	r1, r3
 800040e:	f200 80cd 	bhi.w	80005ac <__udivmoddi4+0x2bc>
 8000412:	4684      	mov	ip, r0
 8000414:	1a59      	subs	r1, r3, r1
 8000416:	b2a3      	uxth	r3, r4
 8000418:	fbb1 f0fe 	udiv	r0, r1, lr
 800041c:	fb0e 1410 	mls	r4, lr, r0, r1
 8000420:	ea43 4404 	orr.w	r4, r3, r4, lsl #16
 8000424:	fb08 f800 	mul.w	r8, r8, r0
 8000428:	45a0      	cmp	r8, r4
 800042a:	d907      	bls.n	800043c <__udivmoddi4+0x14c>
 800042c:	192c      	adds	r4, r5, r4
 800042e:	f100 33ff 	add.w	r3, r0, #4294967295
 8000432:	d202      	bcs.n	800043a <__udivmoddi4+0x14a>
 8000434:	45a0      	cmp	r8, r4
 8000436:	f200 80b6 	bhi.w	80005a6 <__udivmoddi4+0x2b6>
 800043a:	4618      	mov	r0, r3
 800043c:	eba4 0408 	sub.w	r4, r4, r8
 8000440:	ea40 400c 	orr.w	r0, r0, ip, lsl #16
 8000444:	e79f      	b.n	8000386 <__udivmoddi4+0x96>
 8000446:	f1c7 0c20 	rsb	ip, r7, #32
 800044a:	40bb      	lsls	r3, r7
 800044c:	fa22 fe0c 	lsr.w	lr, r2, ip
 8000450:	ea4e 0e03 	orr.w	lr, lr, r3
 8000454:	fa01 f407 	lsl.w	r4, r1, r7
 8000458:	fa20 f50c 	lsr.w	r5, r0, ip
 800045c:	fa21 f30c 	lsr.w	r3, r1, ip
 8000460:	ea4f 481e 	mov.w	r8, lr, lsr #16
 8000464:	4325      	orrs	r5, r4
 8000466:	fbb3 f9f8 	udiv	r9, r3, r8
 800046a:	0c2c      	lsrs	r4, r5, #16
 800046c:	fb08 3319 	mls	r3, r8, r9, r3
 8000470:	fa1f fa8e 	uxth.w	sl, lr
 8000474:	ea44 4303 	orr.w	r3, r4, r3, lsl #16
 8000478:	fb09 f40a 	mul.w	r4, r9, sl
 800047c:	429c      	cmp	r4, r3
 800047e:	fa02 f207 	lsl.w	r2, r2, r7
 8000482:	fa00 f107 	lsl.w	r1, r0, r7
 8000486:	d90b      	bls.n	80004a0 <__udivmoddi4+0x1b0>
 8000488:	eb1e 0303 	adds.w	r3, lr, r3
 800048c:	f109 30ff 	add.w	r0, r9, #4294967295
 8000490:	f080 8087 	bcs.w	80005a2 <__udivmoddi4+0x2b2>
 8000494:	429c      	cmp	r4, r3
 8000496:	f240 8084 	bls.w	80005a2 <__udivmoddi4+0x2b2>
 800049a:	f1a9 0902 	sub.w	r9, r9, #2
 800049e:	4473      	add	r3, lr
 80004a0:	1b1b      	subs	r3, r3, r4
 80004a2:	b2ad      	uxth	r5, r5
 80004a4:	fbb3 f0f8 	udiv	r0, r3, r8
 80004a8:	fb08 3310 	mls	r3, r8, r0, r3
 80004ac:	ea45 4403 	orr.w	r4, r5, r3, lsl #16
 80004b0:	fb00 fa0a 	mul.w	sl, r0, sl
 80004b4:	45a2      	cmp	sl, r4
 80004b6:	d908      	bls.n	80004ca <__udivmoddi4+0x1da>
 80004b8:	eb1e 0404 	adds.w	r4, lr, r4
 80004bc:	f100 33ff 	add.w	r3, r0, #4294967295
 80004c0:	d26b      	bcs.n	800059a <__udivmoddi4+0x2aa>
 80004c2:	45a2      	cmp	sl, r4
 80004c4:	d969      	bls.n	800059a <__udivmoddi4+0x2aa>
 80004c6:	3802      	subs	r0, #2
 80004c8:	4474      	add	r4, lr
 80004ca:	ea40 4009 	orr.w	r0, r0, r9, lsl #16
 80004ce:	fba0 8902 	umull	r8, r9, r0, r2
 80004d2:	eba4 040a 	sub.w	r4, r4, sl
 80004d6:	454c      	cmp	r4, r9
 80004d8:	46c2      	mov	sl, r8
 80004da:	464b      	mov	r3, r9
 80004dc:	d354      	bcc.n	8000588 <__udivmoddi4+0x298>
 80004de:	d051      	beq.n	8000584 <__udivmoddi4+0x294>
 80004e0:	2e00      	cmp	r6, #0
 80004e2:	d069      	beq.n	80005b8 <__udivmoddi4+0x2c8>
 80004e4:	ebb1 050a 	subs.w	r5, r1, sl
 80004e8:	eb64 0403 	sbc.w	r4, r4, r3
 80004ec:	fa04 fc0c 	lsl.w	ip, r4, ip
 80004f0:	40fd      	lsrs	r5, r7
 80004f2:	40fc      	lsrs	r4, r7
 80004f4:	ea4c 0505 	orr.w	r5, ip, r5
 80004f8:	e9c6 5400 	strd	r5, r4, [r6]
 80004fc:	2700      	movs	r7, #0
 80004fe:	e747      	b.n	8000390 <__udivmoddi4+0xa0>
 8000500:	f1c2 0320 	rsb	r3, r2, #32
 8000504:	fa20 f703 	lsr.w	r7, r0, r3
 8000508:	4095      	lsls	r5, r2
 800050a:	fa01 f002 	lsl.w	r0, r1, r2
 800050e:	fa21 f303 	lsr.w	r3, r1, r3
 8000512:	ea4f 4e15 	mov.w	lr, r5, lsr #16
 8000516:	4338      	orrs	r0, r7
 8000518:	0c01      	lsrs	r1, r0, #16
 800051a:	fbb3 f7fe 	udiv	r7, r3, lr
 800051e:	fa1f f885 	uxth.w	r8, r5
 8000522:	fb0e 3317 	mls	r3, lr, r7, r3
 8000526:	ea41 4103 	orr.w	r1, r1, r3, lsl #16
 800052a:	fb07 f308 	mul.w	r3, r7, r8
 800052e:	428b      	cmp	r3, r1
 8000530:	fa04 f402 	lsl.w	r4, r4, r2
 8000534:	d907      	bls.n	8000546 <__udivmoddi4+0x256>
 8000536:	1869      	adds	r1, r5, r1
 8000538:	f107 3cff 	add.w	ip, r7, #4294967295
 800053c:	d22f      	bcs.n	800059e <__udivmoddi4+0x2ae>
 800053e:	428b      	cmp	r3, r1
 8000540:	d92d      	bls.n	800059e <__udivmoddi4+0x2ae>
 8000542:	3f02      	subs	r7, #2
 8000544:	4429      	add	r1, r5
 8000546:	1acb      	subs	r3, r1, r3
 8000548:	b281      	uxth	r1, r0
 800054a:	fbb3 f0fe 	udiv	r0, r3, lr
 800054e:	fb0e 3310 	mls	r3, lr, r0, r3
 8000552:	ea41 4103 	orr.w	r1, r1, r3, lsl #16
 8000556:	fb00 f308 	mul.w	r3, r0, r8
 800055a:	428b      	cmp	r3, r1
 800055c:	d907      	bls.n	800056e <__udivmoddi4+0x27e>
 800055e:	1869      	adds	r1, r5, r1
 8000560:	f100 3cff 	add.w	ip, r0, #4294967295
 8000564:	d217      	bcs.n	8000596 <__udivmoddi4+0x2a6>
 8000566:	428b      	cmp	r3, r1
 8000568:	d915      	bls.n	8000596 <__udivmoddi4+0x2a6>
 800056a:	3802      	subs	r0, #2
 800056c:	4429      	add	r1, r5
 800056e:	1ac9      	subs	r1, r1, r3
 8000570:	ea40 4707 	orr.w	r7, r0, r7, lsl #16
 8000574:	e73b      	b.n	80003ee <__udivmoddi4+0xfe>
 8000576:	4637      	mov	r7, r6
 8000578:	4630      	mov	r0, r6
 800057a:	e709      	b.n	8000390 <__udivmoddi4+0xa0>
 800057c:	4607      	mov	r7, r0
 800057e:	e6e7      	b.n	8000350 <__udivmoddi4+0x60>
 8000580:	4618      	mov	r0, r3
 8000582:	e6fb      	b.n	800037c <__udivmoddi4+0x8c>
 8000584:	4541      	cmp	r1, r8
 8000586:	d2ab      	bcs.n	80004e0 <__udivmoddi4+0x1f0>
 8000588:	ebb8 0a02 	subs.w	sl, r8, r2
 800058c:	eb69 020e 	sbc.w	r2, r9, lr
 8000590:	3801      	subs	r0, #1
 8000592:	4613      	mov	r3, r2
 8000594:	e7a4      	b.n	80004e0 <__udivmoddi4+0x1f0>
 8000596:	4660      	mov	r0, ip
 8000598:	e7e9      	b.n	800056e <__udivmoddi4+0x27e>
 800059a:	4618      	mov	r0, r3
 800059c:	e795      	b.n	80004ca <__udivmoddi4+0x1da>
 800059e:	4667      	mov	r7, ip
 80005a0:	e7d1      	b.n	8000546 <__udivmoddi4+0x256>
 80005a2:	4681      	mov	r9, r0
 80005a4:	e77c      	b.n	80004a0 <__udivmoddi4+0x1b0>
 80005a6:	3802      	subs	r0, #2
 80005a8:	442c      	add	r4, r5
 80005aa:	e747      	b.n	800043c <__udivmoddi4+0x14c>
 80005ac:	f1ac 0c02 	sub.w	ip, ip, #2
 80005b0:	442b      	add	r3, r5
 80005b2:	e72f      	b.n	8000414 <__udivmoddi4+0x124>
 80005b4:	4638      	mov	r0, r7
 80005b6:	e708      	b.n	80003ca <__udivmoddi4+0xda>
 80005b8:	4637      	mov	r7, r6
 80005ba:	e6e9      	b.n	8000390 <__udivmoddi4+0xa0>

080005bc <__aeabi_idiv0>:
 80005bc:	4770      	bx	lr
 80005be:	bf00      	nop

080005c0 <HAL_InitTick>:
  *       implementation  in user file.
  * @param TickPriority Tick interrupt priority.
  * @retval HAL status
  */
__weak HAL_StatusTypeDef HAL_InitTick(uint32_t TickPriority)
{
 80005c0:	b538      	push	{r3, r4, r5, lr}
  /* Configure the SysTick to have interrupt in 1ms time basis*/
  if (HAL_SYSTICK_Config(SystemCoreClock / (1000U / uwTickFreq)) > 0U)
 80005c2:	4c0d      	ldr	r4, [pc, #52]	; (80005f8 <HAL_InitTick+0x38>)
 80005c4:	f44f 737a 	mov.w	r3, #1000	; 0x3e8
 80005c8:	490c      	ldr	r1, [pc, #48]	; (80005fc <HAL_InitTick+0x3c>)
{
 80005ca:	4605      	mov	r5, r0
  if (HAL_SYSTICK_Config(SystemCoreClock / (1000U / uwTickFreq)) > 0U)
 80005cc:	7822      	ldrb	r2, [r4, #0]
 80005ce:	6808      	ldr	r0, [r1, #0]
 80005d0:	fbb3 f3f2 	udiv	r3, r3, r2
 80005d4:	fbb0 f0f3 	udiv	r0, r0, r3
 80005d8:	f000 f9f2 	bl	80009c0 <HAL_SYSTICK_Config>
  {
    return HAL_ERROR;
  }

  /* Configure the SysTick IRQ priority */
  if (TickPriority < (1UL << __NVIC_PRIO_BITS))
 80005dc:	b908      	cbnz	r0, 80005e2 <HAL_InitTick+0x22>
 80005de:	2d0f      	cmp	r5, #15
 80005e0:	d901      	bls.n	80005e6 <HAL_InitTick+0x26>
    HAL_NVIC_SetPriority(SysTick_IRQn, TickPriority, 0U);
    uwTickPrio = TickPriority;
  }
  else
  {
    return HAL_ERROR;
 80005e2:	2001      	movs	r0, #1
  }

  /* Return function status */
  return HAL_OK;
}
 80005e4:	bd38      	pop	{r3, r4, r5, pc}
    HAL_NVIC_SetPriority(SysTick_IRQn, TickPriority, 0U);
 80005e6:	2200      	movs	r2, #0
 80005e8:	4629      	mov	r1, r5
 80005ea:	f04f 30ff 	mov.w	r0, #4294967295
 80005ee:	f000 f9a3 	bl	8000938 <HAL_NVIC_SetPriority>
    uwTickPrio = TickPriority;
 80005f2:	6065      	str	r5, [r4, #4]
 80005f4:	2000      	movs	r0, #0
}
 80005f6:	bd38      	pop	{r3, r4, r5, pc}
 80005f8:	20000000 	.word	0x20000000
 80005fc:	20000008 	.word	0x20000008

08000600 <HAL_Init>:
{
 8000600:	b508      	push	{r3, lr}
  HAL_NVIC_SetPriorityGrouping(NVIC_PRIORITYGROUP_4);
 8000602:	2003      	movs	r0, #3
 8000604:	f000 f984 	bl	8000910 <HAL_NVIC_SetPriorityGrouping>
  HAL_InitTick(TICK_INT_PRIORITY);
 8000608:	2000      	movs	r0, #0
 800060a:	f7ff ffd9 	bl	80005c0 <HAL_InitTick>
  HAL_MspInit();
 800060e:	f003 f969 	bl	80038e4 <HAL_MspInit>
}
 8000612:	2000      	movs	r0, #0
 8000614:	bd08      	pop	{r3, pc}
 8000616:	bf00      	nop

08000618 <HAL_IncTick>:
  *      implementations in user file.
  * @retval None
  */
__weak void HAL_IncTick(void)
{
  uwTick += uwTickFreq;
 8000618:	4a03      	ldr	r2, [pc, #12]	; (8000628 <HAL_IncTick+0x10>)
 800061a:	4b04      	ldr	r3, [pc, #16]	; (800062c <HAL_IncTick+0x14>)
 800061c:	6811      	ldr	r1, [r2, #0]
 800061e:	781b      	ldrb	r3, [r3, #0]
 8000620:	440b      	add	r3, r1
 8000622:	6013      	str	r3, [r2, #0]
}
 8000624:	4770      	bx	lr
 8000626:	bf00      	nop
 8000628:	20000374 	.word	0x20000374
 800062c:	20000000 	.word	0x20000000

08000630 <HAL_GetTick>:
  *       implementations in user file.
  * @retval tick value
  */
__weak uint32_t HAL_GetTick(void)
{
  return uwTick;
 8000630:	4b01      	ldr	r3, [pc, #4]	; (8000638 <HAL_GetTick+0x8>)
 8000632:	6818      	ldr	r0, [r3, #0]
}
 8000634:	4770      	bx	lr
 8000636:	bf00      	nop
 8000638:	20000374 	.word	0x20000374

0800063c <HAL_ADC_Init>:
HAL_StatusTypeDef HAL_ADC_Init(ADC_HandleTypeDef* hadc)
{
  HAL_StatusTypeDef tmp_hal_status = HAL_OK;
  
  /* Check ADC handle */
  if(hadc == NULL)
 800063c:	2800      	cmp	r0, #0
 800063e:	f000 8092 	beq.w	8000766 <HAL_ADC_Init+0x12a>
{
 8000642:	b5f8      	push	{r3, r4, r5, r6, r7, lr}
  if(hadc->Init.ExternalTrigConv != ADC_SOFTWARE_START)
  {
    assert_param(IS_ADC_EXT_TRIG_EDGE(hadc->Init.ExternalTrigConvEdge));
  }

  if(hadc->State == HAL_ADC_STATE_RESET)
 8000644:	6c05      	ldr	r5, [r0, #64]	; 0x40
 8000646:	4604      	mov	r4, r0
 8000648:	2d00      	cmp	r5, #0
 800064a:	f000 8082 	beq.w	8000752 <HAL_ADC_Init+0x116>
    hadc->Lock = HAL_UNLOCKED;
  }
  
  /* Configuration of ADC parameters if previous preliminary actions are      */ 
  /* correctly completed.                                                     */
  if (HAL_IS_BIT_CLR(hadc->State, HAL_ADC_STATE_ERROR_INTERNAL))
 800064e:	6c23      	ldr	r3, [r4, #64]	; 0x40
 8000650:	06db      	lsls	r3, r3, #27
 8000652:	d504      	bpl.n	800065e <HAL_ADC_Init+0x22>
  {
    tmp_hal_status = HAL_ERROR;
  }
  
  /* Release Lock */
  __HAL_UNLOCK(hadc);
 8000654:	2300      	movs	r3, #0
    tmp_hal_status = HAL_ERROR;
 8000656:	2001      	movs	r0, #1
  __HAL_UNLOCK(hadc);
 8000658:	f884 303c 	strb.w	r3, [r4, #60]	; 0x3c

  /* Return function status */
  return tmp_hal_status;
}
 800065c:	bdf8      	pop	{r3, r4, r5, r6, r7, pc}
    ADC_STATE_CLR_SET(hadc->State,
 800065e:	6c23      	ldr	r3, [r4, #64]	; 0x40
 8000660:	4a4e      	ldr	r2, [pc, #312]	; (800079c <HAL_ADC_Init+0x160>)
  */
static void ADC_Init(ADC_HandleTypeDef* hadc)
{
  /* Set ADC parameters */
  /* Set the ADC clock prescaler */
  ADC->CCR &= ~(ADC_CCR_ADCPRE);
 8000662:	494f      	ldr	r1, [pc, #316]	; (80007a0 <HAL_ADC_Init+0x164>)
    ADC_STATE_CLR_SET(hadc->State,
 8000664:	401a      	ands	r2, r3
  ADC->CCR |=  hadc->Init.ClockPrescaler;
  
  /* Set ADC scan mode */
  hadc->Instance->CR1 &= ~(ADC_CR1_SCAN);
 8000666:	6823      	ldr	r3, [r4, #0]
  /* Enable external trigger if trigger selection is different of software  */
  /* start.                                                                 */
  /* Note: This configuration keeps the hardware feature of parameter       */
  /*       ExternalTrigConvEdge "trigger edge none" equivalent to           */
  /*       software start.                                                  */
  if(hadc->Init.ExternalTrigConv != ADC_SOFTWARE_START)
 8000668:	4d4e      	ldr	r5, [pc, #312]	; (80007a4 <HAL_ADC_Init+0x168>)
    ADC_STATE_CLR_SET(hadc->State,
 800066a:	f042 0202 	orr.w	r2, r2, #2
 800066e:	6422      	str	r2, [r4, #64]	; 0x40
  ADC->CCR &= ~(ADC_CCR_ADCPRE);
 8000670:	684a      	ldr	r2, [r1, #4]
 8000672:	f422 3240 	bic.w	r2, r2, #196608	; 0x30000
 8000676:	604a      	str	r2, [r1, #4]
  ADC->CCR |=  hadc->Init.ClockPrescaler;
 8000678:	684a      	ldr	r2, [r1, #4]
 800067a:	6860      	ldr	r0, [r4, #4]
 800067c:	4302      	orrs	r2, r0
 800067e:	604a      	str	r2, [r1, #4]
  hadc->Instance->CR1 &= ~(ADC_CR1_SCAN);
 8000680:	685a      	ldr	r2, [r3, #4]
  hadc->Instance->CR1 |=  ADC_CR1_SCANCONV(hadc->Init.ScanConvMode);
 8000682:	6921      	ldr	r1, [r4, #16]
  hadc->Instance->CR1 &= ~(ADC_CR1_SCAN);
 8000684:	f422 7280 	bic.w	r2, r2, #256	; 0x100
  hadc->Instance->CR1 |=  hadc->Init.Resolution;
 8000688:	f8d4 c008 	ldr.w	ip, [r4, #8]
  hadc->Instance->CR2 |= hadc->Init.DataAlign;
 800068c:	68e7      	ldr	r7, [r4, #12]
  hadc->Instance->CR1 &= ~(ADC_CR1_SCAN);
 800068e:	605a      	str	r2, [r3, #4]
  hadc->Instance->CR1 |=  ADC_CR1_SCANCONV(hadc->Init.ScanConvMode);
 8000690:	6858      	ldr	r0, [r3, #4]
  if(hadc->Init.ExternalTrigConv != ADC_SOFTWARE_START)
 8000692:	6aa6      	ldr	r6, [r4, #40]	; 0x28
  hadc->Instance->CR1 |=  ADC_CR1_SCANCONV(hadc->Init.ScanConvMode);
 8000694:	ea40 2001 	orr.w	r0, r0, r1, lsl #8
  if(hadc->Init.ExternalTrigConv != ADC_SOFTWARE_START)
 8000698:	42ae      	cmp	r6, r5
  hadc->Instance->CR1 |=  ADC_CR1_SCANCONV(hadc->Init.ScanConvMode);
 800069a:	6058      	str	r0, [r3, #4]
  hadc->Instance->CR1 &= ~(ADC_CR1_RES);
 800069c:	6858      	ldr	r0, [r3, #4]
 800069e:	f020 7040 	bic.w	r0, r0, #50331648	; 0x3000000
 80006a2:	6058      	str	r0, [r3, #4]
  hadc->Instance->CR1 |=  hadc->Init.Resolution;
 80006a4:	6859      	ldr	r1, [r3, #4]
 80006a6:	ea41 010c 	orr.w	r1, r1, ip
 80006aa:	6059      	str	r1, [r3, #4]
  hadc->Instance->CR2 &= ~(ADC_CR2_ALIGN);
 80006ac:	6899      	ldr	r1, [r3, #8]
 80006ae:	f421 6100 	bic.w	r1, r1, #2048	; 0x800
 80006b2:	6099      	str	r1, [r3, #8]
  hadc->Instance->CR2 |= hadc->Init.DataAlign;
 80006b4:	689a      	ldr	r2, [r3, #8]
 80006b6:	ea42 0207 	orr.w	r2, r2, r7
 80006ba:	609a      	str	r2, [r3, #8]
  if(hadc->Init.ExternalTrigConv != ADC_SOFTWARE_START)
 80006bc:	d055      	beq.n	800076a <HAL_ADC_Init+0x12e>
  {
    /* Select external trigger to start conversion */
    hadc->Instance->CR2 &= ~(ADC_CR2_EXTSEL);
 80006be:	6899      	ldr	r1, [r3, #8]
    hadc->Instance->CR2 |= hadc->Init.ExternalTrigConv;
    
    /* Select external trigger polarity */
    hadc->Instance->CR2 &= ~(ADC_CR2_EXTEN);
    hadc->Instance->CR2 |= hadc->Init.ExternalTrigConvEdge;
 80006c0:	6ae0      	ldr	r0, [r4, #44]	; 0x2c
    hadc->Instance->CR2 &= ~(ADC_CR2_EXTSEL);
 80006c2:	f021 6170 	bic.w	r1, r1, #251658240	; 0xf000000
 80006c6:	6099      	str	r1, [r3, #8]
    hadc->Instance->CR2 |= hadc->Init.ExternalTrigConv;
 80006c8:	689a      	ldr	r2, [r3, #8]
 80006ca:	4316      	orrs	r6, r2
 80006cc:	609e      	str	r6, [r3, #8]
    hadc->Instance->CR2 &= ~(ADC_CR2_EXTEN);
 80006ce:	6899      	ldr	r1, [r3, #8]
 80006d0:	f021 5140 	bic.w	r1, r1, #805306368	; 0x30000000
 80006d4:	6099      	str	r1, [r3, #8]
    hadc->Instance->CR2 |= hadc->Init.ExternalTrigConvEdge;
 80006d6:	689a      	ldr	r2, [r3, #8]
 80006d8:	4302      	orrs	r2, r0
 80006da:	609a      	str	r2, [r3, #8]
    hadc->Instance->CR2 &= ~(ADC_CR2_EXTSEL);
    hadc->Instance->CR2 &= ~(ADC_CR2_EXTEN);
  }
  
  /* Enable or disable ADC continuous conversion mode */
  hadc->Instance->CR2 &= ~(ADC_CR2_CONT);
 80006dc:	6899      	ldr	r1, [r3, #8]
  hadc->Instance->CR2 |= ADC_CR2_CONTINUOUS((uint32_t)hadc->Init.ContinuousConvMode);
 80006de:	69a5      	ldr	r5, [r4, #24]
  hadc->Instance->CR2 &= ~(ADC_CR2_CONT);
 80006e0:	f021 0102 	bic.w	r1, r1, #2
  
  if(hadc->Init.DiscontinuousConvMode != DISABLE)
 80006e4:	f894 0020 	ldrb.w	r0, [r4, #32]
  hadc->Instance->CR2 &= ~(ADC_CR2_CONT);
 80006e8:	6099      	str	r1, [r3, #8]
  hadc->Instance->CR2 |= ADC_CR2_CONTINUOUS((uint32_t)hadc->Init.ContinuousConvMode);
 80006ea:	689a      	ldr	r2, [r3, #8]
 80006ec:	ea42 0245 	orr.w	r2, r2, r5, lsl #1
 80006f0:	609a      	str	r2, [r3, #8]
  if(hadc->Init.DiscontinuousConvMode != DISABLE)
 80006f2:	2800      	cmp	r0, #0
 80006f4:	d142      	bne.n	800077c <HAL_ADC_Init+0x140>
    hadc->Instance->CR1 |=  ADC_CR1_DISCONTINUOUS(hadc->Init.NbrOfDiscConversion);
  }
  else
  {
    /* Disable the selected ADC regular discontinuous mode */
    hadc->Instance->CR1 &= ~(ADC_CR1_DISCEN);
 80006f6:	685a      	ldr	r2, [r3, #4]
 80006f8:	f422 6200 	bic.w	r2, r2, #2048	; 0x800
 80006fc:	605a      	str	r2, [r3, #4]
  }
  
  /* Set ADC number of conversion */
  hadc->Instance->SQR1 &= ~(ADC_SQR1_L);
 80006fe:	6ad8      	ldr	r0, [r3, #44]	; 0x2c
    ADC_CLEAR_ERRORCODE(hadc);
 8000700:	2600      	movs	r6, #0
  hadc->Instance->SQR1 |=  ADC_SQR1(hadc->Init.NbrOfConversion);
 8000702:	69e5      	ldr	r5, [r4, #28]
  hadc->Instance->SQR1 &= ~(ADC_SQR1_L);
 8000704:	f420 0070 	bic.w	r0, r0, #15728640	; 0xf00000
  
  /* Enable or disable ADC DMA continuous request */
  hadc->Instance->CR2 &= ~(ADC_CR2_DDS);
  hadc->Instance->CR2 |= ADC_CR2_DMAContReq((uint32_t)hadc->Init.DMAContinuousRequests);
 8000708:	f894 c030 	ldrb.w	ip, [r4, #48]	; 0x30
  hadc->Instance->SQR1 |=  ADC_SQR1(hadc->Init.NbrOfConversion);
 800070c:	1e6a      	subs	r2, r5, #1
  
  /* Enable or disable ADC end of conversion selection */
  hadc->Instance->CR2 &= ~(ADC_CR2_EOCS);
  hadc->Instance->CR2 |= ADC_CR2_EOCSelection(hadc->Init.EOCSelection);
 800070e:	6967      	ldr	r7, [r4, #20]
  hadc->Instance->SQR1 &= ~(ADC_SQR1_L);
 8000710:	62d8      	str	r0, [r3, #44]	; 0x2c
  HAL_StatusTypeDef tmp_hal_status = HAL_OK;
 8000712:	4630      	mov	r0, r6
  hadc->Instance->SQR1 |=  ADC_SQR1(hadc->Init.NbrOfConversion);
 8000714:	6add      	ldr	r5, [r3, #44]	; 0x2c
 8000716:	ea45 5502 	orr.w	r5, r5, r2, lsl #20
 800071a:	62dd      	str	r5, [r3, #44]	; 0x2c
  hadc->Instance->CR2 &= ~(ADC_CR2_DDS);
 800071c:	689d      	ldr	r5, [r3, #8]
 800071e:	f425 7500 	bic.w	r5, r5, #512	; 0x200
 8000722:	609d      	str	r5, [r3, #8]
  hadc->Instance->CR2 |= ADC_CR2_DMAContReq((uint32_t)hadc->Init.DMAContinuousRequests);
 8000724:	6899      	ldr	r1, [r3, #8]
 8000726:	ea41 214c 	orr.w	r1, r1, ip, lsl #9
 800072a:	6099      	str	r1, [r3, #8]
  hadc->Instance->CR2 &= ~(ADC_CR2_EOCS);
 800072c:	6899      	ldr	r1, [r3, #8]
 800072e:	f421 6180 	bic.w	r1, r1, #1024	; 0x400
 8000732:	6099      	str	r1, [r3, #8]
  hadc->Instance->CR2 |= ADC_CR2_EOCSelection(hadc->Init.EOCSelection);
 8000734:	689a      	ldr	r2, [r3, #8]
 8000736:	ea42 2287 	orr.w	r2, r2, r7, lsl #10
 800073a:	609a      	str	r2, [r3, #8]
    ADC_CLEAR_ERRORCODE(hadc);
 800073c:	6466      	str	r6, [r4, #68]	; 0x44
    ADC_STATE_CLR_SET(hadc->State,
 800073e:	6c23      	ldr	r3, [r4, #64]	; 0x40
 8000740:	f023 0303 	bic.w	r3, r3, #3
 8000744:	f043 0301 	orr.w	r3, r3, #1
 8000748:	6423      	str	r3, [r4, #64]	; 0x40
  __HAL_UNLOCK(hadc);
 800074a:	2300      	movs	r3, #0
 800074c:	f884 303c 	strb.w	r3, [r4, #60]	; 0x3c
}
 8000750:	bdf8      	pop	{r3, r4, r5, r6, r7, pc}
    HAL_ADC_MspInit(hadc);
 8000752:	f003 f8df 	bl	8003914 <HAL_ADC_MspInit>
    ADC_CLEAR_ERRORCODE(hadc);
 8000756:	6465      	str	r5, [r4, #68]	; 0x44
  if (HAL_IS_BIT_CLR(hadc->State, HAL_ADC_STATE_ERROR_INTERNAL))
 8000758:	6c23      	ldr	r3, [r4, #64]	; 0x40
    hadc->Lock = HAL_UNLOCKED;
 800075a:	f884 503c 	strb.w	r5, [r4, #60]	; 0x3c
  if (HAL_IS_BIT_CLR(hadc->State, HAL_ADC_STATE_ERROR_INTERNAL))
 800075e:	06db      	lsls	r3, r3, #27
 8000760:	f53f af78 	bmi.w	8000654 <HAL_ADC_Init+0x18>
 8000764:	e77b      	b.n	800065e <HAL_ADC_Init+0x22>
    return HAL_ERROR;
 8000766:	2001      	movs	r0, #1
}
 8000768:	4770      	bx	lr
    hadc->Instance->CR2 &= ~(ADC_CR2_EXTSEL);
 800076a:	689a      	ldr	r2, [r3, #8]
 800076c:	f022 6270 	bic.w	r2, r2, #251658240	; 0xf000000
 8000770:	609a      	str	r2, [r3, #8]
    hadc->Instance->CR2 &= ~(ADC_CR2_EXTEN);
 8000772:	689a      	ldr	r2, [r3, #8]
 8000774:	f022 5240 	bic.w	r2, r2, #805306368	; 0x30000000
 8000778:	609a      	str	r2, [r3, #8]
 800077a:	e7af      	b.n	80006dc <HAL_ADC_Init+0xa0>
    hadc->Instance->CR1 |= (uint32_t)ADC_CR1_DISCEN;
 800077c:	6858      	ldr	r0, [r3, #4]
    hadc->Instance->CR1 |=  ADC_CR1_DISCONTINUOUS(hadc->Init.NbrOfDiscConversion);
 800077e:	6a62      	ldr	r2, [r4, #36]	; 0x24
    hadc->Instance->CR1 |= (uint32_t)ADC_CR1_DISCEN;
 8000780:	f440 6000 	orr.w	r0, r0, #2048	; 0x800
    hadc->Instance->CR1 |=  ADC_CR1_DISCONTINUOUS(hadc->Init.NbrOfDiscConversion);
 8000784:	1e51      	subs	r1, r2, #1
    hadc->Instance->CR1 |= (uint32_t)ADC_CR1_DISCEN;
 8000786:	6058      	str	r0, [r3, #4]
    hadc->Instance->CR1 &= ~(ADC_CR1_DISCNUM);
 8000788:	685a      	ldr	r2, [r3, #4]
 800078a:	f422 4260 	bic.w	r2, r2, #57344	; 0xe000
 800078e:	605a      	str	r2, [r3, #4]
    hadc->Instance->CR1 |=  ADC_CR1_DISCONTINUOUS(hadc->Init.NbrOfDiscConversion);
 8000790:	685a      	ldr	r2, [r3, #4]
 8000792:	ea42 3241 	orr.w	r2, r2, r1, lsl #13
 8000796:	605a      	str	r2, [r3, #4]
 8000798:	e7b1      	b.n	80006fe <HAL_ADC_Init+0xc2>
 800079a:	bf00      	nop
 800079c:	ffffeefd 	.word	0xffffeefd
 80007a0:	40012300 	.word	0x40012300
 80007a4:	0f000001 	.word	0x0f000001

080007a8 <HAL_ADC_ConfigChannel>:
  __HAL_LOCK(hadc);
 80007a8:	f890 303c 	ldrb.w	r3, [r0, #60]	; 0x3c
  __IO uint32_t counter = 0;
 80007ac:	2200      	movs	r2, #0
{
 80007ae:	b5f0      	push	{r4, r5, r6, r7, lr}
  __HAL_LOCK(hadc);
 80007b0:	2b01      	cmp	r3, #1
{
 80007b2:	b083      	sub	sp, #12
  __IO uint32_t counter = 0;
 80007b4:	9201      	str	r2, [sp, #4]
  __HAL_LOCK(hadc);
 80007b6:	f000 809a 	beq.w	80008ee <HAL_ADC_ConfigChannel+0x146>
	if (sConfig->Channel > ADC_CHANNEL_9)
 80007ba:	680d      	ldr	r5, [r1, #0]
  __HAL_LOCK(hadc);
 80007bc:	2201      	movs	r2, #1
 80007be:	6803      	ldr	r3, [r0, #0]
	if (sConfig->Channel > ADC_CHANNEL_9)
 80007c0:	2d09      	cmp	r5, #9
  __HAL_LOCK(hadc);
 80007c2:	f880 203c 	strb.w	r2, [r0, #60]	; 0x3c
 80007c6:	b2af      	uxth	r7, r5
 80007c8:	688a      	ldr	r2, [r1, #8]
	if (sConfig->Channel > ADC_CHANNEL_9)
 80007ca:	d828      	bhi.n	800081e <HAL_ADC_ConfigChannel+0x76>
    hadc->Instance->SMPR2 &= ~ADC_SMPR2(ADC_SMPR2_SMP0, sConfig->Channel);
 80007cc:	eb05 0645 	add.w	r6, r5, r5, lsl #1
 80007d0:	f04f 0c07 	mov.w	ip, #7
 80007d4:	691c      	ldr	r4, [r3, #16]
 80007d6:	fa0c fc06 	lsl.w	ip, ip, r6
    hadc->Instance->SMPR2 |= ADC_SMPR2(sConfig->SamplingTime, sConfig->Channel);
 80007da:	fa02 f606 	lsl.w	r6, r2, r6
    hadc->Instance->SMPR2 &= ~ADC_SMPR2(ADC_SMPR2_SMP0, sConfig->Channel);
 80007de:	ea24 040c 	bic.w	r4, r4, ip
 80007e2:	611c      	str	r4, [r3, #16]
    hadc->Instance->SMPR2 |= ADC_SMPR2(sConfig->SamplingTime, sConfig->Channel);
 80007e4:	691a      	ldr	r2, [r3, #16]
 80007e6:	4316      	orrs	r6, r2
 80007e8:	611e      	str	r6, [r3, #16]
  if (sConfig->Rank < 7)
 80007ea:	684e      	ldr	r6, [r1, #4]
 80007ec:	2e06      	cmp	r6, #6
 80007ee:	eb06 0286 	add.w	r2, r6, r6, lsl #2
 80007f2:	d82d      	bhi.n	8000850 <HAL_ADC_ConfigChannel+0xa8>
    hadc->Instance->SQR3 &= ~ADC_SQR3_RK(ADC_SQR3_SQ1, sConfig->Rank);
 80007f4:	3a05      	subs	r2, #5
 80007f6:	241f      	movs	r4, #31
 80007f8:	6b59      	ldr	r1, [r3, #52]	; 0x34
 80007fa:	4094      	lsls	r4, r2
    hadc->Instance->SQR3 |= ADC_SQR3_RK(sConfig->Channel, sConfig->Rank);
 80007fc:	fa07 f202 	lsl.w	r2, r7, r2
    hadc->Instance->SQR3 &= ~ADC_SQR3_RK(ADC_SQR3_SQ1, sConfig->Rank);
 8000800:	ea21 0104 	bic.w	r1, r1, r4
 8000804:	6359      	str	r1, [r3, #52]	; 0x34
    hadc->Instance->SQR3 |= ADC_SQR3_RK(sConfig->Channel, sConfig->Rank);
 8000806:	6b59      	ldr	r1, [r3, #52]	; 0x34
 8000808:	430a      	orrs	r2, r1
 800080a:	635a      	str	r2, [r3, #52]	; 0x34
  if ((hadc->Instance == ADC1) && (sConfig->Channel == ADC_CHANNEL_VBAT))
 800080c:	4a3c      	ldr	r2, [pc, #240]	; (8000900 <HAL_ADC_ConfigChannel+0x158>)
 800080e:	4293      	cmp	r3, r2
 8000810:	d030      	beq.n	8000874 <HAL_ADC_ConfigChannel+0xcc>
  __HAL_UNLOCK(hadc);
 8000812:	2300      	movs	r3, #0
 8000814:	f880 303c 	strb.w	r3, [r0, #60]	; 0x3c
  return HAL_OK;
 8000818:	4618      	mov	r0, r3
}
 800081a:	b003      	add	sp, #12
 800081c:	bdf0      	pop	{r4, r5, r6, r7, pc}
		hadc->Instance->SMPR1 &= ~ADC_SMPR1(ADC_SMPR1_SMP10, sConfig->Channel);
 800081e:	eb07 0647 	add.w	r6, r7, r7, lsl #1
 8000822:	f04f 0c07 	mov.w	ip, #7
 8000826:	68dc      	ldr	r4, [r3, #12]
 8000828:	3e1e      	subs	r6, #30
		if (sConfig->Channel == ADC_CHANNEL_TEMPSENSOR)
 800082a:	f8df e0d8 	ldr.w	lr, [pc, #216]	; 8000904 <HAL_ADC_ConfigChannel+0x15c>
		hadc->Instance->SMPR1 &= ~ADC_SMPR1(ADC_SMPR1_SMP10, sConfig->Channel);
 800082e:	fa0c fc06 	lsl.w	ip, ip, r6
		if (sConfig->Channel == ADC_CHANNEL_TEMPSENSOR)
 8000832:	4575      	cmp	r5, lr
		hadc->Instance->SMPR1 &= ~ADC_SMPR1(ADC_SMPR1_SMP10, sConfig->Channel);
 8000834:	ea24 040c 	bic.w	r4, r4, ip
 8000838:	60dc      	str	r4, [r3, #12]
		if (sConfig->Channel == ADC_CHANNEL_TEMPSENSOR)
 800083a:	d05b      	beq.n	80008f4 <HAL_ADC_ConfigChannel+0x14c>
		  hadc->Instance->SMPR1 |= ADC_SMPR1(sConfig->SamplingTime, sConfig->Channel);
 800083c:	fa02 f606 	lsl.w	r6, r2, r6
 8000840:	68da      	ldr	r2, [r3, #12]
 8000842:	4316      	orrs	r6, r2
 8000844:	60de      	str	r6, [r3, #12]
  if (sConfig->Rank < 7)
 8000846:	684e      	ldr	r6, [r1, #4]
 8000848:	2e06      	cmp	r6, #6
 800084a:	eb06 0286 	add.w	r2, r6, r6, lsl #2
 800084e:	d9d1      	bls.n	80007f4 <HAL_ADC_ConfigChannel+0x4c>
  else if (sConfig->Rank < 13)
 8000850:	2e0c      	cmp	r6, #12
 8000852:	d837      	bhi.n	80008c4 <HAL_ADC_ConfigChannel+0x11c>
    hadc->Instance->SQR2 &= ~ADC_SQR2_RK(ADC_SQR2_SQ7, sConfig->Rank);
 8000854:	f1a2 0423 	sub.w	r4, r2, #35	; 0x23
 8000858:	261f      	movs	r6, #31
 800085a:	6b19      	ldr	r1, [r3, #48]	; 0x30
 800085c:	40a6      	lsls	r6, r4
    hadc->Instance->SQR2 |= ADC_SQR2_RK(sConfig->Channel, sConfig->Rank);
 800085e:	fa07 f204 	lsl.w	r2, r7, r4
    hadc->Instance->SQR2 &= ~ADC_SQR2_RK(ADC_SQR2_SQ7, sConfig->Rank);
 8000862:	ea21 0106 	bic.w	r1, r1, r6
 8000866:	6319      	str	r1, [r3, #48]	; 0x30
    hadc->Instance->SQR2 |= ADC_SQR2_RK(sConfig->Channel, sConfig->Rank);
 8000868:	6b1c      	ldr	r4, [r3, #48]	; 0x30
 800086a:	4314      	orrs	r4, r2
  if ((hadc->Instance == ADC1) && (sConfig->Channel == ADC_CHANNEL_VBAT))
 800086c:	4a24      	ldr	r2, [pc, #144]	; (8000900 <HAL_ADC_ConfigChannel+0x158>)
 800086e:	4293      	cmp	r3, r2
    hadc->Instance->SQR2 |= ADC_SQR2_RK(sConfig->Channel, sConfig->Rank);
 8000870:	631c      	str	r4, [r3, #48]	; 0x30
  if ((hadc->Instance == ADC1) && (sConfig->Channel == ADC_CHANNEL_VBAT))
 8000872:	d1ce      	bne.n	8000812 <HAL_ADC_ConfigChannel+0x6a>
 8000874:	2d12      	cmp	r5, #18
 8000876:	d033      	beq.n	80008e0 <HAL_ADC_ConfigChannel+0x138>
  if ((hadc->Instance == ADC1) && ((sConfig->Channel == ADC_CHANNEL_TEMPSENSOR) || (sConfig->Channel == ADC_CHANNEL_VREFINT)))
 8000878:	4b22      	ldr	r3, [pc, #136]	; (8000904 <HAL_ADC_ConfigChannel+0x15c>)
 800087a:	429d      	cmp	r5, r3
 800087c:	d001      	beq.n	8000882 <HAL_ADC_ConfigChannel+0xda>
 800087e:	2d11      	cmp	r5, #17
 8000880:	d1c7      	bne.n	8000812 <HAL_ADC_ConfigChannel+0x6a>
    ADC->CCR |= ADC_CCR_TSVREFE;
 8000882:	4a21      	ldr	r2, [pc, #132]	; (8000908 <HAL_ADC_ConfigChannel+0x160>)
    if(sConfig->Channel == ADC_CHANNEL_TEMPSENSOR)
 8000884:	491f      	ldr	r1, [pc, #124]	; (8000904 <HAL_ADC_ConfigChannel+0x15c>)
    ADC->CCR |= ADC_CCR_TSVREFE;
 8000886:	6853      	ldr	r3, [r2, #4]
    if(sConfig->Channel == ADC_CHANNEL_TEMPSENSOR)
 8000888:	428d      	cmp	r5, r1
    ADC->CCR |= ADC_CCR_TSVREFE;
 800088a:	f443 0300 	orr.w	r3, r3, #8388608	; 0x800000
 800088e:	6053      	str	r3, [r2, #4]
    if(sConfig->Channel == ADC_CHANNEL_TEMPSENSOR)
 8000890:	d1bf      	bne.n	8000812 <HAL_ADC_ConfigChannel+0x6a>
      counter = (ADC_TEMPSENSOR_DELAY_US * (SystemCoreClock / 1000000));
 8000892:	f102 7246 	add.w	r2, r2, #51904512	; 0x3180000
 8000896:	4b1d      	ldr	r3, [pc, #116]	; (800090c <HAL_ADC_ConfigChannel+0x164>)
 8000898:	f502 322e 	add.w	r2, r2, #178176	; 0x2b800
 800089c:	681b      	ldr	r3, [r3, #0]
 800089e:	f202 3283 	addw	r2, r2, #899	; 0x383
 80008a2:	fba2 2303 	umull	r2, r3, r2, r3
 80008a6:	0c9b      	lsrs	r3, r3, #18
 80008a8:	eb03 0383 	add.w	r3, r3, r3, lsl #2
 80008ac:	005b      	lsls	r3, r3, #1
 80008ae:	9301      	str	r3, [sp, #4]
      while(counter != 0)
 80008b0:	9b01      	ldr	r3, [sp, #4]
 80008b2:	2b00      	cmp	r3, #0
 80008b4:	d0ad      	beq.n	8000812 <HAL_ADC_ConfigChannel+0x6a>
        counter--;
 80008b6:	9b01      	ldr	r3, [sp, #4]
 80008b8:	3b01      	subs	r3, #1
 80008ba:	9301      	str	r3, [sp, #4]
      while(counter != 0)
 80008bc:	9b01      	ldr	r3, [sp, #4]
 80008be:	2b00      	cmp	r3, #0
 80008c0:	d1f9      	bne.n	80008b6 <HAL_ADC_ConfigChannel+0x10e>
 80008c2:	e7a6      	b.n	8000812 <HAL_ADC_ConfigChannel+0x6a>
    hadc->Instance->SQR1 &= ~ADC_SQR1_RK(ADC_SQR1_SQ13, sConfig->Rank);
 80008c4:	f1a2 0141 	sub.w	r1, r2, #65	; 0x41
 80008c8:	261f      	movs	r6, #31
 80008ca:	6adc      	ldr	r4, [r3, #44]	; 0x2c
 80008cc:	408e      	lsls	r6, r1
    hadc->Instance->SQR1 |= ADC_SQR1_RK(sConfig->Channel, sConfig->Rank);
 80008ce:	fa07 f201 	lsl.w	r2, r7, r1
    hadc->Instance->SQR1 &= ~ADC_SQR1_RK(ADC_SQR1_SQ13, sConfig->Rank);
 80008d2:	ea24 0406 	bic.w	r4, r4, r6
 80008d6:	62dc      	str	r4, [r3, #44]	; 0x2c
    hadc->Instance->SQR1 |= ADC_SQR1_RK(sConfig->Channel, sConfig->Rank);
 80008d8:	6ad9      	ldr	r1, [r3, #44]	; 0x2c
 80008da:	430a      	orrs	r2, r1
 80008dc:	62da      	str	r2, [r3, #44]	; 0x2c
 80008de:	e795      	b.n	800080c <HAL_ADC_ConfigChannel+0x64>
    ADC->CCR |= ADC_CCR_VBATE;
 80008e0:	f8d2 3304 	ldr.w	r3, [r2, #772]	; 0x304
 80008e4:	f443 0380 	orr.w	r3, r3, #4194304	; 0x400000
 80008e8:	f8c2 3304 	str.w	r3, [r2, #772]	; 0x304
 80008ec:	e791      	b.n	8000812 <HAL_ADC_ConfigChannel+0x6a>
  __HAL_LOCK(hadc);
 80008ee:	2002      	movs	r0, #2
}
 80008f0:	b003      	add	sp, #12
 80008f2:	bdf0      	pop	{r4, r5, r6, r7, pc}
			hadc->Instance->SMPR1 |= ADC_SMPR1(sConfig->SamplingTime, ADC_CHANNEL_18);
 80008f4:	68de      	ldr	r6, [r3, #12]
 80008f6:	ea46 6602 	orr.w	r6, r6, r2, lsl #24
 80008fa:	60de      	str	r6, [r3, #12]
 80008fc:	e775      	b.n	80007ea <HAL_ADC_ConfigChannel+0x42>
 80008fe:	bf00      	nop
 8000900:	40012000 	.word	0x40012000
 8000904:	10000012 	.word	0x10000012
 8000908:	40012300 	.word	0x40012300
 800090c:	20000008 	.word	0x20000008

08000910 <HAL_NVIC_SetPriorityGrouping>:
__STATIC_INLINE void __NVIC_SetPriorityGrouping(uint32_t PriorityGroup)
{
  uint32_t reg_value;
  uint32_t PriorityGroupTmp = (PriorityGroup & (uint32_t)0x07UL);             /* only values 0..7 are used          */

  reg_value  =  SCB->AIRCR;                                                   /* read old register configuration    */
 8000910:	4907      	ldr	r1, [pc, #28]	; (8000930 <HAL_NVIC_SetPriorityGrouping+0x20>)
  reg_value &= ~((uint32_t)(SCB_AIRCR_VECTKEY_Msk | SCB_AIRCR_PRIGROUP_Msk)); /* clear bits to change               */
  reg_value  =  (reg_value                                   |
                ((uint32_t)0x5FAUL << SCB_AIRCR_VECTKEY_Pos) |
                (PriorityGroupTmp << SCB_AIRCR_PRIGROUP_Pos)  );              /* Insert write key and priority group */
 8000912:	0200      	lsls	r0, r0, #8
 8000914:	4b07      	ldr	r3, [pc, #28]	; (8000934 <HAL_NVIC_SetPriorityGrouping+0x24>)
  reg_value  =  SCB->AIRCR;                                                   /* read old register configuration    */
 8000916:	68ca      	ldr	r2, [r1, #12]
                (PriorityGroupTmp << SCB_AIRCR_PRIGROUP_Pos)  );              /* Insert write key and priority group */
 8000918:	f400 60e0 	and.w	r0, r0, #1792	; 0x700
  * @note   When the NVIC_PriorityGroup_0 is selected, IRQ preemption is no more possible. 
  *         The pending IRQ priority will be managed only by the subpriority. 
  * @retval None
  */
void HAL_NVIC_SetPriorityGrouping(uint32_t PriorityGroup)
{
 800091c:	b410      	push	{r4}
  reg_value &= ~((uint32_t)(SCB_AIRCR_VECTKEY_Msk | SCB_AIRCR_PRIGROUP_Msk)); /* clear bits to change               */
 800091e:	f64f 04ff 	movw	r4, #63743	; 0xf8ff
 8000922:	4022      	ands	r2, r4
  /* Check the parameters */
  assert_param(IS_NVIC_PRIORITY_GROUP(PriorityGroup));
  
  /* Set the PRIGROUP[10:8] bits according to the PriorityGroup parameter value */
  NVIC_SetPriorityGrouping(PriorityGroup);
}
 8000924:	f85d 4b04 	ldr.w	r4, [sp], #4
 8000928:	4313      	orrs	r3, r2
  reg_value  =  (reg_value                                   |
 800092a:	4318      	orrs	r0, r3
  SCB->AIRCR =  reg_value;
 800092c:	60c8      	str	r0, [r1, #12]
 800092e:	4770      	bx	lr
 8000930:	e000ed00 	.word	0xe000ed00
 8000934:	05fa0000 	.word	0x05fa0000

08000938 <HAL_NVIC_SetPriority>:
  \details Reads the priority grouping field from the NVIC Interrupt Controller.
  \return                Priority grouping field (SCB->AIRCR [10:8] PRIGROUP field).
 */
__STATIC_INLINE uint32_t __NVIC_GetPriorityGrouping(void)
{
  return ((uint32_t)((SCB->AIRCR & SCB_AIRCR_PRIGROUP_Msk) >> SCB_AIRCR_PRIGROUP_Pos));
 8000938:	4b17      	ldr	r3, [pc, #92]	; (8000998 <HAL_NVIC_SetPriority+0x60>)
 800093a:	68db      	ldr	r3, [r3, #12]
 800093c:	f3c3 2302 	ubfx	r3, r3, #8, #3
  *         This parameter can be a value between 0 and 15
  *         A lower priority value indicates a higher priority.          
  * @retval None
  */
void HAL_NVIC_SetPriority(IRQn_Type IRQn, uint32_t PreemptPriority, uint32_t SubPriority)
{ 
 8000940:	b430      	push	{r4, r5}
{
  uint32_t PriorityGroupTmp = (PriorityGroup & (uint32_t)0x07UL);   /* only values 0..7 are used          */
  uint32_t PreemptPriorityBits;
  uint32_t SubPriorityBits;

  PreemptPriorityBits = ((7UL - PriorityGroupTmp) > (uint32_t)(__NVIC_PRIO_BITS)) ? (uint32_t)(__NVIC_PRIO_BITS) : (uint32_t)(7UL - PriorityGroupTmp);
 8000942:	f1c3 0507 	rsb	r5, r3, #7
  SubPriorityBits     = ((PriorityGroupTmp + (uint32_t)(__NVIC_PRIO_BITS)) < (uint32_t)7UL) ? (uint32_t)0UL : (uint32_t)((PriorityGroupTmp - 7UL) + (uint32_t)(__NVIC_PRIO_BITS));
 8000946:	1d1c      	adds	r4, r3, #4
  PreemptPriorityBits = ((7UL - PriorityGroupTmp) > (uint32_t)(__NVIC_PRIO_BITS)) ? (uint32_t)(__NVIC_PRIO_BITS) : (uint32_t)(7UL - PriorityGroupTmp);
 8000948:	2d04      	cmp	r5, #4
 800094a:	bf28      	it	cs
 800094c:	2504      	movcs	r5, #4
  SubPriorityBits     = ((PriorityGroupTmp + (uint32_t)(__NVIC_PRIO_BITS)) < (uint32_t)7UL) ? (uint32_t)0UL : (uint32_t)((PriorityGroupTmp - 7UL) + (uint32_t)(__NVIC_PRIO_BITS));
 800094e:	2c06      	cmp	r4, #6
 8000950:	d918      	bls.n	8000984 <HAL_NVIC_SetPriority+0x4c>
 8000952:	3b03      	subs	r3, #3
 8000954:	f04f 34ff 	mov.w	r4, #4294967295
 8000958:	409c      	lsls	r4, r3
 800095a:	ea22 0404 	bic.w	r4, r2, r4

  return (
           ((PreemptPriority & (uint32_t)((1UL << (PreemptPriorityBits)) - 1UL)) << SubPriorityBits) |
 800095e:	f04f 32ff 	mov.w	r2, #4294967295
  if ((int32_t)(IRQn) >= 0)
 8000962:	2800      	cmp	r0, #0
           ((PreemptPriority & (uint32_t)((1UL << (PreemptPriorityBits)) - 1UL)) << SubPriorityBits) |
 8000964:	fa02 f205 	lsl.w	r2, r2, r5
 8000968:	ea21 0102 	bic.w	r1, r1, r2
 800096c:	fa01 f203 	lsl.w	r2, r1, r3
 8000970:	ea42 0204 	orr.w	r2, r2, r4
 8000974:	ea4f 1202 	mov.w	r2, r2, lsl #4
 8000978:	b2d2      	uxtb	r2, r2
  if ((int32_t)(IRQn) >= 0)
 800097a:	db06      	blt.n	800098a <HAL_NVIC_SetPriority+0x52>
    NVIC->IP[((uint32_t)IRQn)]                = (uint8_t)((priority << (8U - __NVIC_PRIO_BITS)) & (uint32_t)0xFFUL);
 800097c:	4b07      	ldr	r3, [pc, #28]	; (800099c <HAL_NVIC_SetPriority+0x64>)
 800097e:	541a      	strb	r2, [r3, r0]
  assert_param(IS_NVIC_PREEMPTION_PRIORITY(PreemptPriority));
  
  prioritygroup = NVIC_GetPriorityGrouping();
  
  NVIC_SetPriority(IRQn, NVIC_EncodePriority(prioritygroup, PreemptPriority, SubPriority));
}
 8000980:	bc30      	pop	{r4, r5}
 8000982:	4770      	bx	lr
  SubPriorityBits     = ((PriorityGroupTmp + (uint32_t)(__NVIC_PRIO_BITS)) < (uint32_t)7UL) ? (uint32_t)0UL : (uint32_t)((PriorityGroupTmp - 7UL) + (uint32_t)(__NVIC_PRIO_BITS));
 8000984:	2400      	movs	r4, #0
 8000986:	4623      	mov	r3, r4
 8000988:	e7e9      	b.n	800095e <HAL_NVIC_SetPriority+0x26>
    SCB->SHPR[(((uint32_t)IRQn) & 0xFUL)-4UL] = (uint8_t)((priority << (8U - __NVIC_PRIO_BITS)) & (uint32_t)0xFFUL);
 800098a:	f000 000f 	and.w	r0, r0, #15
 800098e:	4b04      	ldr	r3, [pc, #16]	; (80009a0 <HAL_NVIC_SetPriority+0x68>)
 8000990:	541a      	strb	r2, [r3, r0]
 8000992:	bc30      	pop	{r4, r5}
 8000994:	4770      	bx	lr
 8000996:	bf00      	nop
 8000998:	e000ed00 	.word	0xe000ed00
 800099c:	e000e400 	.word	0xe000e400
 80009a0:	e000ed14 	.word	0xe000ed14

080009a4 <HAL_NVIC_EnableIRQ>:
  if ((int32_t)(IRQn) >= 0)
 80009a4:	2800      	cmp	r0, #0
 80009a6:	db07      	blt.n	80009b8 <HAL_NVIC_EnableIRQ+0x14>
    NVIC->ISER[(((uint32_t)IRQn) >> 5UL)] = (uint32_t)(1UL << (((uint32_t)IRQn) & 0x1FUL));
 80009a8:	f000 011f 	and.w	r1, r0, #31
 80009ac:	2301      	movs	r3, #1
 80009ae:	0940      	lsrs	r0, r0, #5
 80009b0:	4a02      	ldr	r2, [pc, #8]	; (80009bc <HAL_NVIC_EnableIRQ+0x18>)
 80009b2:	408b      	lsls	r3, r1
 80009b4:	f842 3020 	str.w	r3, [r2, r0, lsl #2]
  /* Check the parameters */
  assert_param(IS_NVIC_DEVICE_IRQ(IRQn));
  
  /* Enable interrupt */
  NVIC_EnableIRQ(IRQn);
}
 80009b8:	4770      	bx	lr
 80009ba:	bf00      	nop
 80009bc:	e000e100 	.word	0xe000e100

080009c0 <HAL_SYSTICK_Config>:
           function <b>SysTick_Config</b> is not included. In this case, the file <b><i>device</i>.h</b>
           must contain a vendor-specific implementation of this function.
 */
__STATIC_INLINE uint32_t SysTick_Config(uint32_t ticks)
{
  if ((ticks - 1UL) > SysTick_LOAD_RELOAD_Msk)
 80009c0:	3801      	subs	r0, #1
 80009c2:	f1b0 7f80 	cmp.w	r0, #16777216	; 0x1000000
 80009c6:	d20d      	bcs.n	80009e4 <HAL_SYSTICK_Config+0x24>
  {
    return (1UL);                                                   /* Reload value impossible */
  }

  SysTick->LOAD  = (uint32_t)(ticks - 1UL);                         /* set reload register */
 80009c8:	4b07      	ldr	r3, [pc, #28]	; (80009e8 <HAL_SYSTICK_Config+0x28>)
  NVIC_SetPriority (SysTick_IRQn, (1UL << __NVIC_PRIO_BITS) - 1UL); /* set Priority for Systick Interrupt */
  SysTick->VAL   = 0UL;                                             /* Load the SysTick Counter Value */
 80009ca:	2200      	movs	r2, #0
  SysTick->CTRL  = SysTick_CTRL_CLKSOURCE_Msk |
 80009cc:	2107      	movs	r1, #7
  * @param  TicksNumb Specifies the ticks Number of ticks between two interrupts.
  * @retval status:  - 0  Function succeeded.
  *                  - 1  Function failed.
  */
uint32_t HAL_SYSTICK_Config(uint32_t TicksNumb)
{
 80009ce:	b430      	push	{r4, r5}
    SCB->SHPR[(((uint32_t)IRQn) & 0xFUL)-4UL] = (uint8_t)((priority << (8U - __NVIC_PRIO_BITS)) & (uint32_t)0xFFUL);
 80009d0:	25f0      	movs	r5, #240	; 0xf0
 80009d2:	4c06      	ldr	r4, [pc, #24]	; (80009ec <HAL_SYSTICK_Config+0x2c>)
  SysTick->LOAD  = (uint32_t)(ticks - 1UL);                         /* set reload register */
 80009d4:	6058      	str	r0, [r3, #4]
                   SysTick_CTRL_TICKINT_Msk   |
                   SysTick_CTRL_ENABLE_Msk;                         /* Enable SysTick IRQ and SysTick Timer */
  return (0UL);                                                     /* Function successful */
 80009d6:	4610      	mov	r0, r2
    SCB->SHPR[(((uint32_t)IRQn) & 0xFUL)-4UL] = (uint8_t)((priority << (8U - __NVIC_PRIO_BITS)) & (uint32_t)0xFFUL);
 80009d8:	f884 5023 	strb.w	r5, [r4, #35]	; 0x23
  SysTick->VAL   = 0UL;                                             /* Load the SysTick Counter Value */
 80009dc:	609a      	str	r2, [r3, #8]
  SysTick->CTRL  = SysTick_CTRL_CLKSOURCE_Msk |
 80009de:	6019      	str	r1, [r3, #0]
   return SysTick_Config(TicksNumb);
}
 80009e0:	bc30      	pop	{r4, r5}
 80009e2:	4770      	bx	lr
    return (1UL);                                                   /* Reload value impossible */
 80009e4:	2001      	movs	r0, #1
 80009e6:	4770      	bx	lr
 80009e8:	e000e010 	.word	0xe000e010
 80009ec:	e000ed00 	.word	0xe000ed00

080009f0 <HAL_DCMI_Init>:
  * @retval HAL status
  */
HAL_StatusTypeDef HAL_DCMI_Init(DCMI_HandleTypeDef *hdcmi)
{     
  /* Check the DCMI peripheral state */
  if(hdcmi == NULL)
 80009f0:	2800      	cmp	r0, #0
 80009f2:	d044      	beq.n	8000a7e <HAL_DCMI_Init+0x8e>
{     
 80009f4:	b5f8      	push	{r3, r4, r5, r6, r7, lr}
  assert_param(IS_DCMI_BYTE_SELECT_MODE(hdcmi->Init.ByteSelectMode));
  assert_param(IS_DCMI_BYTE_SELECT_START(hdcmi->Init.ByteSelectStart));
  assert_param(IS_DCMI_LINE_SELECT_MODE(hdcmi->Init.LineSelectMode));
  assert_param(IS_DCMI_LINE_SELECT_START(hdcmi->Init.LineSelectStart));
                
  if(hdcmi->State == HAL_DCMI_STATE_RESET)
 80009f6:	f890 3035 	ldrb.w	r3, [r0, #53]	; 0x35
 80009fa:	4604      	mov	r4, r0
 80009fc:	2b00      	cmp	r3, #0
 80009fe:	d03b      	beq.n	8000a78 <HAL_DCMI_Init+0x88>
  hdcmi->Instance->CR &= ~(DCMI_CR_PCKPOL | DCMI_CR_HSPOL  | DCMI_CR_VSPOL  | DCMI_CR_EDM_0 |\
                           DCMI_CR_EDM_1  | DCMI_CR_FCRC_0 | DCMI_CR_FCRC_1 | DCMI_CR_JPEG  |\
                           DCMI_CR_ESS | DCMI_CR_BSM_0 | DCMI_CR_BSM_1 | DCMI_CR_OEBS |\
                           DCMI_CR_LSM | DCMI_CR_OELS);

  hdcmi->Instance->CR |=  (uint32_t)(hdcmi->Init.SynchroMode | hdcmi->Init.CaptureRate |\
 8000a00:	6862      	ldr	r2, [r4, #4]
  hdcmi->State = HAL_DCMI_STATE_BUSY; 
 8000a02:	2502      	movs	r5, #2
  hdcmi->Instance->CR |=  (uint32_t)(hdcmi->Init.SynchroMode | hdcmi->Init.CaptureRate |\
 8000a04:	6963      	ldr	r3, [r4, #20]
 8000a06:	68e1      	ldr	r1, [r4, #12]
                                     hdcmi->Init.PCKPolarity | hdcmi->Init.ExtendedDataMode |\
                                     hdcmi->Init.JPEGMode | hdcmi->Init.ByteSelectMode |\
                                     hdcmi->Init.ByteSelectStart | hdcmi->Init.LineSelectMode |\
                                     hdcmi->Init.LineSelectStart);
                                     
  if(hdcmi->Init.SynchroMode == DCMI_SYNCHRO_EMBEDDED)
 8000a08:	2a10      	cmp	r2, #16
  hdcmi->Instance->CR |=  (uint32_t)(hdcmi->Init.SynchroMode | hdcmi->Init.CaptureRate |\
 8000a0a:	ea43 0302 	orr.w	r3, r3, r2
                                     hdcmi->Init.VSPolarity  | hdcmi->Init.HSPolarity  |\
 8000a0e:	6920      	ldr	r0, [r4, #16]
                                     hdcmi->Init.PCKPolarity | hdcmi->Init.ExtendedDataMode |\
 8000a10:	69a6      	ldr	r6, [r4, #24]
  hdcmi->Instance->CR |=  (uint32_t)(hdcmi->Init.SynchroMode | hdcmi->Init.CaptureRate |\
 8000a12:	ea43 0301 	orr.w	r3, r3, r1
                                     hdcmi->Init.VSPolarity  | hdcmi->Init.HSPolarity  |\
 8000a16:	68a1      	ldr	r1, [r4, #8]
  hdcmi->State = HAL_DCMI_STATE_BUSY; 
 8000a18:	f884 5035 	strb.w	r5, [r4, #53]	; 0x35
                                     hdcmi->Init.VSPolarity  | hdcmi->Init.HSPolarity  |\
 8000a1c:	ea43 0300 	orr.w	r3, r3, r0
 8000a20:	ea43 0301 	orr.w	r3, r3, r1
                                     hdcmi->Init.JPEGMode | hdcmi->Init.ByteSelectMode |\
 8000a24:	6aa1      	ldr	r1, [r4, #40]	; 0x28
 8000a26:	e9d4 5008 	ldrd	r5, r0, [r4, #32]
                                     hdcmi->Init.PCKPolarity | hdcmi->Init.ExtendedDataMode |\
 8000a2a:	ea43 0306 	orr.w	r3, r3, r6
  hdcmi->Instance->CR &= ~(DCMI_CR_PCKPOL | DCMI_CR_HSPOL  | DCMI_CR_VSPOL  | DCMI_CR_EDM_0 |\
 8000a2e:	6826      	ldr	r6, [r4, #0]
                                     hdcmi->Init.PCKPolarity | hdcmi->Init.ExtendedDataMode |\
 8000a30:	ea43 0305 	orr.w	r3, r3, r5
  hdcmi->Instance->CR &= ~(DCMI_CR_PCKPOL | DCMI_CR_HSPOL  | DCMI_CR_VSPOL  | DCMI_CR_EDM_0 |\
 8000a34:	6837      	ldr	r7, [r6, #0]
                                     hdcmi->Init.ByteSelectStart | hdcmi->Init.LineSelectMode |\
 8000a36:	6ae5      	ldr	r5, [r4, #44]	; 0x2c
                                     hdcmi->Init.JPEGMode | hdcmi->Init.ByteSelectMode |\
 8000a38:	ea43 0300 	orr.w	r3, r3, r0
                                     hdcmi->Init.ByteSelectStart | hdcmi->Init.LineSelectMode |\
 8000a3c:	6b20      	ldr	r0, [r4, #48]	; 0x30
                                     hdcmi->Init.JPEGMode | hdcmi->Init.ByteSelectMode |\
 8000a3e:	ea43 0301 	orr.w	r3, r3, r1
  hdcmi->Instance->CR &= ~(DCMI_CR_PCKPOL | DCMI_CR_HSPOL  | DCMI_CR_VSPOL  | DCMI_CR_EDM_0 |\
 8000a42:	4910      	ldr	r1, [pc, #64]	; (8000a84 <HAL_DCMI_Init+0x94>)
                                     hdcmi->Init.ByteSelectStart | hdcmi->Init.LineSelectMode |\
 8000a44:	ea43 0305 	orr.w	r3, r3, r5
  hdcmi->Instance->CR &= ~(DCMI_CR_PCKPOL | DCMI_CR_HSPOL  | DCMI_CR_VSPOL  | DCMI_CR_EDM_0 |\
 8000a48:	ea01 0107 	and.w	r1, r1, r7
                                     hdcmi->Init.ByteSelectStart | hdcmi->Init.LineSelectMode |\
 8000a4c:	ea43 0300 	orr.w	r3, r3, r0
  hdcmi->Instance->CR &= ~(DCMI_CR_PCKPOL | DCMI_CR_HSPOL  | DCMI_CR_VSPOL  | DCMI_CR_EDM_0 |\
 8000a50:	6031      	str	r1, [r6, #0]
  hdcmi->Instance->CR |=  (uint32_t)(hdcmi->Init.SynchroMode | hdcmi->Init.CaptureRate |\
 8000a52:	6831      	ldr	r1, [r6, #0]
 8000a54:	ea43 0301 	orr.w	r3, r3, r1
 8000a58:	6033      	str	r3, [r6, #0]
  if(hdcmi->Init.SynchroMode == DCMI_SYNCHRO_EMBEDDED)
 8000a5a:	d00a      	beq.n	8000a72 <HAL_DCMI_Init+0x82>
                             ((uint32_t)hdcmi->Init.SyncroCode.FrameEndCode << DCMI_ESCR_FEC_Pos));

  }

  /* Enable the Line, Vsync, Error and Overrun interrupts */
  __HAL_DCMI_ENABLE_IT(hdcmi, DCMI_IT_LINE | DCMI_IT_VSYNC | DCMI_IT_ERR | DCMI_IT_OVR);
 8000a5c:	68f3      	ldr	r3, [r6, #12]

  /* Update error code */
  hdcmi->ErrorCode = HAL_DCMI_ERROR_NONE;
 8000a5e:	2200      	movs	r2, #0
  
  /* Initialize the DCMI state*/
  hdcmi->State  = HAL_DCMI_STATE_READY;
 8000a60:	2101      	movs	r1, #1
  __HAL_DCMI_ENABLE_IT(hdcmi, DCMI_IT_LINE | DCMI_IT_VSYNC | DCMI_IT_ERR | DCMI_IT_OVR);
 8000a62:	f043 031e 	orr.w	r3, r3, #30

  return HAL_OK;
 8000a66:	4610      	mov	r0, r2
  __HAL_DCMI_ENABLE_IT(hdcmi, DCMI_IT_LINE | DCMI_IT_VSYNC | DCMI_IT_ERR | DCMI_IT_OVR);
 8000a68:	60f3      	str	r3, [r6, #12]
  hdcmi->ErrorCode = HAL_DCMI_ERROR_NONE;
 8000a6a:	64e2      	str	r2, [r4, #76]	; 0x4c
  hdcmi->State  = HAL_DCMI_STATE_READY;
 8000a6c:	f884 1035 	strb.w	r1, [r4, #53]	; 0x35
}
 8000a70:	bdf8      	pop	{r3, r4, r5, r6, r7, pc}
                             ((uint32_t)hdcmi->Init.SyncroCode.LineEndCode << DCMI_ESCR_LEC_Pos) |\
 8000a72:	69e3      	ldr	r3, [r4, #28]
    hdcmi->Instance->ESCR = (((uint32_t)hdcmi->Init.SyncroCode.FrameStartCode)    |\
 8000a74:	61b3      	str	r3, [r6, #24]
 8000a76:	e7f1      	b.n	8000a5c <HAL_DCMI_Init+0x6c>
    HAL_DCMI_MspInit(hdcmi);
 8000a78:	f002 ff92 	bl	80039a0 <HAL_DCMI_MspInit>
 8000a7c:	e7c0      	b.n	8000a00 <HAL_DCMI_Init+0x10>
     return HAL_ERROR;
 8000a7e:	2001      	movs	r0, #1
}
 8000a80:	4770      	bx	lr
 8000a82:	bf00      	nop
 8000a84:	ffe0f007 	.word	0xffe0f007

08000a88 <HAL_DMA_Start_IT>:
  * @param  DstAddress The destination memory Buffer address
  * @param  DataLength The length of data to be transferred from source to destination
  * @retval HAL status
  */
HAL_StatusTypeDef HAL_DMA_Start_IT(DMA_HandleTypeDef *hdma, uint32_t SrcAddress, uint32_t DstAddress, uint32_t DataLength)
{
 8000a88:	b4f0      	push	{r4, r5, r6, r7}
  
  /* Check the parameters */
  assert_param(IS_DMA_BUFFER_SIZE(DataLength));
 
  /* Process locked */
  __HAL_LOCK(hdma);
 8000a8a:	f890 4034 	ldrb.w	r4, [r0, #52]	; 0x34
 8000a8e:	2c01      	cmp	r4, #1
 8000a90:	d038      	beq.n	8000b04 <HAL_DMA_Start_IT+0x7c>
 8000a92:	2501      	movs	r5, #1
  
  if(HAL_DMA_STATE_READY == hdma->State)
 8000a94:	f890 4035 	ldrb.w	r4, [r0, #53]	; 0x35
  DMA_Base_Registers *regs = (DMA_Base_Registers *)hdma->StreamBaseAddress;
 8000a98:	6d86      	ldr	r6, [r0, #88]	; 0x58
  if(HAL_DMA_STATE_READY == hdma->State)
 8000a9a:	42ac      	cmp	r4, r5
  __HAL_LOCK(hdma);
 8000a9c:	f880 5034 	strb.w	r5, [r0, #52]	; 0x34
  if(HAL_DMA_STATE_READY == hdma->State)
 8000aa0:	d129      	bne.n	8000af6 <HAL_DMA_Start_IT+0x6e>
  * @retval HAL status
  */
static void DMA_SetConfig(DMA_HandleTypeDef *hdma, uint32_t SrcAddress, uint32_t DstAddress, uint32_t DataLength)
{
  /* Clear DBM bit */
  hdma->Instance->CR &= (uint32_t)(~DMA_SxCR_DBM);
 8000aa2:	6804      	ldr	r4, [r0, #0]
    hdma->State = HAL_DMA_STATE_BUSY;
 8000aa4:	2702      	movs	r7, #2
    hdma->ErrorCode = HAL_DMA_ERROR_NONE;
 8000aa6:	2500      	movs	r5, #0
    hdma->State = HAL_DMA_STATE_BUSY;
 8000aa8:	f880 7035 	strb.w	r7, [r0, #53]	; 0x35
    hdma->ErrorCode = HAL_DMA_ERROR_NONE;
 8000aac:	6545      	str	r5, [r0, #84]	; 0x54

  /* Configure DMA Stream data length */
  hdma->Instance->NDTR = DataLength;

  /* Memory to Peripheral */
  if((hdma->Init.Direction) == DMA_MEMORY_TO_PERIPH)
 8000aae:	6887      	ldr	r7, [r0, #8]
  hdma->Instance->CR &= (uint32_t)(~DMA_SxCR_DBM);
 8000ab0:	6825      	ldr	r5, [r4, #0]
  if((hdma->Init.Direction) == DMA_MEMORY_TO_PERIPH)
 8000ab2:	2f40      	cmp	r7, #64	; 0x40
  hdma->Instance->CR &= (uint32_t)(~DMA_SxCR_DBM);
 8000ab4:	f425 2580 	bic.w	r5, r5, #262144	; 0x40000
 8000ab8:	6025      	str	r5, [r4, #0]
  hdma->Instance->NDTR = DataLength;
 8000aba:	6063      	str	r3, [r4, #4]
  if((hdma->Init.Direction) == DMA_MEMORY_TO_PERIPH)
 8000abc:	d026      	beq.n	8000b0c <HAL_DMA_Start_IT+0x84>
  }
  /* Peripheral to Memory */
  else
  {
    /* Configure DMA Stream source address */
    hdma->Instance->PAR = SrcAddress;
 8000abe:	60a1      	str	r1, [r4, #8]

    /* Configure DMA Stream destination address */
    hdma->Instance->M0AR = DstAddress;
 8000ac0:	60e2      	str	r2, [r4, #12]
    regs->IFCR = 0x3FU << hdma->StreamIndex;
 8000ac2:	6dc1      	ldr	r1, [r0, #92]	; 0x5c
 8000ac4:	233f      	movs	r3, #63	; 0x3f
    if(hdma->XferHalfCpltCallback != NULL)
 8000ac6:	6c02      	ldr	r2, [r0, #64]	; 0x40
    regs->IFCR = 0x3FU << hdma->StreamIndex;
 8000ac8:	408b      	lsls	r3, r1
 8000aca:	60b3      	str	r3, [r6, #8]
    hdma->Instance->CR  |= DMA_IT_TC | DMA_IT_TE | DMA_IT_DME;
 8000acc:	6823      	ldr	r3, [r4, #0]
 8000ace:	f043 0316 	orr.w	r3, r3, #22
 8000ad2:	6023      	str	r3, [r4, #0]
    hdma->Instance->FCR |= DMA_IT_FE;
 8000ad4:	6963      	ldr	r3, [r4, #20]
 8000ad6:	f043 0380 	orr.w	r3, r3, #128	; 0x80
 8000ada:	6163      	str	r3, [r4, #20]
    if(hdma->XferHalfCpltCallback != NULL)
 8000adc:	b11a      	cbz	r2, 8000ae6 <HAL_DMA_Start_IT+0x5e>
      hdma->Instance->CR  |= DMA_IT_HT;
 8000ade:	6823      	ldr	r3, [r4, #0]
 8000ae0:	f043 0308 	orr.w	r3, r3, #8
 8000ae4:	6023      	str	r3, [r4, #0]
    __HAL_DMA_ENABLE(hdma);
 8000ae6:	6822      	ldr	r2, [r4, #0]
  HAL_StatusTypeDef status = HAL_OK;
 8000ae8:	2300      	movs	r3, #0
    __HAL_DMA_ENABLE(hdma);
 8000aea:	f042 0201 	orr.w	r2, r2, #1
}
 8000aee:	4618      	mov	r0, r3
    __HAL_DMA_ENABLE(hdma);
 8000af0:	6022      	str	r2, [r4, #0]
}
 8000af2:	bcf0      	pop	{r4, r5, r6, r7}
 8000af4:	4770      	bx	lr
    __HAL_UNLOCK(hdma);	  
 8000af6:	2200      	movs	r2, #0
    status = HAL_BUSY;
 8000af8:	2302      	movs	r3, #2
    __HAL_UNLOCK(hdma);	  
 8000afa:	f880 2034 	strb.w	r2, [r0, #52]	; 0x34
}
 8000afe:	4618      	mov	r0, r3
 8000b00:	bcf0      	pop	{r4, r5, r6, r7}
 8000b02:	4770      	bx	lr
  __HAL_LOCK(hdma);
 8000b04:	2302      	movs	r3, #2
}
 8000b06:	bcf0      	pop	{r4, r5, r6, r7}
 8000b08:	4618      	mov	r0, r3
 8000b0a:	4770      	bx	lr
    hdma->Instance->PAR = DstAddress;
 8000b0c:	60a2      	str	r2, [r4, #8]
    hdma->Instance->M0AR = SrcAddress;
 8000b0e:	60e1      	str	r1, [r4, #12]
 8000b10:	e7d7      	b.n	8000ac2 <HAL_DMA_Start_IT+0x3a>
 8000b12:	bf00      	nop

08000b14 <HAL_GPIO_Init>:
  * @param  GPIO_Init pointer to a GPIO_InitTypeDef structure that contains
  *         the configuration information for the specified GPIO peripheral.
  * @retval None
  */
void HAL_GPIO_Init(GPIO_TypeDef  *GPIOx, GPIO_InitTypeDef *GPIO_Init)
{
 8000b14:	e92d 4ff0 	stmdb	sp!, {r4, r5, r6, r7, r8, r9, sl, fp, lr}
        temp &= ~(((uint32_t)0x0F) << (4 * (position & 0x03)));
        temp |= ((uint32_t)(GPIO_GET_INDEX(GPIOx)) << (4 * (position & 0x03)));
        SYSCFG->EXTICR[position >> 2] = temp;

        /* Clear EXTI line configuration */
        temp = EXTI->IMR;
 8000b18:	f8df c22c 	ldr.w	ip, [pc, #556]	; 8000d48 <HAL_GPIO_Init+0x234>
{
 8000b1c:	b083      	sub	sp, #12
 8000b1e:	468e      	mov	lr, r1
  for(position = 0; position < GPIO_NUMBER; position++)
 8000b20:	2500      	movs	r5, #0
        __HAL_RCC_SYSCFG_CLK_ENABLE();
 8000b22:	f8df 9228 	ldr.w	r9, [pc, #552]	; 8000d4c <HAL_GPIO_Init+0x238>
    iocurrent = (uint32_t)(GPIO_Init->Pin) & ioposition;
 8000b26:	f8d1 8000 	ldr.w	r8, [r1]
 8000b2a:	e003      	b.n	8000b34 <HAL_GPIO_Init+0x20>
  for(position = 0; position < GPIO_NUMBER; position++)
 8000b2c:	3501      	adds	r5, #1
 8000b2e:	2d10      	cmp	r5, #16
 8000b30:	f000 80b6 	beq.w	8000ca0 <HAL_GPIO_Init+0x18c>
    ioposition = ((uint32_t)0x01) << position;
 8000b34:	2301      	movs	r3, #1
 8000b36:	40ab      	lsls	r3, r5
    iocurrent = (uint32_t)(GPIO_Init->Pin) & ioposition;
 8000b38:	ea08 0103 	and.w	r1, r8, r3
    if(iocurrent == ioposition)
 8000b3c:	428b      	cmp	r3, r1
 8000b3e:	d1f5      	bne.n	8000b2c <HAL_GPIO_Init+0x18>
      if((GPIO_Init->Mode == GPIO_MODE_AF_PP) || (GPIO_Init->Mode == GPIO_MODE_AF_OD))
 8000b40:	f8de 4004 	ldr.w	r4, [lr, #4]
 8000b44:	f024 0710 	bic.w	r7, r4, #16
 8000b48:	2f02      	cmp	r7, #2
 8000b4a:	f040 80ac 	bne.w	8000ca6 <HAL_GPIO_Init+0x192>
        temp = GPIOx->AFR[position >> 3];
 8000b4e:	08ef      	lsrs	r7, r5, #3
        temp &= ~((uint32_t)0xF << ((uint32_t)(position & (uint32_t)0x07) * 4)) ;
 8000b50:	f005 0a07 	and.w	sl, r5, #7
 8000b54:	f04f 0b0f 	mov.w	fp, #15
        temp |= ((uint32_t)(GPIO_Init->Alternate) << (((uint32_t)position & (uint32_t)0x07) * 4));
 8000b58:	f8de 2010 	ldr.w	r2, [lr, #16]
 8000b5c:	eb00 0787 	add.w	r7, r0, r7, lsl #2
        temp &= ~((uint32_t)0xF << ((uint32_t)(position & (uint32_t)0x07) * 4)) ;
 8000b60:	ea4f 0a8a 	mov.w	sl, sl, lsl #2
        temp = GPIOx->AFR[position >> 3];
 8000b64:	6a3e      	ldr	r6, [r7, #32]
        temp &= ~((uint32_t)0xF << ((uint32_t)(position & (uint32_t)0x07) * 4)) ;
 8000b66:	fa0b fb0a 	lsl.w	fp, fp, sl
        temp |= ((uint32_t)(GPIO_Init->Alternate) << (((uint32_t)position & (uint32_t)0x07) * 4));
 8000b6a:	fa02 f20a 	lsl.w	r2, r2, sl
 8000b6e:	ea4f 0a45 	mov.w	sl, r5, lsl #1
        temp &= ~((uint32_t)0xF << ((uint32_t)(position & (uint32_t)0x07) * 4)) ;
 8000b72:	ea26 060b 	bic.w	r6, r6, fp
      temp &= ~(GPIO_MODER_MODER0 << (position * 2));
 8000b76:	f04f 0b03 	mov.w	fp, #3
        temp |= ((uint32_t)(GPIO_Init->Alternate) << (((uint32_t)position & (uint32_t)0x07) * 4));
 8000b7a:	4332      	orrs	r2, r6
      temp &= ~(GPIO_MODER_MODER0 << (position * 2));
 8000b7c:	fa0b fb0a 	lsl.w	fp, fp, sl
      temp |= ((GPIO_Init->Mode & GPIO_MODE) << (position * 2));
 8000b80:	f004 0603 	and.w	r6, r4, #3
        GPIOx->AFR[position >> 3] = temp;
 8000b84:	623a      	str	r2, [r7, #32]
      temp &= ~(GPIO_MODER_MODER0 << (position * 2));
 8000b86:	ea6f 020b 	mvn.w	r2, fp
      temp = GPIOx->MODER;
 8000b8a:	6807      	ldr	r7, [r0, #0]
      temp |= ((GPIO_Init->Mode & GPIO_MODE) << (position * 2));
 8000b8c:	fa06 f60a 	lsl.w	r6, r6, sl
      temp &= ~(GPIO_MODER_MODER0 << (position * 2));
 8000b90:	4017      	ands	r7, r2
      temp |= ((GPIO_Init->Mode & GPIO_MODE) << (position * 2));
 8000b92:	433e      	orrs	r6, r7
      GPIOx->MODER = temp;
 8000b94:	6006      	str	r6, [r0, #0]
        temp = GPIOx->OSPEEDR; 
 8000b96:	6886      	ldr	r6, [r0, #8]
        temp |= (((GPIO_Init->Mode & GPIO_OUTPUT_TYPE) >> 4) << position);
 8000b98:	f3c4 1700 	ubfx	r7, r4, #4, #1
        temp &= ~(GPIO_OSPEEDER_OSPEEDR0 << (position * 2));
 8000b9c:	ea06 0b02 	and.w	fp, r6, r2
        temp |= (GPIO_Init->Speed << (position * 2));
 8000ba0:	f8de 600c 	ldr.w	r6, [lr, #12]
        temp |= (((GPIO_Init->Mode & GPIO_OUTPUT_TYPE) >> 4) << position);
 8000ba4:	40af      	lsls	r7, r5
        temp |= (GPIO_Init->Speed << (position * 2));
 8000ba6:	fa06 f60a 	lsl.w	r6, r6, sl
 8000baa:	ea46 060b 	orr.w	r6, r6, fp
        GPIOx->OSPEEDR = temp;
 8000bae:	6086      	str	r6, [r0, #8]
        temp = GPIOx->OTYPER;
 8000bb0:	6846      	ldr	r6, [r0, #4]
        temp &= ~(GPIO_OTYPER_OT_0 << position) ;
 8000bb2:	ea26 0303 	bic.w	r3, r6, r3
        temp |= (((GPIO_Init->Mode & GPIO_OUTPUT_TYPE) >> 4) << position);
 8000bb6:	431f      	orrs	r7, r3
        GPIOx->OTYPER = temp;
 8000bb8:	6047      	str	r7, [r0, #4]
      temp = GPIOx->PUPDR;
 8000bba:	68c6      	ldr	r6, [r0, #12]
      if((GPIO_Init->Mode & EXTI_MODE) == EXTI_MODE)
 8000bbc:	00e7      	lsls	r7, r4, #3
      temp |= ((GPIO_Init->Pull) << (position * 2));
 8000bbe:	f8de 3008 	ldr.w	r3, [lr, #8]
      temp &= ~(GPIO_PUPDR_PUPDR0 << (position * 2));
 8000bc2:	ea02 0206 	and.w	r2, r2, r6
      temp |= ((GPIO_Init->Pull) << (position * 2));
 8000bc6:	fa03 f30a 	lsl.w	r3, r3, sl
 8000bca:	ea43 0302 	orr.w	r3, r3, r2
      GPIOx->PUPDR = temp;
 8000bce:	60c3      	str	r3, [r0, #12]
      if((GPIO_Init->Mode & EXTI_MODE) == EXTI_MODE)
 8000bd0:	d5ac      	bpl.n	8000b2c <HAL_GPIO_Init+0x18>
        __HAL_RCC_SYSCFG_CLK_ENABLE();
 8000bd2:	f8d9 6044 	ldr.w	r6, [r9, #68]	; 0x44
 8000bd6:	f025 0703 	bic.w	r7, r5, #3
        temp &= ~(((uint32_t)0x0F) << (4 * (position & 0x03)));
 8000bda:	f005 0303 	and.w	r3, r5, #3
 8000bde:	220f      	movs	r2, #15
        __HAL_RCC_SYSCFG_CLK_ENABLE();
 8000be0:	f446 4680 	orr.w	r6, r6, #16384	; 0x4000
 8000be4:	f107 4780 	add.w	r7, r7, #1073741824	; 0x40000000
        temp &= ~(((uint32_t)0x0F) << (4 * (position & 0x03)));
 8000be8:	009b      	lsls	r3, r3, #2
        __HAL_RCC_SYSCFG_CLK_ENABLE();
 8000bea:	f8c9 6044 	str.w	r6, [r9, #68]	; 0x44
 8000bee:	f507 379c 	add.w	r7, r7, #79872	; 0x13800
 8000bf2:	f8d9 6044 	ldr.w	r6, [r9, #68]	; 0x44
        temp &= ~(((uint32_t)0x0F) << (4 * (position & 0x03)));
 8000bf6:	fa02 fa03 	lsl.w	sl, r2, r3
        __HAL_RCC_SYSCFG_CLK_ENABLE();
 8000bfa:	f406 4680 	and.w	r6, r6, #16384	; 0x4000
 8000bfe:	9601      	str	r6, [sp, #4]
        temp |= ((uint32_t)(GPIO_GET_INDEX(GPIOx)) << (4 * (position & 0x03)));
 8000c00:	4e48      	ldr	r6, [pc, #288]	; (8000d24 <HAL_GPIO_Init+0x210>)
        __HAL_RCC_SYSCFG_CLK_ENABLE();
 8000c02:	9a01      	ldr	r2, [sp, #4]
        temp |= ((uint32_t)(GPIO_GET_INDEX(GPIOx)) << (4 * (position & 0x03)));
 8000c04:	42b0      	cmp	r0, r6
        temp = SYSCFG->EXTICR[position >> 2];
 8000c06:	68ba      	ldr	r2, [r7, #8]
        temp &= ~(((uint32_t)0x0F) << (4 * (position & 0x03)));
 8000c08:	ea22 020a 	bic.w	r2, r2, sl
        temp |= ((uint32_t)(GPIO_GET_INDEX(GPIOx)) << (4 * (position & 0x03)));
 8000c0c:	d020      	beq.n	8000c50 <HAL_GPIO_Init+0x13c>
 8000c0e:	f506 6680 	add.w	r6, r6, #1024	; 0x400
 8000c12:	42b0      	cmp	r0, r6
 8000c14:	d05e      	beq.n	8000cd4 <HAL_GPIO_Init+0x1c0>
 8000c16:	4e44      	ldr	r6, [pc, #272]	; (8000d28 <HAL_GPIO_Init+0x214>)
 8000c18:	42b0      	cmp	r0, r6
 8000c1a:	d060      	beq.n	8000cde <HAL_GPIO_Init+0x1ca>
 8000c1c:	4e43      	ldr	r6, [pc, #268]	; (8000d2c <HAL_GPIO_Init+0x218>)
 8000c1e:	42b0      	cmp	r0, r6
 8000c20:	d062      	beq.n	8000ce8 <HAL_GPIO_Init+0x1d4>
 8000c22:	4e43      	ldr	r6, [pc, #268]	; (8000d30 <HAL_GPIO_Init+0x21c>)
 8000c24:	42b0      	cmp	r0, r6
 8000c26:	d064      	beq.n	8000cf2 <HAL_GPIO_Init+0x1de>
 8000c28:	4e42      	ldr	r6, [pc, #264]	; (8000d34 <HAL_GPIO_Init+0x220>)
 8000c2a:	42b0      	cmp	r0, r6
 8000c2c:	d06b      	beq.n	8000d06 <HAL_GPIO_Init+0x1f2>
 8000c2e:	4e42      	ldr	r6, [pc, #264]	; (8000d38 <HAL_GPIO_Init+0x224>)
 8000c30:	42b0      	cmp	r0, r6
 8000c32:	d06d      	beq.n	8000d10 <HAL_GPIO_Init+0x1fc>
 8000c34:	4e41      	ldr	r6, [pc, #260]	; (8000d3c <HAL_GPIO_Init+0x228>)
 8000c36:	42b0      	cmp	r0, r6
 8000c38:	d060      	beq.n	8000cfc <HAL_GPIO_Init+0x1e8>
 8000c3a:	4e41      	ldr	r6, [pc, #260]	; (8000d40 <HAL_GPIO_Init+0x22c>)
 8000c3c:	42b0      	cmp	r0, r6
 8000c3e:	d06c      	beq.n	8000d1a <HAL_GPIO_Init+0x206>
 8000c40:	4e40      	ldr	r6, [pc, #256]	; (8000d44 <HAL_GPIO_Init+0x230>)
 8000c42:	42b0      	cmp	r0, r6
 8000c44:	bf0c      	ite	eq
 8000c46:	2609      	moveq	r6, #9
 8000c48:	260a      	movne	r6, #10
 8000c4a:	fa06 f303 	lsl.w	r3, r6, r3
 8000c4e:	431a      	orrs	r2, r3
        SYSCFG->EXTICR[position >> 2] = temp;
 8000c50:	60ba      	str	r2, [r7, #8]
        temp &= ~((uint32_t)iocurrent);
        if((GPIO_Init->Mode & GPIO_MODE_IT) == GPIO_MODE_IT)
 8000c52:	03e6      	lsls	r6, r4, #15
        temp = EXTI->IMR;
 8000c54:	f8dc 3000 	ldr.w	r3, [ip]
        temp &= ~((uint32_t)iocurrent);
 8000c58:	ea6f 0201 	mvn.w	r2, r1
  for(position = 0; position < GPIO_NUMBER; position++)
 8000c5c:	f105 0501 	add.w	r5, r5, #1
        temp &= ~((uint32_t)iocurrent);
 8000c60:	bf54      	ite	pl
 8000c62:	4013      	andpl	r3, r2
        {
          temp |= iocurrent;
 8000c64:	430b      	orrmi	r3, r1
        }
        EXTI->IMR = temp;

        temp = EXTI->EMR;
        temp &= ~((uint32_t)iocurrent);
        if((GPIO_Init->Mode & GPIO_MODE_EVT) == GPIO_MODE_EVT)
 8000c66:	03a7      	lsls	r7, r4, #14
        EXTI->IMR = temp;
 8000c68:	f8cc 3000 	str.w	r3, [ip]
        temp = EXTI->EMR;
 8000c6c:	f8dc 3004 	ldr.w	r3, [ip, #4]
        temp &= ~((uint32_t)iocurrent);
 8000c70:	bf54      	ite	pl
 8000c72:	4013      	andpl	r3, r2
        {
          temp |= iocurrent;
 8000c74:	430b      	orrmi	r3, r1
        EXTI->EMR = temp;

        /* Clear Rising Falling edge configuration */
        temp = EXTI->RTSR;
        temp &= ~((uint32_t)iocurrent);
        if((GPIO_Init->Mode & RISING_EDGE) == RISING_EDGE)
 8000c76:	02e6      	lsls	r6, r4, #11
        EXTI->EMR = temp;
 8000c78:	f8cc 3004 	str.w	r3, [ip, #4]
        temp = EXTI->RTSR;
 8000c7c:	f8dc 3008 	ldr.w	r3, [ip, #8]
        temp &= ~((uint32_t)iocurrent);
 8000c80:	bf54      	ite	pl
 8000c82:	4013      	andpl	r3, r2
        {
          temp |= iocurrent;
 8000c84:	430b      	orrmi	r3, r1
        }
        EXTI->RTSR = temp;

        temp = EXTI->FTSR;
        temp &= ~((uint32_t)iocurrent);
        if((GPIO_Init->Mode & FALLING_EDGE) == FALLING_EDGE)
 8000c86:	02a4      	lsls	r4, r4, #10
        EXTI->RTSR = temp;
 8000c88:	f8cc 3008 	str.w	r3, [ip, #8]
        temp = EXTI->FTSR;
 8000c8c:	f8dc 300c 	ldr.w	r3, [ip, #12]
        temp &= ~((uint32_t)iocurrent);
 8000c90:	bf54      	ite	pl
 8000c92:	4013      	andpl	r3, r2
        {
          temp |= iocurrent;
 8000c94:	430b      	orrmi	r3, r1
  for(position = 0; position < GPIO_NUMBER; position++)
 8000c96:	2d10      	cmp	r5, #16
        }
        EXTI->FTSR = temp;
 8000c98:	f8cc 300c 	str.w	r3, [ip, #12]
  for(position = 0; position < GPIO_NUMBER; position++)
 8000c9c:	f47f af4a 	bne.w	8000b34 <HAL_GPIO_Init+0x20>
      }
    }
  }
}
 8000ca0:	b003      	add	sp, #12
 8000ca2:	e8bd 8ff0 	ldmia.w	sp!, {r4, r5, r6, r7, r8, r9, sl, fp, pc}
 8000ca6:	ea4f 0a45 	mov.w	sl, r5, lsl #1
      temp &= ~(GPIO_MODER_MODER0 << (position * 2));
 8000caa:	2203      	movs	r2, #3
      temp = GPIOx->MODER;
 8000cac:	f8d0 b000 	ldr.w	fp, [r0]
      if((GPIO_Init->Mode == GPIO_MODE_OUTPUT_PP) || (GPIO_Init->Mode == GPIO_MODE_AF_PP) ||
 8000cb0:	3f01      	subs	r7, #1
      temp |= ((GPIO_Init->Mode & GPIO_MODE) << (position * 2));
 8000cb2:	ea04 0602 	and.w	r6, r4, r2
      temp &= ~(GPIO_MODER_MODER0 << (position * 2));
 8000cb6:	fa02 f20a 	lsl.w	r2, r2, sl
         (GPIO_Init->Mode == GPIO_MODE_OUTPUT_OD) || (GPIO_Init->Mode == GPIO_MODE_AF_OD))
 8000cba:	2f01      	cmp	r7, #1
      temp &= ~(GPIO_MODER_MODER0 << (position * 2));
 8000cbc:	ea6f 0202 	mvn.w	r2, r2
      temp |= ((GPIO_Init->Mode & GPIO_MODE) << (position * 2));
 8000cc0:	fa06 f60a 	lsl.w	r6, r6, sl
      temp &= ~(GPIO_MODER_MODER0 << (position * 2));
 8000cc4:	ea02 0b0b 	and.w	fp, r2, fp
      temp |= ((GPIO_Init->Mode & GPIO_MODE) << (position * 2));
 8000cc8:	ea46 060b 	orr.w	r6, r6, fp
      GPIOx->MODER = temp;
 8000ccc:	6006      	str	r6, [r0, #0]
         (GPIO_Init->Mode == GPIO_MODE_OUTPUT_OD) || (GPIO_Init->Mode == GPIO_MODE_AF_OD))
 8000cce:	f63f af74 	bhi.w	8000bba <HAL_GPIO_Init+0xa6>
 8000cd2:	e760      	b.n	8000b96 <HAL_GPIO_Init+0x82>
 8000cd4:	2601      	movs	r6, #1
 8000cd6:	fa06 f303 	lsl.w	r3, r6, r3
 8000cda:	431a      	orrs	r2, r3
 8000cdc:	e7b8      	b.n	8000c50 <HAL_GPIO_Init+0x13c>
 8000cde:	2602      	movs	r6, #2
 8000ce0:	fa06 f303 	lsl.w	r3, r6, r3
 8000ce4:	431a      	orrs	r2, r3
 8000ce6:	e7b3      	b.n	8000c50 <HAL_GPIO_Init+0x13c>
 8000ce8:	2603      	movs	r6, #3
 8000cea:	fa06 f303 	lsl.w	r3, r6, r3
 8000cee:	431a      	orrs	r2, r3
 8000cf0:	e7ae      	b.n	8000c50 <HAL_GPIO_Init+0x13c>
 8000cf2:	2604      	movs	r6, #4
 8000cf4:	fa06 f303 	lsl.w	r3, r6, r3
 8000cf8:	431a      	orrs	r2, r3
 8000cfa:	e7a9      	b.n	8000c50 <HAL_GPIO_Init+0x13c>
 8000cfc:	2607      	movs	r6, #7
 8000cfe:	fa06 f303 	lsl.w	r3, r6, r3
 8000d02:	431a      	orrs	r2, r3
 8000d04:	e7a4      	b.n	8000c50 <HAL_GPIO_Init+0x13c>
 8000d06:	2605      	movs	r6, #5
 8000d08:	fa06 f303 	lsl.w	r3, r6, r3
 8000d0c:	431a      	orrs	r2, r3
 8000d0e:	e79f      	b.n	8000c50 <HAL_GPIO_Init+0x13c>
 8000d10:	2606      	movs	r6, #6
 8000d12:	fa06 f303 	lsl.w	r3, r6, r3
 8000d16:	431a      	orrs	r2, r3
 8000d18:	e79a      	b.n	8000c50 <HAL_GPIO_Init+0x13c>
 8000d1a:	2608      	movs	r6, #8
 8000d1c:	fa06 f303 	lsl.w	r3, r6, r3
 8000d20:	431a      	orrs	r2, r3
 8000d22:	e795      	b.n	8000c50 <HAL_GPIO_Init+0x13c>
 8000d24:	40020000 	.word	0x40020000
 8000d28:	40020800 	.word	0x40020800
 8000d2c:	40020c00 	.word	0x40020c00
 8000d30:	40021000 	.word	0x40021000
 8000d34:	40021400 	.word	0x40021400
 8000d38:	40021800 	.word	0x40021800
 8000d3c:	40021c00 	.word	0x40021c00
 8000d40:	40022000 	.word	0x40022000
 8000d44:	40022400 	.word	0x40022400
 8000d48:	40013c00 	.word	0x40013c00
 8000d4c:	40023800 	.word	0x40023800

08000d50 <HAL_GPIO_ReadPin>:
  GPIO_PinState bitstatus;

  /* Check the parameters */
  assert_param(IS_GPIO_PIN(GPIO_Pin));

  if((GPIOx->IDR & GPIO_Pin) != (uint32_t)GPIO_PIN_RESET)
 8000d50:	6903      	ldr	r3, [r0, #16]
 8000d52:	4219      	tst	r1, r3
  else
  {
    bitstatus = GPIO_PIN_RESET;
  }
  return bitstatus;
}
 8000d54:	bf14      	ite	ne
 8000d56:	2001      	movne	r0, #1
 8000d58:	2000      	moveq	r0, #0
 8000d5a:	4770      	bx	lr

08000d5c <HAL_GPIO_WritePin>:
{
  /* Check the parameters */
  assert_param(IS_GPIO_PIN(GPIO_Pin));
  assert_param(IS_GPIO_PIN_ACTION(PinState));

  if(PinState != GPIO_PIN_RESET)
 8000d5c:	b902      	cbnz	r2, 8000d60 <HAL_GPIO_WritePin+0x4>
  {
    GPIOx->BSRR = GPIO_Pin;
  }
  else
  {
    GPIOx->BSRR = (uint32_t)GPIO_Pin << 16;
 8000d5e:	0409      	lsls	r1, r1, #16
 8000d60:	6181      	str	r1, [r0, #24]
  }
}
 8000d62:	4770      	bx	lr

08000d64 <HAL_GPIO_EXTI_IRQHandler>:
  * @retval None
  */
void HAL_GPIO_EXTI_IRQHandler(uint16_t GPIO_Pin)
{
  /* EXTI line interrupt detected */
  if(__HAL_GPIO_EXTI_GET_IT(GPIO_Pin) != RESET)
 8000d64:	4a04      	ldr	r2, [pc, #16]	; (8000d78 <HAL_GPIO_EXTI_IRQHandler+0x14>)
 8000d66:	6951      	ldr	r1, [r2, #20]
 8000d68:	4201      	tst	r1, r0
 8000d6a:	d100      	bne.n	8000d6e <HAL_GPIO_EXTI_IRQHandler+0xa>
 8000d6c:	4770      	bx	lr
{
 8000d6e:	b508      	push	{r3, lr}
  {
    __HAL_GPIO_EXTI_CLEAR_IT(GPIO_Pin);
 8000d70:	6150      	str	r0, [r2, #20]
    HAL_GPIO_EXTI_Callback(GPIO_Pin);
 8000d72:	f002 f835 	bl	8002de0 <HAL_GPIO_EXTI_Callback>
  }
}
 8000d76:	bd08      	pop	{r3, pc}
 8000d78:	40013c00 	.word	0x40013c00

08000d7c <HAL_I2C_Init>:
  * @retval HAL status
  */
HAL_StatusTypeDef HAL_I2C_Init(I2C_HandleTypeDef *hi2c)
{
  /* Check the I2C handle allocation */
  if (hi2c == NULL)
 8000d7c:	2800      	cmp	r0, #0
 8000d7e:	d04d      	beq.n	8000e1c <HAL_I2C_Init+0xa0>
{
 8000d80:	b5f8      	push	{r3, r4, r5, r6, r7, lr}
  assert_param(IS_I2C_OWN_ADDRESS2(hi2c->Init.OwnAddress2));
  assert_param(IS_I2C_OWN_ADDRESS2_MASK(hi2c->Init.OwnAddress2Masks));
  assert_param(IS_I2C_GENERAL_CALL(hi2c->Init.GeneralCallMode));
  assert_param(IS_I2C_NO_STRETCH(hi2c->Init.NoStretchMode));

  if (hi2c->State == HAL_I2C_STATE_RESET)
 8000d82:	f890 3041 	ldrb.w	r3, [r0, #65]	; 0x41
 8000d86:	4604      	mov	r4, r0
 8000d88:	f003 02ff 	and.w	r2, r3, #255	; 0xff
 8000d8c:	2b00      	cmp	r3, #0
 8000d8e:	d040      	beq.n	8000e12 <HAL_I2C_Init+0x96>
    /* Init the low level hardware : GPIO, CLOCK, CORTEX...etc */
    HAL_I2C_MspInit(hi2c);
#endif /* USE_HAL_I2C_REGISTER_CALLBACKS */
  }

  hi2c->State = HAL_I2C_STATE_BUSY;
 8000d90:	2124      	movs	r1, #36	; 0x24
  /*---------------------------- I2Cx OAR1 Configuration ---------------------*/
  /* Disable Own Address1 before set the Own Address1 configuration */
  hi2c->Instance->OAR1 &= ~I2C_OAR1_OA1EN;

  /* Configure I2Cx: Own Address1 and ack own address1 mode */
  if (hi2c->Init.AddressingMode == I2C_ADDRESSINGMODE_7BIT)
 8000d92:	68e5      	ldr	r5, [r4, #12]
  hi2c->Instance->TIMINGR = hi2c->Init.Timing & TIMING_CLEAR_MASK;
 8000d94:	e9d4 3200 	ldrd	r3, r2, [r4]
  hi2c->State = HAL_I2C_STATE_BUSY;
 8000d98:	f884 1041 	strb.w	r1, [r4, #65]	; 0x41
  if (hi2c->Init.AddressingMode == I2C_ADDRESSINGMODE_7BIT)
 8000d9c:	2d01      	cmp	r5, #1
  __HAL_I2C_DISABLE(hi2c);
 8000d9e:	6818      	ldr	r0, [r3, #0]
  hi2c->Instance->TIMINGR = hi2c->Init.Timing & TIMING_CLEAR_MASK;
 8000da0:	f022 6170 	bic.w	r1, r2, #251658240	; 0xf000000
 8000da4:	68a2      	ldr	r2, [r4, #8]
  __HAL_I2C_DISABLE(hi2c);
 8000da6:	f020 0001 	bic.w	r0, r0, #1
 8000daa:	6018      	str	r0, [r3, #0]
  hi2c->Instance->TIMINGR = hi2c->Init.Timing & TIMING_CLEAR_MASK;
 8000dac:	6119      	str	r1, [r3, #16]
  hi2c->Instance->OAR1 &= ~I2C_OAR1_OA1EN;
 8000dae:	6899      	ldr	r1, [r3, #8]
 8000db0:	f421 4100 	bic.w	r1, r1, #32768	; 0x8000
 8000db4:	6099      	str	r1, [r3, #8]
  if (hi2c->Init.AddressingMode == I2C_ADDRESSINGMODE_7BIT)
 8000db6:	d028      	beq.n	8000e0a <HAL_I2C_Init+0x8e>
  {
    hi2c->Instance->OAR1 = (I2C_OAR1_OA1EN | hi2c->Init.OwnAddress1);
  }
  else /* I2C_ADDRESSINGMODE_10BIT */
  {
    hi2c->Instance->OAR1 = (I2C_OAR1_OA1EN | I2C_OAR1_OA1MODE | hi2c->Init.OwnAddress1);
 8000db8:	f442 4204 	orr.w	r2, r2, #33792	; 0x8400
  }

  /*---------------------------- I2Cx CR2 Configuration ----------------------*/
  /* Configure I2Cx: Addressing Master mode */
  if (hi2c->Init.AddressingMode == I2C_ADDRESSINGMODE_10BIT)
 8000dbc:	2d02      	cmp	r5, #2
    hi2c->Instance->OAR1 = (I2C_OAR1_OA1EN | I2C_OAR1_OA1MODE | hi2c->Init.OwnAddress1);
 8000dbe:	609a      	str	r2, [r3, #8]
  if (hi2c->Init.AddressingMode == I2C_ADDRESSINGMODE_10BIT)
 8000dc0:	d102      	bne.n	8000dc8 <HAL_I2C_Init+0x4c>
  {
    hi2c->Instance->CR2 = (I2C_CR2_ADD10);
 8000dc2:	f44f 6200 	mov.w	r2, #2048	; 0x800
 8000dc6:	605a      	str	r2, [r3, #4]
  }
  /* Enable the AUTOEND by default, and enable NACK (should be disable only during Slave process */
  hi2c->Instance->CR2 |= (I2C_CR2_AUTOEND | I2C_CR2_NACK);
 8000dc8:	685a      	ldr	r2, [r3, #4]
  hi2c->Instance->CR1 = (hi2c->Init.GeneralCallMode | hi2c->Init.NoStretchMode);

  /* Enable the selected I2C peripheral */
  __HAL_I2C_ENABLE(hi2c);

  hi2c->ErrorCode = HAL_I2C_ERROR_NONE;
 8000dca:	2100      	movs	r1, #0
  hi2c->Instance->CR2 |= (I2C_CR2_AUTOEND | I2C_CR2_NACK);
 8000dcc:	4814      	ldr	r0, [pc, #80]	; (8000e20 <HAL_I2C_Init+0xa4>)
  hi2c->State = HAL_I2C_STATE_READY;
 8000dce:	2720      	movs	r7, #32
  hi2c->Instance->OAR2 = (hi2c->Init.DualAddressMode | hi2c->Init.OwnAddress2 | (hi2c->Init.OwnAddress2Masks << 8));
 8000dd0:	69a6      	ldr	r6, [r4, #24]
  hi2c->Instance->CR2 |= (I2C_CR2_AUTOEND | I2C_CR2_NACK);
 8000dd2:	4310      	orrs	r0, r2
  hi2c->Instance->OAR2 = (hi2c->Init.DualAddressMode | hi2c->Init.OwnAddress2 | (hi2c->Init.OwnAddress2Masks << 8));
 8000dd4:	e9d4 2504 	ldrd	r2, r5, [r4, #16]
  hi2c->Instance->CR2 |= (I2C_CR2_AUTOEND | I2C_CR2_NACK);
 8000dd8:	6058      	str	r0, [r3, #4]
  hi2c->Instance->OAR2 = (hi2c->Init.DualAddressMode | hi2c->Init.OwnAddress2 | (hi2c->Init.OwnAddress2Masks << 8));
 8000dda:	432a      	orrs	r2, r5
  hi2c->Instance->OAR2 &= ~I2C_DUALADDRESS_ENABLE;
 8000ddc:	68d8      	ldr	r0, [r3, #12]
  hi2c->Instance->CR1 = (hi2c->Init.GeneralCallMode | hi2c->Init.NoStretchMode);
 8000dde:	69e5      	ldr	r5, [r4, #28]
  hi2c->Instance->OAR2 = (hi2c->Init.DualAddressMode | hi2c->Init.OwnAddress2 | (hi2c->Init.OwnAddress2Masks << 8));
 8000de0:	ea42 2206 	orr.w	r2, r2, r6, lsl #8
  hi2c->Instance->CR1 = (hi2c->Init.GeneralCallMode | hi2c->Init.NoStretchMode);
 8000de4:	6a26      	ldr	r6, [r4, #32]
  hi2c->Instance->OAR2 &= ~I2C_DUALADDRESS_ENABLE;
 8000de6:	f420 4000 	bic.w	r0, r0, #32768	; 0x8000
  hi2c->Instance->CR1 = (hi2c->Init.GeneralCallMode | hi2c->Init.NoStretchMode);
 8000dea:	4335      	orrs	r5, r6
  hi2c->Instance->OAR2 &= ~I2C_DUALADDRESS_ENABLE;
 8000dec:	60d8      	str	r0, [r3, #12]
  hi2c->PreviousState = I2C_STATE_NONE;
  hi2c->Mode = HAL_I2C_MODE_NONE;

  return HAL_OK;
 8000dee:	4608      	mov	r0, r1
  hi2c->Instance->OAR2 = (hi2c->Init.DualAddressMode | hi2c->Init.OwnAddress2 | (hi2c->Init.OwnAddress2Masks << 8));
 8000df0:	60da      	str	r2, [r3, #12]
  hi2c->Instance->CR1 = (hi2c->Init.GeneralCallMode | hi2c->Init.NoStretchMode);
 8000df2:	601d      	str	r5, [r3, #0]
  __HAL_I2C_ENABLE(hi2c);
 8000df4:	681a      	ldr	r2, [r3, #0]
 8000df6:	f042 0201 	orr.w	r2, r2, #1
 8000dfa:	601a      	str	r2, [r3, #0]
  hi2c->ErrorCode = HAL_I2C_ERROR_NONE;
 8000dfc:	6461      	str	r1, [r4, #68]	; 0x44
  hi2c->State = HAL_I2C_STATE_READY;
 8000dfe:	f884 7041 	strb.w	r7, [r4, #65]	; 0x41
  hi2c->PreviousState = I2C_STATE_NONE;
 8000e02:	6321      	str	r1, [r4, #48]	; 0x30
  hi2c->Mode = HAL_I2C_MODE_NONE;
 8000e04:	f884 1042 	strb.w	r1, [r4, #66]	; 0x42
}
 8000e08:	bdf8      	pop	{r3, r4, r5, r6, r7, pc}
    hi2c->Instance->OAR1 = (I2C_OAR1_OA1EN | hi2c->Init.OwnAddress1);
 8000e0a:	f442 4200 	orr.w	r2, r2, #32768	; 0x8000
 8000e0e:	609a      	str	r2, [r3, #8]
 8000e10:	e7da      	b.n	8000dc8 <HAL_I2C_Init+0x4c>
    hi2c->Lock = HAL_UNLOCKED;
 8000e12:	f880 2040 	strb.w	r2, [r0, #64]	; 0x40
    HAL_I2C_MspInit(hi2c);
 8000e16:	f002 fe4d 	bl	8003ab4 <HAL_I2C_MspInit>
 8000e1a:	e7b9      	b.n	8000d90 <HAL_I2C_Init+0x14>
    return HAL_ERROR;
 8000e1c:	2001      	movs	r0, #1
}
 8000e1e:	4770      	bx	lr
 8000e20:	02008000 	.word	0x02008000

08000e24 <HAL_I2CEx_ConfigAnalogFilter>:
{
  /* Check the parameters */
  assert_param(IS_I2C_ALL_INSTANCE(hi2c->Instance));
  assert_param(IS_I2C_ANALOG_FILTER(AnalogFilter));

  if (hi2c->State == HAL_I2C_STATE_READY)
 8000e24:	f890 3041 	ldrb.w	r3, [r0, #65]	; 0x41
 8000e28:	b2db      	uxtb	r3, r3
 8000e2a:	2b20      	cmp	r3, #32
{
 8000e2c:	b470      	push	{r4, r5, r6}
  if (hi2c->State == HAL_I2C_STATE_READY)
 8000e2e:	d11f      	bne.n	8000e70 <HAL_I2CEx_ConfigAnalogFilter+0x4c>
  {
    /* Process Locked */
    __HAL_LOCK(hi2c);
 8000e30:	f890 2040 	ldrb.w	r2, [r0, #64]	; 0x40
 8000e34:	2a01      	cmp	r2, #1
 8000e36:	d01b      	beq.n	8000e70 <HAL_I2CEx_ConfigAnalogFilter+0x4c>

    hi2c->State = HAL_I2C_STATE_BUSY;

    /* Disable the selected I2C peripheral */
    __HAL_I2C_DISABLE(hi2c);
 8000e38:	6802      	ldr	r2, [r0, #0]
    hi2c->State = HAL_I2C_STATE_BUSY;
 8000e3a:	2424      	movs	r4, #36	; 0x24
    __HAL_I2C_ENABLE(hi2c);

    hi2c->State = HAL_I2C_STATE_READY;

    /* Process Unlocked */
    __HAL_UNLOCK(hi2c);
 8000e3c:	2600      	movs	r6, #0
    hi2c->State = HAL_I2C_STATE_BUSY;
 8000e3e:	f880 4041 	strb.w	r4, [r0, #65]	; 0x41
    __HAL_I2C_DISABLE(hi2c);
 8000e42:	6815      	ldr	r5, [r2, #0]

    return HAL_OK;
 8000e44:	4634      	mov	r4, r6
    __HAL_I2C_DISABLE(hi2c);
 8000e46:	f025 0501 	bic.w	r5, r5, #1
 8000e4a:	6015      	str	r5, [r2, #0]
    hi2c->Instance->CR1 &= ~(I2C_CR1_ANFOFF);
 8000e4c:	6815      	ldr	r5, [r2, #0]
 8000e4e:	f425 5580 	bic.w	r5, r5, #4096	; 0x1000
 8000e52:	6015      	str	r5, [r2, #0]
    hi2c->Instance->CR1 |= AnalogFilter;
 8000e54:	6815      	ldr	r5, [r2, #0]
 8000e56:	4329      	orrs	r1, r5
 8000e58:	6011      	str	r1, [r2, #0]
    __HAL_I2C_ENABLE(hi2c);
 8000e5a:	6811      	ldr	r1, [r2, #0]
 8000e5c:	f041 0101 	orr.w	r1, r1, #1
 8000e60:	6011      	str	r1, [r2, #0]
    __HAL_UNLOCK(hi2c);
 8000e62:	f880 6040 	strb.w	r6, [r0, #64]	; 0x40
    hi2c->State = HAL_I2C_STATE_READY;
 8000e66:	f880 3041 	strb.w	r3, [r0, #65]	; 0x41
  }
  else
  {
    return HAL_BUSY;
  }
}
 8000e6a:	4620      	mov	r0, r4
 8000e6c:	bc70      	pop	{r4, r5, r6}
 8000e6e:	4770      	bx	lr
    return HAL_BUSY;
 8000e70:	2402      	movs	r4, #2
}
 8000e72:	4620      	mov	r0, r4
 8000e74:	bc70      	pop	{r4, r5, r6}
 8000e76:	4770      	bx	lr

08000e78 <HAL_I2CEx_ConfigDigitalFilter>:

  /* Check the parameters */
  assert_param(IS_I2C_ALL_INSTANCE(hi2c->Instance));
  assert_param(IS_I2C_DIGITAL_FILTER(DigitalFilter));

  if (hi2c->State == HAL_I2C_STATE_READY)
 8000e78:	f890 3041 	ldrb.w	r3, [r0, #65]	; 0x41
 8000e7c:	b2db      	uxtb	r3, r3
 8000e7e:	2b20      	cmp	r3, #32
{
 8000e80:	b470      	push	{r4, r5, r6}
  if (hi2c->State == HAL_I2C_STATE_READY)
 8000e82:	d11e      	bne.n	8000ec2 <HAL_I2CEx_ConfigDigitalFilter+0x4a>
  {
    /* Process Locked */
    __HAL_LOCK(hi2c);
 8000e84:	f890 2040 	ldrb.w	r2, [r0, #64]	; 0x40
 8000e88:	2a01      	cmp	r2, #1
 8000e8a:	d01a      	beq.n	8000ec2 <HAL_I2CEx_ConfigDigitalFilter+0x4a>

    hi2c->State = HAL_I2C_STATE_BUSY;

    /* Disable the selected I2C peripheral */
    __HAL_I2C_DISABLE(hi2c);
 8000e8c:	6802      	ldr	r2, [r0, #0]
    hi2c->State = HAL_I2C_STATE_BUSY;
 8000e8e:	2424      	movs	r4, #36	; 0x24
    __HAL_I2C_ENABLE(hi2c);

    hi2c->State = HAL_I2C_STATE_READY;

    /* Process Unlocked */
    __HAL_UNLOCK(hi2c);
 8000e90:	2600      	movs	r6, #0
    hi2c->State = HAL_I2C_STATE_BUSY;
 8000e92:	f880 4041 	strb.w	r4, [r0, #65]	; 0x41
    __HAL_I2C_DISABLE(hi2c);
 8000e96:	6814      	ldr	r4, [r2, #0]

    return HAL_OK;
 8000e98:	4635      	mov	r5, r6
    __HAL_I2C_DISABLE(hi2c);
 8000e9a:	f024 0401 	bic.w	r4, r4, #1
 8000e9e:	6014      	str	r4, [r2, #0]
    tmpreg = hi2c->Instance->CR1;
 8000ea0:	6814      	ldr	r4, [r2, #0]
    tmpreg &= ~(I2C_CR1_DNF);
 8000ea2:	f424 6470 	bic.w	r4, r4, #3840	; 0xf00
    tmpreg |= DigitalFilter << 8U;
 8000ea6:	ea44 2101 	orr.w	r1, r4, r1, lsl #8
    hi2c->Instance->CR1 = tmpreg;
 8000eaa:	6011      	str	r1, [r2, #0]
    __HAL_I2C_ENABLE(hi2c);
 8000eac:	6811      	ldr	r1, [r2, #0]
 8000eae:	f041 0101 	orr.w	r1, r1, #1
 8000eb2:	6011      	str	r1, [r2, #0]
    __HAL_UNLOCK(hi2c);
 8000eb4:	f880 6040 	strb.w	r6, [r0, #64]	; 0x40
    hi2c->State = HAL_I2C_STATE_READY;
 8000eb8:	f880 3041 	strb.w	r3, [r0, #65]	; 0x41
  }
  else
  {
    return HAL_BUSY;
  }
}
 8000ebc:	4628      	mov	r0, r5
 8000ebe:	bc70      	pop	{r4, r5, r6}
 8000ec0:	4770      	bx	lr
    return HAL_BUSY;
 8000ec2:	2502      	movs	r5, #2
}
 8000ec4:	4628      	mov	r0, r5
 8000ec6:	bc70      	pop	{r4, r5, r6}
 8000ec8:	4770      	bx	lr
 8000eca:	bf00      	nop

08000ecc <HAL_PWR_EnableBkUpAccess>:
  * @retval None
  */
void HAL_PWR_EnableBkUpAccess(void)
{
  /* Enable access to RTC and backup registers */
  SET_BIT(PWR->CR1, PWR_CR1_DBP);
 8000ecc:	4a02      	ldr	r2, [pc, #8]	; (8000ed8 <HAL_PWR_EnableBkUpAccess+0xc>)
 8000ece:	6813      	ldr	r3, [r2, #0]
 8000ed0:	f443 7380 	orr.w	r3, r3, #256	; 0x100
 8000ed4:	6013      	str	r3, [r2, #0]
}
 8000ed6:	4770      	bx	lr
 8000ed8:	40007000 	.word	0x40007000

08000edc <QSPI_WaitFlagStateUntilTimeout>:
  * @param  Timeout Duration of the time out
  * @retval HAL status
  */
static HAL_StatusTypeDef QSPI_WaitFlagStateUntilTimeout(QSPI_HandleTypeDef *hqspi, uint32_t Flag, 
                                                        FlagStatus State, uint32_t tickstart, uint32_t Timeout)
{
 8000edc:	e92d 43f8 	stmdb	sp!, {r3, r4, r5, r6, r7, r8, r9, lr}
 8000ee0:	9d08      	ldr	r5, [sp, #32]
 8000ee2:	4680      	mov	r8, r0
 8000ee4:	460f      	mov	r7, r1
 8000ee6:	4616      	mov	r6, r2
 8000ee8:	4699      	mov	r9, r3
  /* Wait until flag is in expected state */    
  while((FlagStatus)(__HAL_QSPI_GET_FLAG(hqspi, Flag)) != State)
 8000eea:	f8d8 4000 	ldr.w	r4, [r8]
 8000eee:	e001      	b.n	8000ef4 <QSPI_WaitFlagStateUntilTimeout+0x18>
  {
    /* Check for the Timeout */
    if (Timeout != HAL_MAX_DELAY)
 8000ef0:	1c6b      	adds	r3, r5, #1
 8000ef2:	d109      	bne.n	8000f08 <QSPI_WaitFlagStateUntilTimeout+0x2c>
  while((FlagStatus)(__HAL_QSPI_GET_FLAG(hqspi, Flag)) != State)
 8000ef4:	68a0      	ldr	r0, [r4, #8]
 8000ef6:	4238      	tst	r0, r7
 8000ef8:	bf14      	ite	ne
 8000efa:	2001      	movne	r0, #1
 8000efc:	2000      	moveq	r0, #0
 8000efe:	42b0      	cmp	r0, r6
 8000f00:	d1f6      	bne.n	8000ef0 <QSPI_WaitFlagStateUntilTimeout+0x14>
        
        return HAL_ERROR;
      }
    }
  }
  return HAL_OK;
 8000f02:	2000      	movs	r0, #0
}
 8000f04:	e8bd 83f8 	ldmia.w	sp!, {r3, r4, r5, r6, r7, r8, r9, pc}
      if((Timeout == 0) || ((HAL_GetTick() - tickstart) > Timeout))
 8000f08:	b12d      	cbz	r5, 8000f16 <QSPI_WaitFlagStateUntilTimeout+0x3a>
 8000f0a:	f7ff fb91 	bl	8000630 <HAL_GetTick>
 8000f0e:	eba0 0009 	sub.w	r0, r0, r9
 8000f12:	42a8      	cmp	r0, r5
 8000f14:	d9e9      	bls.n	8000eea <QSPI_WaitFlagStateUntilTimeout+0xe>
        hqspi->State     = HAL_QSPI_STATE_ERROR;
 8000f16:	2304      	movs	r3, #4
        hqspi->ErrorCode |= HAL_QSPI_ERROR_TIMEOUT;
 8000f18:	2001      	movs	r0, #1
        hqspi->State     = HAL_QSPI_STATE_ERROR;
 8000f1a:	f888 3041 	strb.w	r3, [r8, #65]	; 0x41
        hqspi->ErrorCode |= HAL_QSPI_ERROR_TIMEOUT;
 8000f1e:	f8d8 3044 	ldr.w	r3, [r8, #68]	; 0x44
 8000f22:	4303      	orrs	r3, r0
 8000f24:	f8c8 3044 	str.w	r3, [r8, #68]	; 0x44
 8000f28:	e7ec      	b.n	8000f04 <QSPI_WaitFlagStateUntilTimeout+0x28>
 8000f2a:	bf00      	nop

08000f2c <HAL_QSPI_Init>:
{
 8000f2c:	b5f0      	push	{r4, r5, r6, r7, lr}
 8000f2e:	4604      	mov	r4, r0
 8000f30:	b083      	sub	sp, #12
  uint32_t tickstart = HAL_GetTick();
 8000f32:	f7ff fb7d 	bl	8000630 <HAL_GetTick>
  if(hqspi == NULL)
 8000f36:	2c00      	cmp	r4, #0
 8000f38:	d045      	beq.n	8000fc6 <HAL_QSPI_Init+0x9a>
  __HAL_LOCK(hqspi);
 8000f3a:	f894 3040 	ldrb.w	r3, [r4, #64]	; 0x40
 8000f3e:	2b01      	cmp	r3, #1
 8000f40:	d04e      	beq.n	8000fe0 <HAL_QSPI_Init+0xb4>
 8000f42:	2301      	movs	r3, #1
 8000f44:	4605      	mov	r5, r0
 8000f46:	f884 3040 	strb.w	r3, [r4, #64]	; 0x40
  if(hqspi->State == HAL_QSPI_STATE_RESET)
 8000f4a:	f894 2041 	ldrb.w	r2, [r4, #65]	; 0x41
 8000f4e:	f002 03ff 	and.w	r3, r2, #255	; 0xff
 8000f52:	2a00      	cmp	r2, #0
 8000f54:	d03a      	beq.n	8000fcc <HAL_QSPI_Init+0xa0>
 8000f56:	6ca7      	ldr	r7, [r4, #72]	; 0x48
  MODIFY_REG(hqspi->Instance->CR, QUADSPI_CR_FTHRES, ((hqspi->Init.FifoThreshold - 1) << 8));
 8000f58:	6826      	ldr	r6, [r4, #0]
  status = QSPI_WaitFlagStateUntilTimeout(hqspi, QSPI_FLAG_BUSY, RESET, tickstart, hqspi->Timeout);
 8000f5a:	462b      	mov	r3, r5
  MODIFY_REG(hqspi->Instance->CR, QUADSPI_CR_FTHRES, ((hqspi->Init.FifoThreshold - 1) << 8));
 8000f5c:	68a1      	ldr	r1, [r4, #8]
  status = QSPI_WaitFlagStateUntilTimeout(hqspi, QSPI_FLAG_BUSY, RESET, tickstart, hqspi->Timeout);
 8000f5e:	2200      	movs	r2, #0
  MODIFY_REG(hqspi->Instance->CR, QUADSPI_CR_FTHRES, ((hqspi->Init.FifoThreshold - 1) << 8));
 8000f60:	6835      	ldr	r5, [r6, #0]
 8000f62:	1e48      	subs	r0, r1, #1
  status = QSPI_WaitFlagStateUntilTimeout(hqspi, QSPI_FLAG_BUSY, RESET, tickstart, hqspi->Timeout);
 8000f64:	2120      	movs	r1, #32
  MODIFY_REG(hqspi->Instance->CR, QUADSPI_CR_FTHRES, ((hqspi->Init.FifoThreshold - 1) << 8));
 8000f66:	f425 55f8 	bic.w	r5, r5, #7936	; 0x1f00
 8000f6a:	ea45 2500 	orr.w	r5, r5, r0, lsl #8
  status = QSPI_WaitFlagStateUntilTimeout(hqspi, QSPI_FLAG_BUSY, RESET, tickstart, hqspi->Timeout);
 8000f6e:	4620      	mov	r0, r4
  MODIFY_REG(hqspi->Instance->CR, QUADSPI_CR_FTHRES, ((hqspi->Init.FifoThreshold - 1) << 8));
 8000f70:	6035      	str	r5, [r6, #0]
  status = QSPI_WaitFlagStateUntilTimeout(hqspi, QSPI_FLAG_BUSY, RESET, tickstart, hqspi->Timeout);
 8000f72:	9700      	str	r7, [sp, #0]
 8000f74:	f7ff ffb2 	bl	8000edc <QSPI_WaitFlagStateUntilTimeout>
  if(status == HAL_OK)
 8000f78:	bb00      	cbnz	r0, 8000fbc <HAL_QSPI_Init+0x90>
    MODIFY_REG(hqspi->Instance->CR,(QUADSPI_CR_PRESCALER | QUADSPI_CR_SSHIFT | QUADSPI_CR_FSEL | QUADSPI_CR_DFM), ((hqspi->Init.ClockPrescaler << 24)| hqspi->Init.SampleShifting | hqspi->Init.FlashID| hqspi->Init.DualFlash ));
 8000f7a:	68e3      	ldr	r3, [r4, #12]
    hqspi->State = HAL_QSPI_STATE_READY;
 8000f7c:	2501      	movs	r5, #1
    MODIFY_REG(hqspi->Instance->CR,(QUADSPI_CR_PRESCALER | QUADSPI_CR_SSHIFT | QUADSPI_CR_FSEL | QUADSPI_CR_DFM), ((hqspi->Init.ClockPrescaler << 24)| hqspi->Init.SampleShifting | hqspi->Init.FlashID| hqspi->Init.DualFlash ));
 8000f7e:	e9d4 2607 	ldrd	r2, r6, [r4, #28]
 8000f82:	4313      	orrs	r3, r2
 8000f84:	e9d4 1200 	ldrd	r1, r2, [r4]
 8000f88:	4333      	orrs	r3, r6
 8000f8a:	4e17      	ldr	r6, [pc, #92]	; (8000fe8 <HAL_QSPI_Init+0xbc>)
 8000f8c:	680f      	ldr	r7, [r1, #0]
 8000f8e:	ea43 6302 	orr.w	r3, r3, r2, lsl #24
    MODIFY_REG(hqspi->Instance->DCR, (QUADSPI_DCR_FSIZE | QUADSPI_DCR_CSHT | QUADSPI_DCR_CKMODE), 
 8000f92:	6962      	ldr	r2, [r4, #20]
    MODIFY_REG(hqspi->Instance->CR,(QUADSPI_CR_PRESCALER | QUADSPI_CR_SSHIFT | QUADSPI_CR_FSEL | QUADSPI_CR_DFM), ((hqspi->Init.ClockPrescaler << 24)| hqspi->Init.SampleShifting | hqspi->Init.FlashID| hqspi->Init.DualFlash ));
 8000f94:	403e      	ands	r6, r7
    MODIFY_REG(hqspi->Instance->DCR, (QUADSPI_DCR_FSIZE | QUADSPI_DCR_CSHT | QUADSPI_DCR_CKMODE), 
 8000f96:	69a7      	ldr	r7, [r4, #24]
    MODIFY_REG(hqspi->Instance->CR,(QUADSPI_CR_PRESCALER | QUADSPI_CR_SSHIFT | QUADSPI_CR_FSEL | QUADSPI_CR_DFM), ((hqspi->Init.ClockPrescaler << 24)| hqspi->Init.SampleShifting | hqspi->Init.FlashID| hqspi->Init.DualFlash ));
 8000f98:	4333      	orrs	r3, r6
    MODIFY_REG(hqspi->Instance->DCR, (QUADSPI_DCR_FSIZE | QUADSPI_DCR_CSHT | QUADSPI_DCR_CKMODE), 
 8000f9a:	4e14      	ldr	r6, [pc, #80]	; (8000fec <HAL_QSPI_Init+0xc0>)
    MODIFY_REG(hqspi->Instance->CR,(QUADSPI_CR_PRESCALER | QUADSPI_CR_SSHIFT | QUADSPI_CR_FSEL | QUADSPI_CR_DFM), ((hqspi->Init.ClockPrescaler << 24)| hqspi->Init.SampleShifting | hqspi->Init.FlashID| hqspi->Init.DualFlash ));
 8000f9c:	600b      	str	r3, [r1, #0]
    MODIFY_REG(hqspi->Instance->DCR, (QUADSPI_DCR_FSIZE | QUADSPI_DCR_CSHT | QUADSPI_DCR_CKMODE), 
 8000f9e:	ea42 0307 	orr.w	r3, r2, r7
 8000fa2:	684f      	ldr	r7, [r1, #4]
 8000fa4:	6922      	ldr	r2, [r4, #16]
 8000fa6:	403e      	ands	r6, r7
 8000fa8:	ea43 4302 	orr.w	r3, r3, r2, lsl #16
 8000fac:	4333      	orrs	r3, r6
 8000fae:	604b      	str	r3, [r1, #4]
    __HAL_QSPI_ENABLE(hqspi);
 8000fb0:	680b      	ldr	r3, [r1, #0]
 8000fb2:	432b      	orrs	r3, r5
 8000fb4:	600b      	str	r3, [r1, #0]
    hqspi->ErrorCode = HAL_QSPI_ERROR_NONE;  
 8000fb6:	6460      	str	r0, [r4, #68]	; 0x44
    hqspi->State = HAL_QSPI_STATE_READY;
 8000fb8:	f884 5041 	strb.w	r5, [r4, #65]	; 0x41
  __HAL_UNLOCK(hqspi);
 8000fbc:	2300      	movs	r3, #0
 8000fbe:	f884 3040 	strb.w	r3, [r4, #64]	; 0x40
}
 8000fc2:	b003      	add	sp, #12
 8000fc4:	bdf0      	pop	{r4, r5, r6, r7, pc}
    return HAL_ERROR;
 8000fc6:	2001      	movs	r0, #1
}
 8000fc8:	b003      	add	sp, #12
 8000fca:	bdf0      	pop	{r4, r5, r6, r7, pc}
    hqspi->Lock = HAL_UNLOCKED;
 8000fcc:	f884 3040 	strb.w	r3, [r4, #64]	; 0x40
    HAL_QSPI_MspInit(hqspi);
 8000fd0:	4620      	mov	r0, r4
 8000fd2:	f002 fdd1 	bl	8003b78 <HAL_QSPI_MspInit>
  hqspi->Timeout = Timeout;
 8000fd6:	f241 3388 	movw	r3, #5000	; 0x1388
 8000fda:	461f      	mov	r7, r3
 8000fdc:	64a3      	str	r3, [r4, #72]	; 0x48
 8000fde:	e7bb      	b.n	8000f58 <HAL_QSPI_Init+0x2c>
  __HAL_LOCK(hqspi);
 8000fe0:	2002      	movs	r0, #2
}
 8000fe2:	b003      	add	sp, #12
 8000fe4:	bdf0      	pop	{r4, r5, r6, r7, pc}
 8000fe6:	bf00      	nop
 8000fe8:	00ffff2f 	.word	0x00ffff2f
 8000fec:	ffe0f8fe 	.word	0xffe0f8fe

08000ff0 <HAL_RCC_OscConfig>:
{
  uint32_t tickstart;
  FlagStatus pwrclkchanged = RESET;

  /* Check Null pointer */
  if(RCC_OscInitStruct == NULL)
 8000ff0:	2800      	cmp	r0, #0
 8000ff2:	f000 8134 	beq.w	800125e <HAL_RCC_OscConfig+0x26e>

  /* Check the parameters */
  assert_param(IS_RCC_OSCILLATORTYPE(RCC_OscInitStruct->OscillatorType));

  /*------------------------------- HSE Configuration ------------------------*/
  if(((RCC_OscInitStruct->OscillatorType) & RCC_OSCILLATORTYPE_HSE) == RCC_OSCILLATORTYPE_HSE)
 8000ff6:	6803      	ldr	r3, [r0, #0]
{
 8000ff8:	e92d 41f0 	stmdb	sp!, {r4, r5, r6, r7, r8, lr}
  if(((RCC_OscInitStruct->OscillatorType) & RCC_OSCILLATORTYPE_HSE) == RCC_OSCILLATORTYPE_HSE)
 8000ffc:	07dd      	lsls	r5, r3, #31
{
 8000ffe:	b082      	sub	sp, #8
 8001000:	4604      	mov	r4, r0
  if(((RCC_OscInitStruct->OscillatorType) & RCC_OSCILLATORTYPE_HSE) == RCC_OSCILLATORTYPE_HSE)
 8001002:	d535      	bpl.n	8001070 <HAL_RCC_OscConfig+0x80>
  {
    /* Check the parameters */
    assert_param(IS_RCC_HSE(RCC_OscInitStruct->HSEState));
    /* When the HSE is used as system clock or clock source for PLL, It can not be disabled */
    if((__HAL_RCC_GET_SYSCLK_SOURCE() == RCC_SYSCLKSOURCE_STATUS_HSE)
 8001004:	49ab      	ldr	r1, [pc, #684]	; (80012b4 <HAL_RCC_OscConfig+0x2c4>)
 8001006:	688a      	ldr	r2, [r1, #8]
 8001008:	f002 020c 	and.w	r2, r2, #12
 800100c:	2a04      	cmp	r2, #4
 800100e:	f000 80fe 	beq.w	800120e <HAL_RCC_OscConfig+0x21e>
       || ((__HAL_RCC_GET_SYSCLK_SOURCE() == RCC_SYSCLKSOURCE_STATUS_PLLCLK) && ((RCC->PLLCFGR & RCC_PLLCFGR_PLLSRC) == RCC_PLLCFGR_PLLSRC_HSE)))
 8001012:	688a      	ldr	r2, [r1, #8]
 8001014:	f002 020c 	and.w	r2, r2, #12
 8001018:	2a08      	cmp	r2, #8
 800101a:	f000 80f4 	beq.w	8001206 <HAL_RCC_OscConfig+0x216>
      }
    }
    else
    {
      /* Set the new HSE configuration ---------------------------------------*/
      __HAL_RCC_HSE_CONFIG(RCC_OscInitStruct->HSEState);
 800101e:	6863      	ldr	r3, [r4, #4]
 8001020:	f5b3 3f80 	cmp.w	r3, #65536	; 0x10000
 8001024:	d010      	beq.n	8001048 <HAL_RCC_OscConfig+0x58>
 8001026:	2b00      	cmp	r3, #0
 8001028:	f000 811b 	beq.w	8001262 <HAL_RCC_OscConfig+0x272>
 800102c:	f5b3 2fa0 	cmp.w	r3, #327680	; 0x50000
 8001030:	4ba0      	ldr	r3, [pc, #640]	; (80012b4 <HAL_RCC_OscConfig+0x2c4>)
 8001032:	681a      	ldr	r2, [r3, #0]
 8001034:	f000 8162 	beq.w	80012fc <HAL_RCC_OscConfig+0x30c>
 8001038:	f422 3280 	bic.w	r2, r2, #65536	; 0x10000
 800103c:	601a      	str	r2, [r3, #0]
 800103e:	681a      	ldr	r2, [r3, #0]
 8001040:	f422 2280 	bic.w	r2, r2, #262144	; 0x40000
 8001044:	601a      	str	r2, [r3, #0]
 8001046:	e004      	b.n	8001052 <HAL_RCC_OscConfig+0x62>
 8001048:	4a9a      	ldr	r2, [pc, #616]	; (80012b4 <HAL_RCC_OscConfig+0x2c4>)
 800104a:	6813      	ldr	r3, [r2, #0]
 800104c:	f443 3380 	orr.w	r3, r3, #65536	; 0x10000
 8001050:	6013      	str	r3, [r2, #0]

      /* Check the HSE State */
      if(RCC_OscInitStruct->HSEState != RCC_HSE_OFF)
      {
        /* Get Start Tick*/
        tickstart = HAL_GetTick();
 8001052:	f7ff faed 	bl	8000630 <HAL_GetTick>

        /* Wait till HSE is ready */
        while(__HAL_RCC_GET_FLAG(RCC_FLAG_HSERDY) == RESET)
 8001056:	4d97      	ldr	r5, [pc, #604]	; (80012b4 <HAL_RCC_OscConfig+0x2c4>)
        tickstart = HAL_GetTick();
 8001058:	4606      	mov	r6, r0
        while(__HAL_RCC_GET_FLAG(RCC_FLAG_HSERDY) == RESET)
 800105a:	e005      	b.n	8001068 <HAL_RCC_OscConfig+0x78>
        {
          if((HAL_GetTick() - tickstart ) > HSE_TIMEOUT_VALUE)
 800105c:	f7ff fae8 	bl	8000630 <HAL_GetTick>
 8001060:	1b80      	subs	r0, r0, r6
 8001062:	2864      	cmp	r0, #100	; 0x64
 8001064:	f200 80ee 	bhi.w	8001244 <HAL_RCC_OscConfig+0x254>
        while(__HAL_RCC_GET_FLAG(RCC_FLAG_HSERDY) == RESET)
 8001068:	682b      	ldr	r3, [r5, #0]
 800106a:	039a      	lsls	r2, r3, #14
 800106c:	d5f6      	bpl.n	800105c <HAL_RCC_OscConfig+0x6c>
 800106e:	6823      	ldr	r3, [r4, #0]
        }
      }
    }
  }
  /*----------------------------- HSI Configuration --------------------------*/
  if(((RCC_OscInitStruct->OscillatorType) & RCC_OSCILLATORTYPE_HSI) == RCC_OSCILLATORTYPE_HSI)
 8001070:	079f      	lsls	r7, r3, #30
 8001072:	d442      	bmi.n	80010fa <HAL_RCC_OscConfig+0x10a>
        }
      }
    }
  }
  /*------------------------------ LSI Configuration -------------------------*/
  if(((RCC_OscInitStruct->OscillatorType) & RCC_OSCILLATORTYPE_LSI) == RCC_OSCILLATORTYPE_LSI)
 8001074:	071a      	lsls	r2, r3, #28
 8001076:	d517      	bpl.n	80010a8 <HAL_RCC_OscConfig+0xb8>
  {
    /* Check the parameters */
    assert_param(IS_RCC_LSI(RCC_OscInitStruct->LSIState));

    /* Check the LSI State */
    if((RCC_OscInitStruct->LSIState)!= RCC_LSI_OFF)
 8001078:	6963      	ldr	r3, [r4, #20]
 800107a:	2b00      	cmp	r3, #0
 800107c:	f000 80b0 	beq.w	80011e0 <HAL_RCC_OscConfig+0x1f0>
    {
      /* Enable the Internal Low Speed oscillator (LSI). */
      __HAL_RCC_LSI_ENABLE();
 8001080:	4b8c      	ldr	r3, [pc, #560]	; (80012b4 <HAL_RCC_OscConfig+0x2c4>)
 8001082:	6f5a      	ldr	r2, [r3, #116]	; 0x74

      /* Get Start Tick*/
      tickstart = HAL_GetTick();

      /* Wait till LSI is ready */
      while(__HAL_RCC_GET_FLAG(RCC_FLAG_LSIRDY) == RESET)
 8001084:	461d      	mov	r5, r3
      __HAL_RCC_LSI_ENABLE();
 8001086:	f042 0201 	orr.w	r2, r2, #1
 800108a:	675a      	str	r2, [r3, #116]	; 0x74
      tickstart = HAL_GetTick();
 800108c:	f7ff fad0 	bl	8000630 <HAL_GetTick>
 8001090:	4606      	mov	r6, r0
      while(__HAL_RCC_GET_FLAG(RCC_FLAG_LSIRDY) == RESET)
 8001092:	e005      	b.n	80010a0 <HAL_RCC_OscConfig+0xb0>
      {
        if((HAL_GetTick() - tickstart ) > LSI_TIMEOUT_VALUE)
 8001094:	f7ff facc 	bl	8000630 <HAL_GetTick>
 8001098:	1b80      	subs	r0, r0, r6
 800109a:	2802      	cmp	r0, #2
 800109c:	f200 80d2 	bhi.w	8001244 <HAL_RCC_OscConfig+0x254>
      while(__HAL_RCC_GET_FLAG(RCC_FLAG_LSIRDY) == RESET)
 80010a0:	6f6b      	ldr	r3, [r5, #116]	; 0x74
 80010a2:	079b      	lsls	r3, r3, #30
 80010a4:	d5f6      	bpl.n	8001094 <HAL_RCC_OscConfig+0xa4>
 80010a6:	6823      	ldr	r3, [r4, #0]
        }
      }
    }
  }
  /*------------------------------ LSE Configuration -------------------------*/
  if(((RCC_OscInitStruct->OscillatorType) & RCC_OSCILLATORTYPE_LSE) == RCC_OSCILLATORTYPE_LSE)
 80010a8:	075d      	lsls	r5, r3, #29
 80010aa:	d56b      	bpl.n	8001184 <HAL_RCC_OscConfig+0x194>
    /* Check the parameters */
    assert_param(IS_RCC_LSE(RCC_OscInitStruct->LSEState));

    /* Update LSE configuration in Backup Domain control register    */
    /* Requires to enable write access to Backup Domain of necessary */
    if(__HAL_RCC_PWR_IS_CLK_DISABLED())
 80010ac:	4b81      	ldr	r3, [pc, #516]	; (80012b4 <HAL_RCC_OscConfig+0x2c4>)
 80010ae:	6c1a      	ldr	r2, [r3, #64]	; 0x40
 80010b0:	00d0      	lsls	r0, r2, #3
 80010b2:	f100 80ed 	bmi.w	8001290 <HAL_RCC_OscConfig+0x2a0>
    {
      /* Enable Power Clock*/
      __HAL_RCC_PWR_CLK_ENABLE();
 80010b6:	6c1a      	ldr	r2, [r3, #64]	; 0x40
      pwrclkchanged = SET;
 80010b8:	2501      	movs	r5, #1
      __HAL_RCC_PWR_CLK_ENABLE();
 80010ba:	f042 5280 	orr.w	r2, r2, #268435456	; 0x10000000
 80010be:	641a      	str	r2, [r3, #64]	; 0x40
 80010c0:	6c1b      	ldr	r3, [r3, #64]	; 0x40
 80010c2:	f003 5380 	and.w	r3, r3, #268435456	; 0x10000000
 80010c6:	9301      	str	r3, [sp, #4]
 80010c8:	9b01      	ldr	r3, [sp, #4]
    }

    if(HAL_IS_BIT_CLR(PWR->CR1, PWR_CR1_DBP))
 80010ca:	4b7b      	ldr	r3, [pc, #492]	; (80012b8 <HAL_RCC_OscConfig+0x2c8>)
 80010cc:	681a      	ldr	r2, [r3, #0]
 80010ce:	05d1      	lsls	r1, r2, #23
 80010d0:	f140 80a7 	bpl.w	8001222 <HAL_RCC_OscConfig+0x232>
        }
      }
    }

    /* Set the new LSE configuration -----------------------------------------*/
    __HAL_RCC_LSE_CONFIG(RCC_OscInitStruct->LSEState);
 80010d4:	68a3      	ldr	r3, [r4, #8]
 80010d6:	2b01      	cmp	r3, #1
 80010d8:	d039      	beq.n	800114e <HAL_RCC_OscConfig+0x15e>
 80010da:	2b00      	cmp	r3, #0
 80010dc:	f000 80da 	beq.w	8001294 <HAL_RCC_OscConfig+0x2a4>
 80010e0:	2b05      	cmp	r3, #5
 80010e2:	4b74      	ldr	r3, [pc, #464]	; (80012b4 <HAL_RCC_OscConfig+0x2c4>)
 80010e4:	6f1a      	ldr	r2, [r3, #112]	; 0x70
 80010e6:	f000 8111 	beq.w	800130c <HAL_RCC_OscConfig+0x31c>
 80010ea:	f022 0201 	bic.w	r2, r2, #1
 80010ee:	671a      	str	r2, [r3, #112]	; 0x70
 80010f0:	6f1a      	ldr	r2, [r3, #112]	; 0x70
 80010f2:	f022 0204 	bic.w	r2, r2, #4
 80010f6:	671a      	str	r2, [r3, #112]	; 0x70
 80010f8:	e02e      	b.n	8001158 <HAL_RCC_OscConfig+0x168>
    if((__HAL_RCC_GET_SYSCLK_SOURCE() == RCC_SYSCLKSOURCE_STATUS_HSI)
 80010fa:	4a6e      	ldr	r2, [pc, #440]	; (80012b4 <HAL_RCC_OscConfig+0x2c4>)
 80010fc:	6891      	ldr	r1, [r2, #8]
 80010fe:	f011 0f0c 	tst.w	r1, #12
 8001102:	d062      	beq.n	80011ca <HAL_RCC_OscConfig+0x1da>
       || ((__HAL_RCC_GET_SYSCLK_SOURCE() == RCC_SYSCLKSOURCE_STATUS_PLLCLK) && ((RCC->PLLCFGR & RCC_PLLCFGR_PLLSRC) == RCC_PLLCFGR_PLLSRC_HSI)))
 8001104:	6891      	ldr	r1, [r2, #8]
 8001106:	f001 010c 	and.w	r1, r1, #12
 800110a:	2908      	cmp	r1, #8
 800110c:	d05a      	beq.n	80011c4 <HAL_RCC_OscConfig+0x1d4>
      if((RCC_OscInitStruct->HSIState)!= RCC_HSI_OFF)
 800110e:	68e3      	ldr	r3, [r4, #12]
 8001110:	2b00      	cmp	r3, #0
 8001112:	f000 80df 	beq.w	80012d4 <HAL_RCC_OscConfig+0x2e4>
        __HAL_RCC_HSI_ENABLE();
 8001116:	4b67      	ldr	r3, [pc, #412]	; (80012b4 <HAL_RCC_OscConfig+0x2c4>)
 8001118:	681a      	ldr	r2, [r3, #0]
        while(__HAL_RCC_GET_FLAG(RCC_FLAG_HSIRDY) == RESET)
 800111a:	461d      	mov	r5, r3
        __HAL_RCC_HSI_ENABLE();
 800111c:	f042 0201 	orr.w	r2, r2, #1
 8001120:	601a      	str	r2, [r3, #0]
        tickstart = HAL_GetTick();
 8001122:	f7ff fa85 	bl	8000630 <HAL_GetTick>
 8001126:	4606      	mov	r6, r0
        while(__HAL_RCC_GET_FLAG(RCC_FLAG_HSIRDY) == RESET)
 8001128:	e005      	b.n	8001136 <HAL_RCC_OscConfig+0x146>
          if((HAL_GetTick() - tickstart ) > HSI_TIMEOUT_VALUE)
 800112a:	f7ff fa81 	bl	8000630 <HAL_GetTick>
 800112e:	1b80      	subs	r0, r0, r6
 8001130:	2802      	cmp	r0, #2
 8001132:	f200 8087 	bhi.w	8001244 <HAL_RCC_OscConfig+0x254>
        while(__HAL_RCC_GET_FLAG(RCC_FLAG_HSIRDY) == RESET)
 8001136:	682b      	ldr	r3, [r5, #0]
 8001138:	0798      	lsls	r0, r3, #30
 800113a:	d5f6      	bpl.n	800112a <HAL_RCC_OscConfig+0x13a>
        __HAL_RCC_HSI_CALIBRATIONVALUE_ADJUST(RCC_OscInitStruct->HSICalibrationValue);
 800113c:	682b      	ldr	r3, [r5, #0]
 800113e:	6922      	ldr	r2, [r4, #16]
 8001140:	f023 03f8 	bic.w	r3, r3, #248	; 0xf8
 8001144:	ea43 03c2 	orr.w	r3, r3, r2, lsl #3
 8001148:	602b      	str	r3, [r5, #0]
 800114a:	6823      	ldr	r3, [r4, #0]
 800114c:	e792      	b.n	8001074 <HAL_RCC_OscConfig+0x84>
    __HAL_RCC_LSE_CONFIG(RCC_OscInitStruct->LSEState);
 800114e:	4a59      	ldr	r2, [pc, #356]	; (80012b4 <HAL_RCC_OscConfig+0x2c4>)
 8001150:	6f13      	ldr	r3, [r2, #112]	; 0x70
 8001152:	f043 0301 	orr.w	r3, r3, #1
 8001156:	6713      	str	r3, [r2, #112]	; 0x70
    /* Check the LSE State */
    if((RCC_OscInitStruct->LSEState) != RCC_LSE_OFF)
    {
      /* Get Start Tick*/
      tickstart = HAL_GetTick();
 8001158:	f7ff fa6a 	bl	8000630 <HAL_GetTick>

      /* Wait till LSE is ready */
      while(__HAL_RCC_GET_FLAG(RCC_FLAG_LSERDY) == RESET)
 800115c:	4e55      	ldr	r6, [pc, #340]	; (80012b4 <HAL_RCC_OscConfig+0x2c4>)
      tickstart = HAL_GetTick();
 800115e:	4680      	mov	r8, r0
      {
        if((HAL_GetTick() - tickstart ) > RCC_LSE_TIMEOUT_VALUE)
 8001160:	f241 3788 	movw	r7, #5000	; 0x1388
      while(__HAL_RCC_GET_FLAG(RCC_FLAG_LSERDY) == RESET)
 8001164:	e005      	b.n	8001172 <HAL_RCC_OscConfig+0x182>
        if((HAL_GetTick() - tickstart ) > RCC_LSE_TIMEOUT_VALUE)
 8001166:	f7ff fa63 	bl	8000630 <HAL_GetTick>
 800116a:	eba0 0008 	sub.w	r0, r0, r8
 800116e:	42b8      	cmp	r0, r7
 8001170:	d868      	bhi.n	8001244 <HAL_RCC_OscConfig+0x254>
      while(__HAL_RCC_GET_FLAG(RCC_FLAG_LSERDY) == RESET)
 8001172:	6f33      	ldr	r3, [r6, #112]	; 0x70
 8001174:	079b      	lsls	r3, r3, #30
 8001176:	d5f6      	bpl.n	8001166 <HAL_RCC_OscConfig+0x176>
        }
      }
    }

    /* Restore clock configuration if changed */
    if(pwrclkchanged == SET)
 8001178:	b125      	cbz	r5, 8001184 <HAL_RCC_OscConfig+0x194>
    {
      __HAL_RCC_PWR_CLK_DISABLE();
 800117a:	4a4e      	ldr	r2, [pc, #312]	; (80012b4 <HAL_RCC_OscConfig+0x2c4>)
 800117c:	6c13      	ldr	r3, [r2, #64]	; 0x40
 800117e:	f023 5380 	bic.w	r3, r3, #268435456	; 0x10000000
 8001182:	6413      	str	r3, [r2, #64]	; 0x40
    }
  }
  /*-------------------------------- PLL Configuration -----------------------*/
  /* Check the parameters */
  assert_param(IS_RCC_PLL(RCC_OscInitStruct->PLL.PLLState));
  if ((RCC_OscInitStruct->PLL.PLLState) != RCC_PLL_NONE)
 8001184:	69a3      	ldr	r3, [r4, #24]
 8001186:	b1cb      	cbz	r3, 80011bc <HAL_RCC_OscConfig+0x1cc>
  {
    /* Check if the PLL is used as system clock or not */
    if(__HAL_RCC_GET_SYSCLK_SOURCE() != RCC_SYSCLKSOURCE_STATUS_PLLCLK)
 8001188:	4a4a      	ldr	r2, [pc, #296]	; (80012b4 <HAL_RCC_OscConfig+0x2c4>)
 800118a:	6891      	ldr	r1, [r2, #8]
 800118c:	f001 010c 	and.w	r1, r1, #12
 8001190:	2908      	cmp	r1, #8
 8001192:	d021      	beq.n	80011d8 <HAL_RCC_OscConfig+0x1e8>
    {
      if((RCC_OscInitStruct->PLL.PLLState) == RCC_PLL_ON)
 8001194:	2b02      	cmp	r3, #2
#if defined (RCC_PLLCFGR_PLLR)
        assert_param(IS_RCC_PLLR_VALUE(RCC_OscInitStruct->PLL.PLLR));
#endif

        /* Disable the main PLL. */
        __HAL_RCC_PLL_DISABLE();
 8001196:	6813      	ldr	r3, [r2, #0]
      if((RCC_OscInitStruct->PLL.PLLState) == RCC_PLL_ON)
 8001198:	f000 80c0 	beq.w	800131c <HAL_RCC_OscConfig+0x32c>
        }
      }
      else
      {
        /* Disable the main PLL. */
        __HAL_RCC_PLL_DISABLE();
 800119c:	f023 7380 	bic.w	r3, r3, #16777216	; 0x1000000

        /* Get Start Tick*/
        tickstart = HAL_GetTick();

        /* Wait till PLL is ready */
        while(__HAL_RCC_GET_FLAG(RCC_FLAG_PLLRDY) != RESET)
 80011a0:	4614      	mov	r4, r2
        __HAL_RCC_PLL_DISABLE();
 80011a2:	6013      	str	r3, [r2, #0]
        tickstart = HAL_GetTick();
 80011a4:	f7ff fa44 	bl	8000630 <HAL_GetTick>
 80011a8:	4605      	mov	r5, r0
        while(__HAL_RCC_GET_FLAG(RCC_FLAG_PLLRDY) != RESET)
 80011aa:	e004      	b.n	80011b6 <HAL_RCC_OscConfig+0x1c6>
        {
          if((HAL_GetTick() - tickstart ) > PLL_TIMEOUT_VALUE)
 80011ac:	f7ff fa40 	bl	8000630 <HAL_GetTick>
 80011b0:	1b40      	subs	r0, r0, r5
 80011b2:	2802      	cmp	r0, #2
 80011b4:	d846      	bhi.n	8001244 <HAL_RCC_OscConfig+0x254>
        while(__HAL_RCC_GET_FLAG(RCC_FLAG_PLLRDY) != RESET)
 80011b6:	6823      	ldr	r3, [r4, #0]
 80011b8:	019b      	lsls	r3, r3, #6
 80011ba:	d4f7      	bmi.n	80011ac <HAL_RCC_OscConfig+0x1bc>
    else
    {
      return HAL_ERROR;
    }
  }
  return HAL_OK;
 80011bc:	2000      	movs	r0, #0
}
 80011be:	b002      	add	sp, #8
 80011c0:	e8bd 81f0 	ldmia.w	sp!, {r4, r5, r6, r7, r8, pc}
       || ((__HAL_RCC_GET_SYSCLK_SOURCE() == RCC_SYSCLKSOURCE_STATUS_PLLCLK) && ((RCC->PLLCFGR & RCC_PLLCFGR_PLLSRC) == RCC_PLLCFGR_PLLSRC_HSI)))
 80011c4:	6852      	ldr	r2, [r2, #4]
 80011c6:	0256      	lsls	r6, r2, #9
 80011c8:	d4a1      	bmi.n	800110e <HAL_RCC_OscConfig+0x11e>
      if((__HAL_RCC_GET_FLAG(RCC_FLAG_HSIRDY) != RESET) && (RCC_OscInitStruct->HSIState != RCC_HSI_ON))
 80011ca:	4a3a      	ldr	r2, [pc, #232]	; (80012b4 <HAL_RCC_OscConfig+0x2c4>)
 80011cc:	6812      	ldr	r2, [r2, #0]
 80011ce:	0795      	lsls	r5, r2, #30
 80011d0:	d53c      	bpl.n	800124c <HAL_RCC_OscConfig+0x25c>
 80011d2:	68e2      	ldr	r2, [r4, #12]
 80011d4:	2a01      	cmp	r2, #1
 80011d6:	d039      	beq.n	800124c <HAL_RCC_OscConfig+0x25c>
    return HAL_ERROR;
 80011d8:	2001      	movs	r0, #1
}
 80011da:	b002      	add	sp, #8
 80011dc:	e8bd 81f0 	ldmia.w	sp!, {r4, r5, r6, r7, r8, pc}
      __HAL_RCC_LSI_DISABLE();
 80011e0:	4b34      	ldr	r3, [pc, #208]	; (80012b4 <HAL_RCC_OscConfig+0x2c4>)
 80011e2:	6f5a      	ldr	r2, [r3, #116]	; 0x74
      while(__HAL_RCC_GET_FLAG(RCC_FLAG_LSIRDY) != RESET)
 80011e4:	461d      	mov	r5, r3
      __HAL_RCC_LSI_DISABLE();
 80011e6:	f022 0201 	bic.w	r2, r2, #1
 80011ea:	675a      	str	r2, [r3, #116]	; 0x74
      tickstart = HAL_GetTick();
 80011ec:	f7ff fa20 	bl	8000630 <HAL_GetTick>
 80011f0:	4606      	mov	r6, r0
      while(__HAL_RCC_GET_FLAG(RCC_FLAG_LSIRDY) != RESET)
 80011f2:	e004      	b.n	80011fe <HAL_RCC_OscConfig+0x20e>
        if((HAL_GetTick() - tickstart ) > LSI_TIMEOUT_VALUE)
 80011f4:	f7ff fa1c 	bl	8000630 <HAL_GetTick>
 80011f8:	1b80      	subs	r0, r0, r6
 80011fa:	2802      	cmp	r0, #2
 80011fc:	d822      	bhi.n	8001244 <HAL_RCC_OscConfig+0x254>
      while(__HAL_RCC_GET_FLAG(RCC_FLAG_LSIRDY) != RESET)
 80011fe:	6f6b      	ldr	r3, [r5, #116]	; 0x74
 8001200:	079f      	lsls	r7, r3, #30
 8001202:	d4f7      	bmi.n	80011f4 <HAL_RCC_OscConfig+0x204>
 8001204:	e74f      	b.n	80010a6 <HAL_RCC_OscConfig+0xb6>
       || ((__HAL_RCC_GET_SYSCLK_SOURCE() == RCC_SYSCLKSOURCE_STATUS_PLLCLK) && ((RCC->PLLCFGR & RCC_PLLCFGR_PLLSRC) == RCC_PLLCFGR_PLLSRC_HSE)))
 8001206:	684a      	ldr	r2, [r1, #4]
 8001208:	0250      	lsls	r0, r2, #9
 800120a:	f57f af08 	bpl.w	800101e <HAL_RCC_OscConfig+0x2e>
      if((__HAL_RCC_GET_FLAG(RCC_FLAG_HSERDY) != RESET) && (RCC_OscInitStruct->HSEState == RCC_HSE_OFF))
 800120e:	4a29      	ldr	r2, [pc, #164]	; (80012b4 <HAL_RCC_OscConfig+0x2c4>)
 8001210:	6812      	ldr	r2, [r2, #0]
 8001212:	0391      	lsls	r1, r2, #14
 8001214:	f57f af2c 	bpl.w	8001070 <HAL_RCC_OscConfig+0x80>
 8001218:	6862      	ldr	r2, [r4, #4]
 800121a:	2a00      	cmp	r2, #0
 800121c:	f47f af28 	bne.w	8001070 <HAL_RCC_OscConfig+0x80>
 8001220:	e7da      	b.n	80011d8 <HAL_RCC_OscConfig+0x1e8>
      PWR->CR1 |= PWR_CR1_DBP;
 8001222:	681a      	ldr	r2, [r3, #0]
      while(HAL_IS_BIT_CLR(PWR->CR1, PWR_CR1_DBP))
 8001224:	461e      	mov	r6, r3
      PWR->CR1 |= PWR_CR1_DBP;
 8001226:	f442 7280 	orr.w	r2, r2, #256	; 0x100
 800122a:	601a      	str	r2, [r3, #0]
      tickstart = HAL_GetTick();
 800122c:	f7ff fa00 	bl	8000630 <HAL_GetTick>
 8001230:	4607      	mov	r7, r0
      while(HAL_IS_BIT_CLR(PWR->CR1, PWR_CR1_DBP))
 8001232:	6833      	ldr	r3, [r6, #0]
 8001234:	05da      	lsls	r2, r3, #23
 8001236:	f53f af4d 	bmi.w	80010d4 <HAL_RCC_OscConfig+0xe4>
        if((HAL_GetTick() - tickstart ) > RCC_DBP_TIMEOUT_VALUE)
 800123a:	f7ff f9f9 	bl	8000630 <HAL_GetTick>
 800123e:	1bc0      	subs	r0, r0, r7
 8001240:	2864      	cmp	r0, #100	; 0x64
 8001242:	d9f6      	bls.n	8001232 <HAL_RCC_OscConfig+0x242>
            return HAL_TIMEOUT;
 8001244:	2003      	movs	r0, #3
}
 8001246:	b002      	add	sp, #8
 8001248:	e8bd 81f0 	ldmia.w	sp!, {r4, r5, r6, r7, r8, pc}
        __HAL_RCC_HSI_CALIBRATIONVALUE_ADJUST(RCC_OscInitStruct->HSICalibrationValue);
 800124c:	4919      	ldr	r1, [pc, #100]	; (80012b4 <HAL_RCC_OscConfig+0x2c4>)
 800124e:	6920      	ldr	r0, [r4, #16]
 8001250:	680a      	ldr	r2, [r1, #0]
 8001252:	f022 02f8 	bic.w	r2, r2, #248	; 0xf8
 8001256:	ea42 02c0 	orr.w	r2, r2, r0, lsl #3
 800125a:	600a      	str	r2, [r1, #0]
      if((__HAL_RCC_GET_FLAG(RCC_FLAG_HSIRDY) != RESET) && (RCC_OscInitStruct->HSIState != RCC_HSI_ON))
 800125c:	e70a      	b.n	8001074 <HAL_RCC_OscConfig+0x84>
    return HAL_ERROR;
 800125e:	2001      	movs	r0, #1
}
 8001260:	4770      	bx	lr
      __HAL_RCC_HSE_CONFIG(RCC_OscInitStruct->HSEState);
 8001262:	4b14      	ldr	r3, [pc, #80]	; (80012b4 <HAL_RCC_OscConfig+0x2c4>)
 8001264:	681a      	ldr	r2, [r3, #0]
        while(__HAL_RCC_GET_FLAG(RCC_FLAG_HSERDY) != RESET)
 8001266:	461d      	mov	r5, r3
      __HAL_RCC_HSE_CONFIG(RCC_OscInitStruct->HSEState);
 8001268:	f422 3280 	bic.w	r2, r2, #65536	; 0x10000
 800126c:	601a      	str	r2, [r3, #0]
 800126e:	681a      	ldr	r2, [r3, #0]
 8001270:	f422 2280 	bic.w	r2, r2, #262144	; 0x40000
 8001274:	601a      	str	r2, [r3, #0]
        tickstart = HAL_GetTick();
 8001276:	f7ff f9db 	bl	8000630 <HAL_GetTick>
 800127a:	4606      	mov	r6, r0
        while(__HAL_RCC_GET_FLAG(RCC_FLAG_HSERDY) != RESET)
 800127c:	e004      	b.n	8001288 <HAL_RCC_OscConfig+0x298>
           if((HAL_GetTick() - tickstart ) > HSE_TIMEOUT_VALUE)
 800127e:	f7ff f9d7 	bl	8000630 <HAL_GetTick>
 8001282:	1b80      	subs	r0, r0, r6
 8001284:	2864      	cmp	r0, #100	; 0x64
 8001286:	d8dd      	bhi.n	8001244 <HAL_RCC_OscConfig+0x254>
        while(__HAL_RCC_GET_FLAG(RCC_FLAG_HSERDY) != RESET)
 8001288:	682b      	ldr	r3, [r5, #0]
 800128a:	039b      	lsls	r3, r3, #14
 800128c:	d4f7      	bmi.n	800127e <HAL_RCC_OscConfig+0x28e>
 800128e:	e6ee      	b.n	800106e <HAL_RCC_OscConfig+0x7e>
  FlagStatus pwrclkchanged = RESET;
 8001290:	2500      	movs	r5, #0
 8001292:	e71a      	b.n	80010ca <HAL_RCC_OscConfig+0xda>
    __HAL_RCC_LSE_CONFIG(RCC_OscInitStruct->LSEState);
 8001294:	4b07      	ldr	r3, [pc, #28]	; (80012b4 <HAL_RCC_OscConfig+0x2c4>)
        if((HAL_GetTick() - tickstart ) > RCC_LSE_TIMEOUT_VALUE)
 8001296:	f241 3888 	movw	r8, #5000	; 0x1388
    __HAL_RCC_LSE_CONFIG(RCC_OscInitStruct->LSEState);
 800129a:	6f1a      	ldr	r2, [r3, #112]	; 0x70
      while(__HAL_RCC_GET_FLAG(RCC_FLAG_LSERDY) != RESET)
 800129c:	461e      	mov	r6, r3
    __HAL_RCC_LSE_CONFIG(RCC_OscInitStruct->LSEState);
 800129e:	f022 0201 	bic.w	r2, r2, #1
 80012a2:	671a      	str	r2, [r3, #112]	; 0x70
 80012a4:	6f1a      	ldr	r2, [r3, #112]	; 0x70
 80012a6:	f022 0204 	bic.w	r2, r2, #4
 80012aa:	671a      	str	r2, [r3, #112]	; 0x70
      tickstart = HAL_GetTick();
 80012ac:	f7ff f9c0 	bl	8000630 <HAL_GetTick>
 80012b0:	4607      	mov	r7, r0
      while(__HAL_RCC_GET_FLAG(RCC_FLAG_LSERDY) != RESET)
 80012b2:	e008      	b.n	80012c6 <HAL_RCC_OscConfig+0x2d6>
 80012b4:	40023800 	.word	0x40023800
 80012b8:	40007000 	.word	0x40007000
        if((HAL_GetTick() - tickstart ) > RCC_LSE_TIMEOUT_VALUE)
 80012bc:	f7ff f9b8 	bl	8000630 <HAL_GetTick>
 80012c0:	1bc0      	subs	r0, r0, r7
 80012c2:	4540      	cmp	r0, r8
 80012c4:	d8be      	bhi.n	8001244 <HAL_RCC_OscConfig+0x254>
      while(__HAL_RCC_GET_FLAG(RCC_FLAG_LSERDY) != RESET)
 80012c6:	6f33      	ldr	r3, [r6, #112]	; 0x70
 80012c8:	0798      	lsls	r0, r3, #30
 80012ca:	d4f7      	bmi.n	80012bc <HAL_RCC_OscConfig+0x2cc>
    if(pwrclkchanged == SET)
 80012cc:	2d00      	cmp	r5, #0
 80012ce:	f43f af59 	beq.w	8001184 <HAL_RCC_OscConfig+0x194>
 80012d2:	e752      	b.n	800117a <HAL_RCC_OscConfig+0x18a>
        __HAL_RCC_HSI_DISABLE();
 80012d4:	4b2b      	ldr	r3, [pc, #172]	; (8001384 <HAL_RCC_OscConfig+0x394>)
 80012d6:	681a      	ldr	r2, [r3, #0]
        while(__HAL_RCC_GET_FLAG(RCC_FLAG_HSIRDY) != RESET)
 80012d8:	461d      	mov	r5, r3
        __HAL_RCC_HSI_DISABLE();
 80012da:	f022 0201 	bic.w	r2, r2, #1
 80012de:	601a      	str	r2, [r3, #0]
        tickstart = HAL_GetTick();
 80012e0:	f7ff f9a6 	bl	8000630 <HAL_GetTick>
 80012e4:	4606      	mov	r6, r0
        while(__HAL_RCC_GET_FLAG(RCC_FLAG_HSIRDY) != RESET)
 80012e6:	e004      	b.n	80012f2 <HAL_RCC_OscConfig+0x302>
          if((HAL_GetTick() - tickstart ) > HSI_TIMEOUT_VALUE)
 80012e8:	f7ff f9a2 	bl	8000630 <HAL_GetTick>
 80012ec:	1b80      	subs	r0, r0, r6
 80012ee:	2802      	cmp	r0, #2
 80012f0:	d8a8      	bhi.n	8001244 <HAL_RCC_OscConfig+0x254>
        while(__HAL_RCC_GET_FLAG(RCC_FLAG_HSIRDY) != RESET)
 80012f2:	682b      	ldr	r3, [r5, #0]
 80012f4:	0799      	lsls	r1, r3, #30
 80012f6:	d4f7      	bmi.n	80012e8 <HAL_RCC_OscConfig+0x2f8>
 80012f8:	6823      	ldr	r3, [r4, #0]
 80012fa:	e6bb      	b.n	8001074 <HAL_RCC_OscConfig+0x84>
      __HAL_RCC_HSE_CONFIG(RCC_OscInitStruct->HSEState);
 80012fc:	f442 2280 	orr.w	r2, r2, #262144	; 0x40000
 8001300:	601a      	str	r2, [r3, #0]
 8001302:	681a      	ldr	r2, [r3, #0]
 8001304:	f442 3280 	orr.w	r2, r2, #65536	; 0x10000
 8001308:	601a      	str	r2, [r3, #0]
 800130a:	e6a2      	b.n	8001052 <HAL_RCC_OscConfig+0x62>
    __HAL_RCC_LSE_CONFIG(RCC_OscInitStruct->LSEState);
 800130c:	f042 0204 	orr.w	r2, r2, #4
 8001310:	671a      	str	r2, [r3, #112]	; 0x70
 8001312:	6f1a      	ldr	r2, [r3, #112]	; 0x70
 8001314:	f042 0201 	orr.w	r2, r2, #1
 8001318:	671a      	str	r2, [r3, #112]	; 0x70
 800131a:	e71d      	b.n	8001158 <HAL_RCC_OscConfig+0x168>
        __HAL_RCC_PLL_DISABLE();
 800131c:	f023 7380 	bic.w	r3, r3, #16777216	; 0x1000000
        while(__HAL_RCC_GET_FLAG(RCC_FLAG_PLLRDY) != RESET)
 8001320:	4615      	mov	r5, r2
        __HAL_RCC_PLL_DISABLE();
 8001322:	6013      	str	r3, [r2, #0]
        tickstart = HAL_GetTick();
 8001324:	f7ff f984 	bl	8000630 <HAL_GetTick>
 8001328:	4606      	mov	r6, r0
        while(__HAL_RCC_GET_FLAG(RCC_FLAG_PLLRDY) != RESET)
 800132a:	e004      	b.n	8001336 <HAL_RCC_OscConfig+0x346>
          if((HAL_GetTick() - tickstart ) > PLL_TIMEOUT_VALUE)
 800132c:	f7ff f980 	bl	8000630 <HAL_GetTick>
 8001330:	1b80      	subs	r0, r0, r6
 8001332:	2802      	cmp	r0, #2
 8001334:	d886      	bhi.n	8001244 <HAL_RCC_OscConfig+0x254>
        while(__HAL_RCC_GET_FLAG(RCC_FLAG_PLLRDY) != RESET)
 8001336:	682b      	ldr	r3, [r5, #0]
 8001338:	0199      	lsls	r1, r3, #6
 800133a:	d4f7      	bmi.n	800132c <HAL_RCC_OscConfig+0x33c>
        __HAL_RCC_PLL_CONFIG(RCC_OscInitStruct->PLL.PLLSource,
 800133c:	e9d4 3207 	ldrd	r3, r2, [r4, #28]
 8001340:	6a60      	ldr	r0, [r4, #36]	; 0x24
 8001342:	4313      	orrs	r3, r2
 8001344:	e9d4 210a 	ldrd	r2, r1, [r4, #40]	; 0x28
 8001348:	f043 5300 	orr.w	r3, r3, #536870912	; 0x20000000
        while(__HAL_RCC_GET_FLAG(RCC_FLAG_PLLRDY) == RESET)
 800134c:	4c0d      	ldr	r4, [pc, #52]	; (8001384 <HAL_RCC_OscConfig+0x394>)
        __HAL_RCC_PLL_CONFIG(RCC_OscInitStruct->PLL.PLLSource,
 800134e:	0852      	lsrs	r2, r2, #1
 8001350:	ea43 1380 	orr.w	r3, r3, r0, lsl #6
 8001354:	3a01      	subs	r2, #1
 8001356:	ea43 6301 	orr.w	r3, r3, r1, lsl #24
 800135a:	ea43 4302 	orr.w	r3, r3, r2, lsl #16
 800135e:	606b      	str	r3, [r5, #4]
        __HAL_RCC_PLL_ENABLE();
 8001360:	682b      	ldr	r3, [r5, #0]
 8001362:	f043 7380 	orr.w	r3, r3, #16777216	; 0x1000000
 8001366:	602b      	str	r3, [r5, #0]
        tickstart = HAL_GetTick();
 8001368:	f7ff f962 	bl	8000630 <HAL_GetTick>
 800136c:	4605      	mov	r5, r0
        while(__HAL_RCC_GET_FLAG(RCC_FLAG_PLLRDY) == RESET)
 800136e:	e005      	b.n	800137c <HAL_RCC_OscConfig+0x38c>
          if((HAL_GetTick() - tickstart ) > PLL_TIMEOUT_VALUE)
 8001370:	f7ff f95e 	bl	8000630 <HAL_GetTick>
 8001374:	1b40      	subs	r0, r0, r5
 8001376:	2802      	cmp	r0, #2
 8001378:	f63f af64 	bhi.w	8001244 <HAL_RCC_OscConfig+0x254>
        while(__HAL_RCC_GET_FLAG(RCC_FLAG_PLLRDY) == RESET)
 800137c:	6823      	ldr	r3, [r4, #0]
 800137e:	019a      	lsls	r2, r3, #6
 8001380:	d5f6      	bpl.n	8001370 <HAL_RCC_OscConfig+0x380>
 8001382:	e71b      	b.n	80011bc <HAL_RCC_OscConfig+0x1cc>
 8001384:	40023800 	.word	0x40023800

08001388 <HAL_RCC_GetSysClockFreq>:
{
  uint32_t pllm = 0, pllvco = 0, pllp = 0;
  uint32_t sysclockfreq = 0;

  /* Get SYSCLK source -------------------------------------------------------*/
  switch (RCC->CFGR & RCC_CFGR_SWS)
 8001388:	4916      	ldr	r1, [pc, #88]	; (80013e4 <HAL_RCC_GetSysClockFreq+0x5c>)
{
 800138a:	b508      	push	{r3, lr}
  switch (RCC->CFGR & RCC_CFGR_SWS)
 800138c:	688b      	ldr	r3, [r1, #8]
 800138e:	f003 030c 	and.w	r3, r3, #12
 8001392:	2b04      	cmp	r3, #4
 8001394:	d01b      	beq.n	80013ce <HAL_RCC_GetSysClockFreq+0x46>
 8001396:	2b08      	cmp	r3, #8
 8001398:	d117      	bne.n	80013ca <HAL_RCC_GetSysClockFreq+0x42>
    }
    case RCC_SYSCLKSOURCE_STATUS_PLLCLK:  /* PLL used as system clock  source */
    {
      /* PLL_VCO = (HSE_VALUE or HSI_VALUE / PLLM) * PLLN
      SYSCLK = PLL_VCO / PLLP */
      pllm = RCC->PLLCFGR & RCC_PLLCFGR_PLLM;
 800139a:	684a      	ldr	r2, [r1, #4]
      if (__HAL_RCC_GET_PLL_OSCSOURCE() != RCC_PLLCFGR_PLLSRC_HSI)
 800139c:	684b      	ldr	r3, [r1, #4]
      pllm = RCC->PLLCFGR & RCC_PLLCFGR_PLLM;
 800139e:	f002 023f 	and.w	r2, r2, #63	; 0x3f
      {
        /* HSE used as PLL clock source */
        pllvco = (uint32_t) ((((uint64_t) HSE_VALUE * ((uint64_t) ((RCC->PLLCFGR & RCC_PLLCFGR_PLLN) >> RCC_PLLCFGR_PLLN_Pos)))) / (uint64_t)pllm);
 80013a2:	6849      	ldr	r1, [r1, #4]
      if (__HAL_RCC_GET_PLL_OSCSOURCE() != RCC_PLLCFGR_PLLSRC_HSI)
 80013a4:	f413 0380 	ands.w	r3, r3, #4194304	; 0x400000
 80013a8:	d113      	bne.n	80013d2 <HAL_RCC_GetSysClockFreq+0x4a>
      }
      else
      {
        /* HSI used as PLL clock source */
        pllvco = (uint32_t) ((((uint64_t) HSI_VALUE * ((uint64_t) ((RCC->PLLCFGR & RCC_PLLCFGR_PLLN) >> RCC_PLLCFGR_PLLN_Pos)))) / (uint64_t)pllm);
 80013aa:	480f      	ldr	r0, [pc, #60]	; (80013e8 <HAL_RCC_GetSysClockFreq+0x60>)
 80013ac:	f3c1 1188 	ubfx	r1, r1, #6, #9
 80013b0:	fba1 0100 	umull	r0, r1, r1, r0
 80013b4:	f7fe ff84 	bl	80002c0 <__aeabi_uldivmod>
      }
      pllp = ((((RCC->PLLCFGR & RCC_PLLCFGR_PLLP) >> RCC_PLLCFGR_PLLP_Pos) + 1 ) *2);
 80013b8:	4b0a      	ldr	r3, [pc, #40]	; (80013e4 <HAL_RCC_GetSysClockFreq+0x5c>)
 80013ba:	685b      	ldr	r3, [r3, #4]
 80013bc:	f3c3 4301 	ubfx	r3, r3, #16, #2
 80013c0:	3301      	adds	r3, #1
 80013c2:	005b      	lsls	r3, r3, #1

      sysclockfreq = pllvco/pllp;
 80013c4:	fbb0 f0f3 	udiv	r0, r0, r3
      sysclockfreq = HSI_VALUE;
      break;
    }
  }
  return sysclockfreq;
}
 80013c8:	bd08      	pop	{r3, pc}
      sysclockfreq = HSI_VALUE;
 80013ca:	4807      	ldr	r0, [pc, #28]	; (80013e8 <HAL_RCC_GetSysClockFreq+0x60>)
}
 80013cc:	bd08      	pop	{r3, pc}
      sysclockfreq = HSE_VALUE;
 80013ce:	4807      	ldr	r0, [pc, #28]	; (80013ec <HAL_RCC_GetSysClockFreq+0x64>)
}
 80013d0:	bd08      	pop	{r3, pc}
        pllvco = (uint32_t) ((((uint64_t) HSE_VALUE * ((uint64_t) ((RCC->PLLCFGR & RCC_PLLCFGR_PLLN) >> RCC_PLLCFGR_PLLN_Pos)))) / (uint64_t)pllm);
 80013d2:	4806      	ldr	r0, [pc, #24]	; (80013ec <HAL_RCC_GetSysClockFreq+0x64>)
 80013d4:	f3c1 1188 	ubfx	r1, r1, #6, #9
 80013d8:	2300      	movs	r3, #0
 80013da:	fba1 0100 	umull	r0, r1, r1, r0
 80013de:	f7fe ff6f 	bl	80002c0 <__aeabi_uldivmod>
 80013e2:	e7e9      	b.n	80013b8 <HAL_RCC_GetSysClockFreq+0x30>
 80013e4:	40023800 	.word	0x40023800
 80013e8:	00f42400 	.word	0x00f42400
 80013ec:	017d7840 	.word	0x017d7840

080013f0 <HAL_RCC_ClockConfig>:
  if(RCC_ClkInitStruct == NULL)
 80013f0:	b178      	cbz	r0, 8001412 <HAL_RCC_ClockConfig+0x22>
  if(FLatency > __HAL_FLASH_GET_LATENCY())
 80013f2:	4a4a      	ldr	r2, [pc, #296]	; (800151c <HAL_RCC_ClockConfig+0x12c>)
 80013f4:	6813      	ldr	r3, [r2, #0]
 80013f6:	f003 030f 	and.w	r3, r3, #15
 80013fa:	428b      	cmp	r3, r1
 80013fc:	d20b      	bcs.n	8001416 <HAL_RCC_ClockConfig+0x26>
    __HAL_FLASH_SET_LATENCY(FLatency);
 80013fe:	6813      	ldr	r3, [r2, #0]
 8001400:	f023 030f 	bic.w	r3, r3, #15
 8001404:	430b      	orrs	r3, r1
 8001406:	6013      	str	r3, [r2, #0]
    if(__HAL_FLASH_GET_LATENCY() != FLatency)
 8001408:	6813      	ldr	r3, [r2, #0]
 800140a:	f003 030f 	and.w	r3, r3, #15
 800140e:	428b      	cmp	r3, r1
 8001410:	d001      	beq.n	8001416 <HAL_RCC_ClockConfig+0x26>
    return HAL_ERROR;
 8001412:	2001      	movs	r0, #1
}
 8001414:	4770      	bx	lr
  if(((RCC_ClkInitStruct->ClockType) & RCC_CLOCKTYPE_HCLK) == RCC_CLOCKTYPE_HCLK)
 8001416:	6803      	ldr	r3, [r0, #0]
{
 8001418:	e92d 41f0 	stmdb	sp!, {r4, r5, r6, r7, r8, lr}
  if(((RCC_ClkInitStruct->ClockType) & RCC_CLOCKTYPE_HCLK) == RCC_CLOCKTYPE_HCLK)
 800141c:	079d      	lsls	r5, r3, #30
 800141e:	d514      	bpl.n	800144a <HAL_RCC_ClockConfig+0x5a>
    if(((RCC_ClkInitStruct->ClockType) & RCC_CLOCKTYPE_PCLK1) == RCC_CLOCKTYPE_PCLK1)
 8001420:	075c      	lsls	r4, r3, #29
 8001422:	d504      	bpl.n	800142e <HAL_RCC_ClockConfig+0x3e>
      MODIFY_REG(RCC->CFGR, RCC_CFGR_PPRE1, RCC_HCLK_DIV16);
 8001424:	4c3e      	ldr	r4, [pc, #248]	; (8001520 <HAL_RCC_ClockConfig+0x130>)
 8001426:	68a2      	ldr	r2, [r4, #8]
 8001428:	f442 52e0 	orr.w	r2, r2, #7168	; 0x1c00
 800142c:	60a2      	str	r2, [r4, #8]
    if(((RCC_ClkInitStruct->ClockType) & RCC_CLOCKTYPE_PCLK2) == RCC_CLOCKTYPE_PCLK2)
 800142e:	071a      	lsls	r2, r3, #28
 8001430:	d504      	bpl.n	800143c <HAL_RCC_ClockConfig+0x4c>
      MODIFY_REG(RCC->CFGR, RCC_CFGR_PPRE2, (RCC_HCLK_DIV16 << 3));
 8001432:	4c3b      	ldr	r4, [pc, #236]	; (8001520 <HAL_RCC_ClockConfig+0x130>)
 8001434:	68a2      	ldr	r2, [r4, #8]
 8001436:	f442 4260 	orr.w	r2, r2, #57344	; 0xe000
 800143a:	60a2      	str	r2, [r4, #8]
    MODIFY_REG(RCC->CFGR, RCC_CFGR_HPRE, RCC_ClkInitStruct->AHBCLKDivider);
 800143c:	4c38      	ldr	r4, [pc, #224]	; (8001520 <HAL_RCC_ClockConfig+0x130>)
 800143e:	6885      	ldr	r5, [r0, #8]
 8001440:	68a2      	ldr	r2, [r4, #8]
 8001442:	f022 02f0 	bic.w	r2, r2, #240	; 0xf0
 8001446:	432a      	orrs	r2, r5
 8001448:	60a2      	str	r2, [r4, #8]
  if(((RCC_ClkInitStruct->ClockType) & RCC_CLOCKTYPE_SYSCLK) == RCC_CLOCKTYPE_SYSCLK)
 800144a:	07df      	lsls	r7, r3, #31
 800144c:	4604      	mov	r4, r0
 800144e:	460d      	mov	r5, r1
 8001450:	d521      	bpl.n	8001496 <HAL_RCC_ClockConfig+0xa6>
    if(RCC_ClkInitStruct->SYSCLKSource == RCC_SYSCLKSOURCE_HSE)
 8001452:	6842      	ldr	r2, [r0, #4]
      if(__HAL_RCC_GET_FLAG(RCC_FLAG_HSERDY) == RESET)
 8001454:	4b32      	ldr	r3, [pc, #200]	; (8001520 <HAL_RCC_ClockConfig+0x130>)
    if(RCC_ClkInitStruct->SYSCLKSource == RCC_SYSCLKSOURCE_HSE)
 8001456:	2a01      	cmp	r2, #1
      if(__HAL_RCC_GET_FLAG(RCC_FLAG_HSERDY) == RESET)
 8001458:	681b      	ldr	r3, [r3, #0]
    if(RCC_ClkInitStruct->SYSCLKSource == RCC_SYSCLKSOURCE_HSE)
 800145a:	d056      	beq.n	800150a <HAL_RCC_ClockConfig+0x11a>
    else if(RCC_ClkInitStruct->SYSCLKSource == RCC_SYSCLKSOURCE_PLLCLK)
 800145c:	2a02      	cmp	r2, #2
 800145e:	d059      	beq.n	8001514 <HAL_RCC_ClockConfig+0x124>
      if(__HAL_RCC_GET_FLAG(RCC_FLAG_HSIRDY) == RESET)
 8001460:	0799      	lsls	r1, r3, #30
 8001462:	d528      	bpl.n	80014b6 <HAL_RCC_ClockConfig+0xc6>
    __HAL_RCC_SYSCLK_CONFIG(RCC_ClkInitStruct->SYSCLKSource);
 8001464:	492e      	ldr	r1, [pc, #184]	; (8001520 <HAL_RCC_ClockConfig+0x130>)
      if ((HAL_GetTick() - tickstart) > CLOCKSWITCH_TIMEOUT_VALUE)
 8001466:	f241 3888 	movw	r8, #5000	; 0x1388
    __HAL_RCC_SYSCLK_CONFIG(RCC_ClkInitStruct->SYSCLKSource);
 800146a:	688b      	ldr	r3, [r1, #8]
    while (__HAL_RCC_GET_SYSCLK_SOURCE() != (RCC_ClkInitStruct->SYSCLKSource << RCC_CFGR_SWS_Pos))
 800146c:	460e      	mov	r6, r1
    __HAL_RCC_SYSCLK_CONFIG(RCC_ClkInitStruct->SYSCLKSource);
 800146e:	f023 0303 	bic.w	r3, r3, #3
 8001472:	4313      	orrs	r3, r2
 8001474:	608b      	str	r3, [r1, #8]
    tickstart = HAL_GetTick();
 8001476:	f7ff f8db 	bl	8000630 <HAL_GetTick>
 800147a:	4607      	mov	r7, r0
    while (__HAL_RCC_GET_SYSCLK_SOURCE() != (RCC_ClkInitStruct->SYSCLKSource << RCC_CFGR_SWS_Pos))
 800147c:	e004      	b.n	8001488 <HAL_RCC_ClockConfig+0x98>
      if ((HAL_GetTick() - tickstart) > CLOCKSWITCH_TIMEOUT_VALUE)
 800147e:	f7ff f8d7 	bl	8000630 <HAL_GetTick>
 8001482:	1bc0      	subs	r0, r0, r7
 8001484:	4540      	cmp	r0, r8
 8001486:	d843      	bhi.n	8001510 <HAL_RCC_ClockConfig+0x120>
    while (__HAL_RCC_GET_SYSCLK_SOURCE() != (RCC_ClkInitStruct->SYSCLKSource << RCC_CFGR_SWS_Pos))
 8001488:	68b3      	ldr	r3, [r6, #8]
 800148a:	6862      	ldr	r2, [r4, #4]
 800148c:	f003 030c 	and.w	r3, r3, #12
 8001490:	ebb3 0f82 	cmp.w	r3, r2, lsl #2
 8001494:	d1f3      	bne.n	800147e <HAL_RCC_ClockConfig+0x8e>
  if(FLatency < __HAL_FLASH_GET_LATENCY())
 8001496:	4a21      	ldr	r2, [pc, #132]	; (800151c <HAL_RCC_ClockConfig+0x12c>)
 8001498:	6813      	ldr	r3, [r2, #0]
 800149a:	f003 030f 	and.w	r3, r3, #15
 800149e:	42ab      	cmp	r3, r5
 80014a0:	d90c      	bls.n	80014bc <HAL_RCC_ClockConfig+0xcc>
    __HAL_FLASH_SET_LATENCY(FLatency);
 80014a2:	6813      	ldr	r3, [r2, #0]
 80014a4:	f023 030f 	bic.w	r3, r3, #15
 80014a8:	432b      	orrs	r3, r5
 80014aa:	6013      	str	r3, [r2, #0]
    if(__HAL_FLASH_GET_LATENCY() != FLatency)
 80014ac:	6813      	ldr	r3, [r2, #0]
 80014ae:	f003 030f 	and.w	r3, r3, #15
 80014b2:	42ab      	cmp	r3, r5
 80014b4:	d002      	beq.n	80014bc <HAL_RCC_ClockConfig+0xcc>
    return HAL_ERROR;
 80014b6:	2001      	movs	r0, #1
}
 80014b8:	e8bd 81f0 	ldmia.w	sp!, {r4, r5, r6, r7, r8, pc}
  if(((RCC_ClkInitStruct->ClockType) & RCC_CLOCKTYPE_PCLK1) == RCC_CLOCKTYPE_PCLK1)
 80014bc:	6823      	ldr	r3, [r4, #0]
 80014be:	075a      	lsls	r2, r3, #29
 80014c0:	d506      	bpl.n	80014d0 <HAL_RCC_ClockConfig+0xe0>
    MODIFY_REG(RCC->CFGR, RCC_CFGR_PPRE1, RCC_ClkInitStruct->APB1CLKDivider);
 80014c2:	4917      	ldr	r1, [pc, #92]	; (8001520 <HAL_RCC_ClockConfig+0x130>)
 80014c4:	68e0      	ldr	r0, [r4, #12]
 80014c6:	688a      	ldr	r2, [r1, #8]
 80014c8:	f422 52e0 	bic.w	r2, r2, #7168	; 0x1c00
 80014cc:	4302      	orrs	r2, r0
 80014ce:	608a      	str	r2, [r1, #8]
  if(((RCC_ClkInitStruct->ClockType) & RCC_CLOCKTYPE_PCLK2) == RCC_CLOCKTYPE_PCLK2)
 80014d0:	071b      	lsls	r3, r3, #28
 80014d2:	d411      	bmi.n	80014f8 <HAL_RCC_ClockConfig+0x108>
  SystemCoreClock = HAL_RCC_GetSysClockFreq() >> AHBPrescTable[(RCC->CFGR & RCC_CFGR_HPRE)>> RCC_CFGR_HPRE_Pos];
 80014d4:	f7ff ff58 	bl	8001388 <HAL_RCC_GetSysClockFreq>
 80014d8:	4b11      	ldr	r3, [pc, #68]	; (8001520 <HAL_RCC_ClockConfig+0x130>)
 80014da:	4912      	ldr	r1, [pc, #72]	; (8001524 <HAL_RCC_ClockConfig+0x134>)
 80014dc:	689b      	ldr	r3, [r3, #8]
 80014de:	4a12      	ldr	r2, [pc, #72]	; (8001528 <HAL_RCC_ClockConfig+0x138>)
 80014e0:	f3c3 1303 	ubfx	r3, r3, #4, #4
 80014e4:	5ccb      	ldrb	r3, [r1, r3]
 80014e6:	fa20 f303 	lsr.w	r3, r0, r3
  HAL_InitTick (TICK_INT_PRIORITY);
 80014ea:	2000      	movs	r0, #0
  SystemCoreClock = HAL_RCC_GetSysClockFreq() >> AHBPrescTable[(RCC->CFGR & RCC_CFGR_HPRE)>> RCC_CFGR_HPRE_Pos];
 80014ec:	6013      	str	r3, [r2, #0]
  HAL_InitTick (TICK_INT_PRIORITY);
 80014ee:	f7ff f867 	bl	80005c0 <HAL_InitTick>
  return HAL_OK;
 80014f2:	2000      	movs	r0, #0
}
 80014f4:	e8bd 81f0 	ldmia.w	sp!, {r4, r5, r6, r7, r8, pc}
    MODIFY_REG(RCC->CFGR, RCC_CFGR_PPRE2, ((RCC_ClkInitStruct->APB2CLKDivider) << 3));
 80014f8:	4a09      	ldr	r2, [pc, #36]	; (8001520 <HAL_RCC_ClockConfig+0x130>)
 80014fa:	6921      	ldr	r1, [r4, #16]
 80014fc:	6893      	ldr	r3, [r2, #8]
 80014fe:	f423 4360 	bic.w	r3, r3, #57344	; 0xe000
 8001502:	ea43 03c1 	orr.w	r3, r3, r1, lsl #3
 8001506:	6093      	str	r3, [r2, #8]
 8001508:	e7e4      	b.n	80014d4 <HAL_RCC_ClockConfig+0xe4>
      if(__HAL_RCC_GET_FLAG(RCC_FLAG_HSERDY) == RESET)
 800150a:	039e      	lsls	r6, r3, #14
 800150c:	d4aa      	bmi.n	8001464 <HAL_RCC_ClockConfig+0x74>
 800150e:	e7d2      	b.n	80014b6 <HAL_RCC_ClockConfig+0xc6>
        return HAL_TIMEOUT;
 8001510:	2003      	movs	r0, #3
 8001512:	e7ef      	b.n	80014f4 <HAL_RCC_ClockConfig+0x104>
      if(__HAL_RCC_GET_FLAG(RCC_FLAG_PLLRDY) == RESET)
 8001514:	0198      	lsls	r0, r3, #6
 8001516:	d4a5      	bmi.n	8001464 <HAL_RCC_ClockConfig+0x74>
 8001518:	e7cd      	b.n	80014b6 <HAL_RCC_ClockConfig+0xc6>
 800151a:	bf00      	nop
 800151c:	40023c00 	.word	0x40023c00
 8001520:	40023800 	.word	0x40023800
 8001524:	08006b40 	.word	0x08006b40
 8001528:	20000008 	.word	0x20000008

0800152c <HAL_RCC_GetPCLK1Freq>:
  * @retval PCLK1 frequency
  */
uint32_t HAL_RCC_GetPCLK1Freq(void)
{
  /* Get HCLK source and Compute PCLK1 frequency ---------------------------*/
  return (HAL_RCC_GetHCLKFreq() >> APBPrescTable[(RCC->CFGR & RCC_CFGR_PPRE1)>> RCC_CFGR_PPRE1_Pos]);
 800152c:	4b04      	ldr	r3, [pc, #16]	; (8001540 <HAL_RCC_GetPCLK1Freq+0x14>)
 800152e:	4a05      	ldr	r2, [pc, #20]	; (8001544 <HAL_RCC_GetPCLK1Freq+0x18>)
 8001530:	689b      	ldr	r3, [r3, #8]
  return SystemCoreClock;
 8001532:	4905      	ldr	r1, [pc, #20]	; (8001548 <HAL_RCC_GetPCLK1Freq+0x1c>)
  return (HAL_RCC_GetHCLKFreq() >> APBPrescTable[(RCC->CFGR & RCC_CFGR_PPRE1)>> RCC_CFGR_PPRE1_Pos]);
 8001534:	f3c3 2382 	ubfx	r3, r3, #10, #3
 8001538:	6808      	ldr	r0, [r1, #0]
 800153a:	5cd3      	ldrb	r3, [r2, r3]
}
 800153c:	40d8      	lsrs	r0, r3
 800153e:	4770      	bx	lr
 8001540:	40023800 	.word	0x40023800
 8001544:	08006b50 	.word	0x08006b50
 8001548:	20000008 	.word	0x20000008

0800154c <HAL_RCC_GetPCLK2Freq>:
  * @retval PCLK2 frequency
  */
uint32_t HAL_RCC_GetPCLK2Freq(void)
{
  /* Get HCLK source and Compute PCLK2 frequency ---------------------------*/
  return (HAL_RCC_GetHCLKFreq()>> APBPrescTable[(RCC->CFGR & RCC_CFGR_PPRE2)>> RCC_CFGR_PPRE2_Pos]);
 800154c:	4b04      	ldr	r3, [pc, #16]	; (8001560 <HAL_RCC_GetPCLK2Freq+0x14>)
 800154e:	4a05      	ldr	r2, [pc, #20]	; (8001564 <HAL_RCC_GetPCLK2Freq+0x18>)
 8001550:	689b      	ldr	r3, [r3, #8]
  return SystemCoreClock;
 8001552:	4905      	ldr	r1, [pc, #20]	; (8001568 <HAL_RCC_GetPCLK2Freq+0x1c>)
  return (HAL_RCC_GetHCLKFreq()>> APBPrescTable[(RCC->CFGR & RCC_CFGR_PPRE2)>> RCC_CFGR_PPRE2_Pos]);
 8001554:	f3c3 3342 	ubfx	r3, r3, #13, #3
 8001558:	6808      	ldr	r0, [r1, #0]
 800155a:	5cd3      	ldrb	r3, [r2, r3]
}
 800155c:	40d8      	lsrs	r0, r3
 800155e:	4770      	bx	lr
 8001560:	40023800 	.word	0x40023800
 8001564:	08006b50 	.word	0x08006b50
 8001568:	20000008 	.word	0x20000008

0800156c <HAL_RCCEx_PeriphCLKConfig>:

  /* Check the parameters */
  assert_param(IS_RCC_PERIPHCLOCK(PeriphClkInit->PeriphClockSelection));

  /*----------------------------------- I2S configuration ----------------------------------*/
  if(((PeriphClkInit->PeriphClockSelection) & RCC_PERIPHCLK_I2S) == (RCC_PERIPHCLK_I2S))
 800156c:	6803      	ldr	r3, [r0, #0]
{
 800156e:	e92d 43f0 	stmdb	sp!, {r4, r5, r6, r7, r8, r9, lr}
  if(((PeriphClkInit->PeriphClockSelection) & RCC_PERIPHCLK_I2S) == (RCC_PERIPHCLK_I2S))
 8001572:	f013 0601 	ands.w	r6, r3, #1
{
 8001576:	b083      	sub	sp, #12
 8001578:	4604      	mov	r4, r0
  if(((PeriphClkInit->PeriphClockSelection) & RCC_PERIPHCLK_I2S) == (RCC_PERIPHCLK_I2S))
 800157a:	d00b      	beq.n	8001594 <HAL_RCCEx_PeriphCLKConfig+0x28>
  {
    /* Check the parameters */
    assert_param(IS_RCC_I2SCLKSOURCE(PeriphClkInit->I2sClockSelection));

    /* Configure I2S Clock source */
    __HAL_RCC_I2S_CONFIG(PeriphClkInit->I2sClockSelection);
 800157c:	4ab8      	ldr	r2, [pc, #736]	; (8001860 <HAL_RCCEx_PeriphCLKConfig+0x2f4>)
 800157e:	6891      	ldr	r1, [r2, #8]
 8001580:	f421 0100 	bic.w	r1, r1, #8388608	; 0x800000
 8001584:	6091      	str	r1, [r2, #8]
 8001586:	6b46      	ldr	r6, [r0, #52]	; 0x34
 8001588:	6891      	ldr	r1, [r2, #8]
 800158a:	4331      	orrs	r1, r6

    /* Enable the PLLI2S when it's used as clock source for I2S */
    if(PeriphClkInit->I2sClockSelection == RCC_I2SCLKSOURCE_PLLI2S)
 800158c:	fab6 f686 	clz	r6, r6
 8001590:	0976      	lsrs	r6, r6, #5
    __HAL_RCC_I2S_CONFIG(PeriphClkInit->I2sClockSelection);
 8001592:	6091      	str	r1, [r2, #8]
      plli2sused = 1;
    }
  }

  /*------------------------------------ SAI1 configuration --------------------------------------*/
  if(((PeriphClkInit->PeriphClockSelection) & RCC_PERIPHCLK_SAI1) == (RCC_PERIPHCLK_SAI1))
 8001594:	f413 2500 	ands.w	r5, r3, #524288	; 0x80000
 8001598:	d010      	beq.n	80015bc <HAL_RCCEx_PeriphCLKConfig+0x50>
  {
    /* Check the parameters */
    assert_param(IS_RCC_SAI1CLKSOURCE(PeriphClkInit->Sai1ClockSelection));

    /* Configure SAI1 Clock source */
    __HAL_RCC_SAI1_CONFIG(PeriphClkInit->Sai1ClockSelection);
 800159a:	49b1      	ldr	r1, [pc, #708]	; (8001860 <HAL_RCCEx_PeriphCLKConfig+0x2f4>)
 800159c:	6be5      	ldr	r5, [r4, #60]	; 0x3c
 800159e:	f8d1 208c 	ldr.w	r2, [r1, #140]	; 0x8c
    /* Enable the PLLI2S when it's used as clock source for SAI */
    if(PeriphClkInit->Sai1ClockSelection == RCC_SAI1CLKSOURCE_PLLI2S)
 80015a2:	f5b5 1f80 	cmp.w	r5, #1048576	; 0x100000
    __HAL_RCC_SAI1_CONFIG(PeriphClkInit->Sai1ClockSelection);
 80015a6:	f422 1240 	bic.w	r2, r2, #3145728	; 0x300000
 80015aa:	ea42 0205 	orr.w	r2, r2, r5
 80015ae:	f8c1 208c 	str.w	r2, [r1, #140]	; 0x8c
    if(PeriphClkInit->Sai1ClockSelection == RCC_SAI1CLKSOURCE_PLLI2S)
 80015b2:	f000 81b0 	beq.w	8001916 <HAL_RCCEx_PeriphCLKConfig+0x3aa>
    {
      plli2sused = 1;
    }
    /* Enable the PLLSAI when it's used as clock source for SAI */
    if(PeriphClkInit->Sai1ClockSelection == RCC_SAI1CLKSOURCE_PLLSAI)
 80015b6:	fab5 f585 	clz	r5, r5
 80015ba:	096d      	lsrs	r5, r5, #5
      pllsaiused = 1;
    }
  }

  /*------------------------------------ SAI2 configuration --------------------------------------*/
  if(((PeriphClkInit->PeriphClockSelection) & RCC_PERIPHCLK_SAI2) == (RCC_PERIPHCLK_SAI2))
 80015bc:	02d9      	lsls	r1, r3, #11
 80015be:	d510      	bpl.n	80015e2 <HAL_RCCEx_PeriphCLKConfig+0x76>
  {
    /* Check the parameters */
    assert_param(IS_RCC_SAI2CLKSOURCE(PeriphClkInit->Sai2ClockSelection));

    /* Configure SAI2 Clock source */
    __HAL_RCC_SAI2_CONFIG(PeriphClkInit->Sai2ClockSelection);
 80015c0:	48a7      	ldr	r0, [pc, #668]	; (8001860 <HAL_RCCEx_PeriphCLKConfig+0x2f4>)
 80015c2:	6c21      	ldr	r1, [r4, #64]	; 0x40
 80015c4:	f8d0 208c 	ldr.w	r2, [r0, #140]	; 0x8c

    /* Enable the PLLI2S when it's used as clock source for SAI */
    if(PeriphClkInit->Sai2ClockSelection == RCC_SAI2CLKSOURCE_PLLI2S)
 80015c8:	f5b1 0f80 	cmp.w	r1, #4194304	; 0x400000
    __HAL_RCC_SAI2_CONFIG(PeriphClkInit->Sai2ClockSelection);
 80015cc:	f422 0240 	bic.w	r2, r2, #12582912	; 0xc00000
 80015d0:	ea42 0201 	orr.w	r2, r2, r1
 80015d4:	f8c0 208c 	str.w	r2, [r0, #140]	; 0x8c
    if(PeriphClkInit->Sai2ClockSelection == RCC_SAI2CLKSOURCE_PLLI2S)
 80015d8:	f000 819b 	beq.w	8001912 <HAL_RCCEx_PeriphCLKConfig+0x3a6>
      plli2sused = 1;
    }
    /* Enable the PLLSAI when it's used as clock source for SAI */
    if(PeriphClkInit->Sai2ClockSelection == RCC_SAI2CLKSOURCE_PLLSAI)
    {
      pllsaiused = 1;
 80015dc:	2900      	cmp	r1, #0
 80015de:	bf08      	it	eq
 80015e0:	2501      	moveq	r5, #1
  }

  /*-------------------------------------- SPDIF-RX Configuration -----------------------------------*/
  if(((PeriphClkInit->PeriphClockSelection) & RCC_PERIPHCLK_SPDIFRX) == RCC_PERIPHCLK_SPDIFRX)
  {
      plli2sused = 1;
 80015e2:	f013 7f80 	tst.w	r3, #16777216	; 0x1000000
 80015e6:	bf18      	it	ne
 80015e8:	2601      	movne	r6, #1
  }

  /*------------------------------------ RTC configuration --------------------------------------*/
  if(((PeriphClkInit->PeriphClockSelection) & RCC_PERIPHCLK_RTC) == (RCC_PERIPHCLK_RTC))
 80015ea:	069a      	lsls	r2, r3, #26
 80015ec:	f100 8149 	bmi.w	8001882 <HAL_RCCEx_PeriphCLKConfig+0x316>
    }
    __HAL_RCC_RTC_CONFIG(PeriphClkInit->RTCClockSelection);
  }

  /*------------------------------------ TIM configuration --------------------------------------*/
  if(((PeriphClkInit->PeriphClockSelection) & RCC_PERIPHCLK_TIM) == (RCC_PERIPHCLK_TIM))
 80015f0:	06d9      	lsls	r1, r3, #27
 80015f2:	d50c      	bpl.n	800160e <HAL_RCCEx_PeriphCLKConfig+0xa2>
  {
    /* Check the parameters */
    assert_param(IS_RCC_TIMPRES(PeriphClkInit->TIMPresSelection));

    /* Configure Timer Prescaler */
    __HAL_RCC_TIMCLKPRESCALER(PeriphClkInit->TIMPresSelection);
 80015f4:	4a9a      	ldr	r2, [pc, #616]	; (8001860 <HAL_RCCEx_PeriphCLKConfig+0x2f4>)
 80015f6:	f8d2 108c 	ldr.w	r1, [r2, #140]	; 0x8c
 80015fa:	f021 7180 	bic.w	r1, r1, #16777216	; 0x1000000
 80015fe:	f8c2 108c 	str.w	r1, [r2, #140]	; 0x8c
 8001602:	f8d2 108c 	ldr.w	r1, [r2, #140]	; 0x8c
 8001606:	6ba0      	ldr	r0, [r4, #56]	; 0x38
 8001608:	4301      	orrs	r1, r0
 800160a:	f8c2 108c 	str.w	r1, [r2, #140]	; 0x8c
  }

  /*-------------------------------------- I2C1 Configuration -----------------------------------*/
  if(((PeriphClkInit->PeriphClockSelection) & RCC_PERIPHCLK_I2C1) == RCC_PERIPHCLK_I2C1)
 800160e:	045a      	lsls	r2, r3, #17
 8001610:	d508      	bpl.n	8001624 <HAL_RCCEx_PeriphCLKConfig+0xb8>
  {
    /* Check the parameters */
    assert_param(IS_RCC_I2C1CLKSOURCE(PeriphClkInit->I2c1ClockSelection));

    /* Configure the I2C1 clock source */
    __HAL_RCC_I2C1_CONFIG(PeriphClkInit->I2c1ClockSelection);
 8001612:	4993      	ldr	r1, [pc, #588]	; (8001860 <HAL_RCCEx_PeriphCLKConfig+0x2f4>)
 8001614:	6e60      	ldr	r0, [r4, #100]	; 0x64
 8001616:	f8d1 2090 	ldr.w	r2, [r1, #144]	; 0x90
 800161a:	f422 3240 	bic.w	r2, r2, #196608	; 0x30000
 800161e:	4302      	orrs	r2, r0
 8001620:	f8c1 2090 	str.w	r2, [r1, #144]	; 0x90
  }

  /*-------------------------------------- I2C2 Configuration -----------------------------------*/
  if(((PeriphClkInit->PeriphClockSelection) & RCC_PERIPHCLK_I2C2) == RCC_PERIPHCLK_I2C2)
 8001624:	041f      	lsls	r7, r3, #16
 8001626:	d508      	bpl.n	800163a <HAL_RCCEx_PeriphCLKConfig+0xce>
  {
    /* Check the parameters */
    assert_param(IS_RCC_I2C2CLKSOURCE(PeriphClkInit->I2c2ClockSelection));

    /* Configure the I2C2 clock source */
    __HAL_RCC_I2C2_CONFIG(PeriphClkInit->I2c2ClockSelection);
 8001628:	498d      	ldr	r1, [pc, #564]	; (8001860 <HAL_RCCEx_PeriphCLKConfig+0x2f4>)
 800162a:	6ea0      	ldr	r0, [r4, #104]	; 0x68
 800162c:	f8d1 2090 	ldr.w	r2, [r1, #144]	; 0x90
 8001630:	f422 2240 	bic.w	r2, r2, #786432	; 0xc0000
 8001634:	4302      	orrs	r2, r0
 8001636:	f8c1 2090 	str.w	r2, [r1, #144]	; 0x90
  }

  /*-------------------------------------- I2C3 Configuration -----------------------------------*/
  if(((PeriphClkInit->PeriphClockSelection) & RCC_PERIPHCLK_I2C3) == RCC_PERIPHCLK_I2C3)
 800163a:	03d8      	lsls	r0, r3, #15
 800163c:	d508      	bpl.n	8001650 <HAL_RCCEx_PeriphCLKConfig+0xe4>
  {
    /* Check the parameters */
    assert_param(IS_RCC_I2C3CLKSOURCE(PeriphClkInit->I2c3ClockSelection));

    /* Configure the I2C3 clock source */
    __HAL_RCC_I2C3_CONFIG(PeriphClkInit->I2c3ClockSelection);
 800163e:	4988      	ldr	r1, [pc, #544]	; (8001860 <HAL_RCCEx_PeriphCLKConfig+0x2f4>)
 8001640:	6ee0      	ldr	r0, [r4, #108]	; 0x6c
 8001642:	f8d1 2090 	ldr.w	r2, [r1, #144]	; 0x90
 8001646:	f422 1240 	bic.w	r2, r2, #3145728	; 0x300000
 800164a:	4302      	orrs	r2, r0
 800164c:	f8c1 2090 	str.w	r2, [r1, #144]	; 0x90
  }

  /*-------------------------------------- I2C4 Configuration -----------------------------------*/
  if(((PeriphClkInit->PeriphClockSelection) & RCC_PERIPHCLK_I2C4) == RCC_PERIPHCLK_I2C4)
 8001650:	0399      	lsls	r1, r3, #14
 8001652:	d508      	bpl.n	8001666 <HAL_RCCEx_PeriphCLKConfig+0xfa>
  {
    /* Check the parameters */
    assert_param(IS_RCC_I2C4CLKSOURCE(PeriphClkInit->I2c4ClockSelection));

    /* Configure the I2C4 clock source */
    __HAL_RCC_I2C4_CONFIG(PeriphClkInit->I2c4ClockSelection);
 8001654:	4982      	ldr	r1, [pc, #520]	; (8001860 <HAL_RCCEx_PeriphCLKConfig+0x2f4>)
 8001656:	6f20      	ldr	r0, [r4, #112]	; 0x70
 8001658:	f8d1 2090 	ldr.w	r2, [r1, #144]	; 0x90
 800165c:	f422 0240 	bic.w	r2, r2, #12582912	; 0xc00000
 8001660:	4302      	orrs	r2, r0
 8001662:	f8c1 2090 	str.w	r2, [r1, #144]	; 0x90
  }

  /*-------------------------------------- USART1 Configuration -----------------------------------*/
  if(((PeriphClkInit->PeriphClockSelection) & RCC_PERIPHCLK_USART1) == RCC_PERIPHCLK_USART1)
 8001666:	065a      	lsls	r2, r3, #25
 8001668:	d508      	bpl.n	800167c <HAL_RCCEx_PeriphCLKConfig+0x110>
  {
    /* Check the parameters */
    assert_param(IS_RCC_USART1CLKSOURCE(PeriphClkInit->Usart1ClockSelection));

    /* Configure the USART1 clock source */
    __HAL_RCC_USART1_CONFIG(PeriphClkInit->Usart1ClockSelection);
 800166a:	497d      	ldr	r1, [pc, #500]	; (8001860 <HAL_RCCEx_PeriphCLKConfig+0x2f4>)
 800166c:	6c60      	ldr	r0, [r4, #68]	; 0x44
 800166e:	f8d1 2090 	ldr.w	r2, [r1, #144]	; 0x90
 8001672:	f022 0203 	bic.w	r2, r2, #3
 8001676:	4302      	orrs	r2, r0
 8001678:	f8c1 2090 	str.w	r2, [r1, #144]	; 0x90
  }

  /*-------------------------------------- USART2 Configuration -----------------------------------*/
  if(((PeriphClkInit->PeriphClockSelection) & RCC_PERIPHCLK_USART2) == RCC_PERIPHCLK_USART2)
 800167c:	061f      	lsls	r7, r3, #24
 800167e:	d508      	bpl.n	8001692 <HAL_RCCEx_PeriphCLKConfig+0x126>
  {
    /* Check the parameters */
    assert_param(IS_RCC_USART2CLKSOURCE(PeriphClkInit->Usart2ClockSelection));

    /* Configure the USART2 clock source */
    __HAL_RCC_USART2_CONFIG(PeriphClkInit->Usart2ClockSelection);
 8001680:	4977      	ldr	r1, [pc, #476]	; (8001860 <HAL_RCCEx_PeriphCLKConfig+0x2f4>)
 8001682:	6ca0      	ldr	r0, [r4, #72]	; 0x48
 8001684:	f8d1 2090 	ldr.w	r2, [r1, #144]	; 0x90
 8001688:	f022 020c 	bic.w	r2, r2, #12
 800168c:	4302      	orrs	r2, r0
 800168e:	f8c1 2090 	str.w	r2, [r1, #144]	; 0x90
  }

  /*-------------------------------------- USART3 Configuration -----------------------------------*/
  if(((PeriphClkInit->PeriphClockSelection) & RCC_PERIPHCLK_USART3) == RCC_PERIPHCLK_USART3)
 8001692:	05d8      	lsls	r0, r3, #23
 8001694:	d508      	bpl.n	80016a8 <HAL_RCCEx_PeriphCLKConfig+0x13c>
  {
    /* Check the parameters */
    assert_param(IS_RCC_USART3CLKSOURCE(PeriphClkInit->Usart3ClockSelection));

    /* Configure the USART3 clock source */
    __HAL_RCC_USART3_CONFIG(PeriphClkInit->Usart3ClockSelection);
 8001696:	4972      	ldr	r1, [pc, #456]	; (8001860 <HAL_RCCEx_PeriphCLKConfig+0x2f4>)
 8001698:	6ce0      	ldr	r0, [r4, #76]	; 0x4c
 800169a:	f8d1 2090 	ldr.w	r2, [r1, #144]	; 0x90
 800169e:	f022 0230 	bic.w	r2, r2, #48	; 0x30
 80016a2:	4302      	orrs	r2, r0
 80016a4:	f8c1 2090 	str.w	r2, [r1, #144]	; 0x90
  }

  /*-------------------------------------- UART4 Configuration -----------------------------------*/
  if(((PeriphClkInit->PeriphClockSelection) & RCC_PERIPHCLK_UART4) == RCC_PERIPHCLK_UART4)
 80016a8:	0599      	lsls	r1, r3, #22
 80016aa:	d508      	bpl.n	80016be <HAL_RCCEx_PeriphCLKConfig+0x152>
  {
    /* Check the parameters */
    assert_param(IS_RCC_UART4CLKSOURCE(PeriphClkInit->Uart4ClockSelection));

    /* Configure the UART4 clock source */
    __HAL_RCC_UART4_CONFIG(PeriphClkInit->Uart4ClockSelection);
 80016ac:	496c      	ldr	r1, [pc, #432]	; (8001860 <HAL_RCCEx_PeriphCLKConfig+0x2f4>)
 80016ae:	6d20      	ldr	r0, [r4, #80]	; 0x50
 80016b0:	f8d1 2090 	ldr.w	r2, [r1, #144]	; 0x90
 80016b4:	f022 02c0 	bic.w	r2, r2, #192	; 0xc0
 80016b8:	4302      	orrs	r2, r0
 80016ba:	f8c1 2090 	str.w	r2, [r1, #144]	; 0x90
  }

  /*-------------------------------------- UART5 Configuration -----------------------------------*/
  if(((PeriphClkInit->PeriphClockSelection) & RCC_PERIPHCLK_UART5) == RCC_PERIPHCLK_UART5)
 80016be:	055a      	lsls	r2, r3, #21
 80016c0:	d508      	bpl.n	80016d4 <HAL_RCCEx_PeriphCLKConfig+0x168>
  {
    /* Check the parameters */
    assert_param(IS_RCC_UART5CLKSOURCE(PeriphClkInit->Uart5ClockSelection));

    /* Configure the UART5 clock source */
    __HAL_RCC_UART5_CONFIG(PeriphClkInit->Uart5ClockSelection);
 80016c2:	4967      	ldr	r1, [pc, #412]	; (8001860 <HAL_RCCEx_PeriphCLKConfig+0x2f4>)
 80016c4:	6d60      	ldr	r0, [r4, #84]	; 0x54
 80016c6:	f8d1 2090 	ldr.w	r2, [r1, #144]	; 0x90
 80016ca:	f422 7240 	bic.w	r2, r2, #768	; 0x300
 80016ce:	4302      	orrs	r2, r0
 80016d0:	f8c1 2090 	str.w	r2, [r1, #144]	; 0x90
  }

  /*-------------------------------------- USART6 Configuration -----------------------------------*/
  if(((PeriphClkInit->PeriphClockSelection) & RCC_PERIPHCLK_USART6) == RCC_PERIPHCLK_USART6)
 80016d4:	051f      	lsls	r7, r3, #20
 80016d6:	d508      	bpl.n	80016ea <HAL_RCCEx_PeriphCLKConfig+0x17e>
  {
    /* Check the parameters */
    assert_param(IS_RCC_USART6CLKSOURCE(PeriphClkInit->Usart6ClockSelection));

    /* Configure the USART6 clock source */
    __HAL_RCC_USART6_CONFIG(PeriphClkInit->Usart6ClockSelection);
 80016d8:	4961      	ldr	r1, [pc, #388]	; (8001860 <HAL_RCCEx_PeriphCLKConfig+0x2f4>)
 80016da:	6da0      	ldr	r0, [r4, #88]	; 0x58
 80016dc:	f8d1 2090 	ldr.w	r2, [r1, #144]	; 0x90
 80016e0:	f422 6240 	bic.w	r2, r2, #3072	; 0xc00
 80016e4:	4302      	orrs	r2, r0
 80016e6:	f8c1 2090 	str.w	r2, [r1, #144]	; 0x90
  }

  /*-------------------------------------- UART7 Configuration -----------------------------------*/
  if(((PeriphClkInit->PeriphClockSelection) & RCC_PERIPHCLK_UART7) == RCC_PERIPHCLK_UART7)
 80016ea:	04d8      	lsls	r0, r3, #19
 80016ec:	d508      	bpl.n	8001700 <HAL_RCCEx_PeriphCLKConfig+0x194>
  {
    /* Check the parameters */
    assert_param(IS_RCC_UART7CLKSOURCE(PeriphClkInit->Uart7ClockSelection));

    /* Configure the UART7 clock source */
    __HAL_RCC_UART7_CONFIG(PeriphClkInit->Uart7ClockSelection);
 80016ee:	495c      	ldr	r1, [pc, #368]	; (8001860 <HAL_RCCEx_PeriphCLKConfig+0x2f4>)
 80016f0:	6de0      	ldr	r0, [r4, #92]	; 0x5c
 80016f2:	f8d1 2090 	ldr.w	r2, [r1, #144]	; 0x90
 80016f6:	f422 5240 	bic.w	r2, r2, #12288	; 0x3000
 80016fa:	4302      	orrs	r2, r0
 80016fc:	f8c1 2090 	str.w	r2, [r1, #144]	; 0x90
  }

  /*-------------------------------------- UART8 Configuration -----------------------------------*/
  if(((PeriphClkInit->PeriphClockSelection) & RCC_PERIPHCLK_UART8) == RCC_PERIPHCLK_UART8)
 8001700:	0499      	lsls	r1, r3, #18
 8001702:	d508      	bpl.n	8001716 <HAL_RCCEx_PeriphCLKConfig+0x1aa>
  {
    /* Check the parameters */
    assert_param(IS_RCC_UART8CLKSOURCE(PeriphClkInit->Uart8ClockSelection));

    /* Configure the UART8 clock source */
    __HAL_RCC_UART8_CONFIG(PeriphClkInit->Uart8ClockSelection);
 8001704:	4956      	ldr	r1, [pc, #344]	; (8001860 <HAL_RCCEx_PeriphCLKConfig+0x2f4>)
 8001706:	6e20      	ldr	r0, [r4, #96]	; 0x60
 8001708:	f8d1 2090 	ldr.w	r2, [r1, #144]	; 0x90
 800170c:	f422 4240 	bic.w	r2, r2, #49152	; 0xc000
 8001710:	4302      	orrs	r2, r0
 8001712:	f8c1 2090 	str.w	r2, [r1, #144]	; 0x90
  }

  /*--------------------------------------- CEC Configuration -----------------------------------*/
  if(((PeriphClkInit->PeriphClockSelection) & RCC_PERIPHCLK_CEC) == RCC_PERIPHCLK_CEC)
 8001716:	025a      	lsls	r2, r3, #9
 8001718:	d508      	bpl.n	800172c <HAL_RCCEx_PeriphCLKConfig+0x1c0>
  {
    /* Check the parameters */
    assert_param(IS_RCC_CECCLKSOURCE(PeriphClkInit->CecClockSelection));

    /* Configure the CEC clock source */
    __HAL_RCC_CEC_CONFIG(PeriphClkInit->CecClockSelection);
 800171a:	4951      	ldr	r1, [pc, #324]	; (8001860 <HAL_RCCEx_PeriphCLKConfig+0x2f4>)
 800171c:	6fa0      	ldr	r0, [r4, #120]	; 0x78
 800171e:	f8d1 2090 	ldr.w	r2, [r1, #144]	; 0x90
 8001722:	f022 6280 	bic.w	r2, r2, #67108864	; 0x4000000
 8001726:	4302      	orrs	r2, r0
 8001728:	f8c1 2090 	str.w	r2, [r1, #144]	; 0x90
  }

  /*-------------------------------------- CK48 Configuration -----------------------------------*/
  if(((PeriphClkInit->PeriphClockSelection) & RCC_PERIPHCLK_CLK48) == RCC_PERIPHCLK_CLK48)
 800172c:	029f      	lsls	r7, r3, #10
 800172e:	d50c      	bpl.n	800174a <HAL_RCCEx_PeriphCLKConfig+0x1de>
  {
    /* Check the parameters */
    assert_param(IS_RCC_CLK48SOURCE(PeriphClkInit->Clk48ClockSelection));

    /* Configure the CLK48 source */
    __HAL_RCC_CLK48_CONFIG(PeriphClkInit->Clk48ClockSelection);
 8001730:	494b      	ldr	r1, [pc, #300]	; (8001860 <HAL_RCCEx_PeriphCLKConfig+0x2f4>)
 8001732:	6fe0      	ldr	r0, [r4, #124]	; 0x7c
 8001734:	f8d1 2090 	ldr.w	r2, [r1, #144]	; 0x90

    /* Enable the PLLSAI when it's used as clock source for CK48 */
    if(PeriphClkInit->Clk48ClockSelection == RCC_CLK48SOURCE_PLLSAIP)
    {
      pllsaiused = 1;
 8001738:	f1b0 6f00 	cmp.w	r0, #134217728	; 0x8000000
    __HAL_RCC_CLK48_CONFIG(PeriphClkInit->Clk48ClockSelection);
 800173c:	f022 6200 	bic.w	r2, r2, #134217728	; 0x8000000
      pllsaiused = 1;
 8001740:	bf08      	it	eq
 8001742:	2501      	moveq	r5, #1
    __HAL_RCC_CLK48_CONFIG(PeriphClkInit->Clk48ClockSelection);
 8001744:	4302      	orrs	r2, r0
 8001746:	f8c1 2090 	str.w	r2, [r1, #144]	; 0x90

  /*-------------------------------------- LTDC Configuration -----------------------------------*/
#if defined(STM32F746xx) || defined(STM32F756xx) || defined (STM32F767xx) || defined (STM32F769xx) || defined (STM32F777xx) || defined (STM32F779xx) || defined (STM32F750xx)
  if(((PeriphClkInit->PeriphClockSelection) & RCC_PERIPHCLK_LTDC) == RCC_PERIPHCLK_LTDC)
  {
    pllsaiused = 1;
 800174a:	f013 0f08 	tst.w	r3, #8
 800174e:	bf18      	it	ne
 8001750:	2501      	movne	r5, #1
  }
#endif /* STM32F746xx || STM32F756xx || STM32F767xx || STM32F769xx || STM32F777xx || STM32F779xx || STM32F750xx */

  /*-------------------------------------- LPTIM1 Configuration -----------------------------------*/
  if(((PeriphClkInit->PeriphClockSelection) & RCC_PERIPHCLK_LPTIM1) == RCC_PERIPHCLK_LPTIM1)
 8001752:	0358      	lsls	r0, r3, #13
 8001754:	d508      	bpl.n	8001768 <HAL_RCCEx_PeriphCLKConfig+0x1fc>
  {
    /* Check the parameters */
    assert_param(IS_RCC_LPTIM1CLK(PeriphClkInit->Lptim1ClockSelection));

    /* Configure the LTPIM1 clock source */
    __HAL_RCC_LPTIM1_CONFIG(PeriphClkInit->Lptim1ClockSelection);
 8001756:	4942      	ldr	r1, [pc, #264]	; (8001860 <HAL_RCCEx_PeriphCLKConfig+0x2f4>)
 8001758:	6f60      	ldr	r0, [r4, #116]	; 0x74
 800175a:	f8d1 2090 	ldr.w	r2, [r1, #144]	; 0x90
 800175e:	f022 7240 	bic.w	r2, r2, #50331648	; 0x3000000
 8001762:	4302      	orrs	r2, r0
 8001764:	f8c1 2090 	str.w	r2, [r1, #144]	; 0x90
   }

  /*------------------------------------- SDMMC1 Configuration ------------------------------------*/
  if(((PeriphClkInit->PeriphClockSelection) & RCC_PERIPHCLK_SDMMC1) == RCC_PERIPHCLK_SDMMC1)
 8001768:	0219      	lsls	r1, r3, #8
 800176a:	d40b      	bmi.n	8001784 <HAL_RCCEx_PeriphCLKConfig+0x218>
  }
#endif /* STM32F767xx || STM32F769xx || STM32F777xx || STM32F779xx */

  /*-------------------------------------- PLLI2S Configuration ---------------------------------*/
  /* PLLI2S is configured when a peripheral will use it as source clock : SAI1, SAI2, I2S or SPDIF-RX */
  if((plli2sused == 1) || (PeriphClkInit->PeriphClockSelection == RCC_PERIPHCLK_PLLI2S))
 800176c:	f1b3 7f00 	cmp.w	r3, #33554432	; 0x2000000
 8001770:	d016      	beq.n	80017a0 <HAL_RCCEx_PeriphCLKConfig+0x234>
 8001772:	07f2      	lsls	r2, r6, #31
 8001774:	d414      	bmi.n	80017a0 <HAL_RCCEx_PeriphCLKConfig+0x234>
    }
  }

  /*-------------------------------------- PLLSAI Configuration ---------------------------------*/
  /* PLLSAI is configured when a peripheral will use it as source clock : SAI1, SAI2, LTDC or CK48 */
  if(pllsaiused == 1)
 8001776:	2d01      	cmp	r5, #1
 8001778:	f000 80d0 	beq.w	800191c <HAL_RCCEx_PeriphCLKConfig+0x3b0>
        /* return in case of Timeout detected */
        return HAL_TIMEOUT;
      }
    }
  }
  return HAL_OK;
 800177c:	2000      	movs	r0, #0
}
 800177e:	b003      	add	sp, #12
 8001780:	e8bd 83f0 	ldmia.w	sp!, {r4, r5, r6, r7, r8, r9, pc}
    __HAL_RCC_SDMMC1_CONFIG(PeriphClkInit->Sdmmc1ClockSelection);
 8001784:	4936      	ldr	r1, [pc, #216]	; (8001860 <HAL_RCCEx_PeriphCLKConfig+0x2f4>)
  if((plli2sused == 1) || (PeriphClkInit->PeriphClockSelection == RCC_PERIPHCLK_PLLI2S))
 8001786:	f1b3 7f00 	cmp.w	r3, #33554432	; 0x2000000
    __HAL_RCC_SDMMC1_CONFIG(PeriphClkInit->Sdmmc1ClockSelection);
 800178a:	f8d4 0080 	ldr.w	r0, [r4, #128]	; 0x80
 800178e:	f8d1 2090 	ldr.w	r2, [r1, #144]	; 0x90
 8001792:	f022 5280 	bic.w	r2, r2, #268435456	; 0x10000000
 8001796:	ea42 0200 	orr.w	r2, r2, r0
 800179a:	f8c1 2090 	str.w	r2, [r1, #144]	; 0x90
  if((plli2sused == 1) || (PeriphClkInit->PeriphClockSelection == RCC_PERIPHCLK_PLLI2S))
 800179e:	d1e8      	bne.n	8001772 <HAL_RCCEx_PeriphCLKConfig+0x206>
    __HAL_RCC_PLLI2S_DISABLE();
 80017a0:	4b2f      	ldr	r3, [pc, #188]	; (8001860 <HAL_RCCEx_PeriphCLKConfig+0x2f4>)
 80017a2:	681a      	ldr	r2, [r3, #0]
    while(__HAL_RCC_GET_FLAG(RCC_FLAG_PLLI2SRDY)  != RESET)
 80017a4:	461e      	mov	r6, r3
    __HAL_RCC_PLLI2S_DISABLE();
 80017a6:	f022 6280 	bic.w	r2, r2, #67108864	; 0x4000000
 80017aa:	601a      	str	r2, [r3, #0]
    tickstart = HAL_GetTick();
 80017ac:	f7fe ff40 	bl	8000630 <HAL_GetTick>
 80017b0:	4607      	mov	r7, r0
    while(__HAL_RCC_GET_FLAG(RCC_FLAG_PLLI2SRDY)  != RESET)
 80017b2:	e004      	b.n	80017be <HAL_RCCEx_PeriphCLKConfig+0x252>
      if((HAL_GetTick() - tickstart) > PLLI2S_TIMEOUT_VALUE)
 80017b4:	f7fe ff3c 	bl	8000630 <HAL_GetTick>
 80017b8:	1bc0      	subs	r0, r0, r7
 80017ba:	2864      	cmp	r0, #100	; 0x64
 80017bc:	d85d      	bhi.n	800187a <HAL_RCCEx_PeriphCLKConfig+0x30e>
    while(__HAL_RCC_GET_FLAG(RCC_FLAG_PLLI2SRDY)  != RESET)
 80017be:	6833      	ldr	r3, [r6, #0]
 80017c0:	011b      	lsls	r3, r3, #4
 80017c2:	d4f7      	bmi.n	80017b4 <HAL_RCCEx_PeriphCLKConfig+0x248>
    if(((((PeriphClkInit->PeriphClockSelection) & RCC_PERIPHCLK_I2S) == RCC_PERIPHCLK_I2S) && (PeriphClkInit->I2sClockSelection == RCC_I2SCLKSOURCE_PLLI2S)))
 80017c4:	6823      	ldr	r3, [r4, #0]
 80017c6:	07df      	lsls	r7, r3, #31
 80017c8:	d512      	bpl.n	80017f0 <HAL_RCCEx_PeriphCLKConfig+0x284>
 80017ca:	6b62      	ldr	r2, [r4, #52]	; 0x34
 80017cc:	b982      	cbnz	r2, 80017f0 <HAL_RCCEx_PeriphCLKConfig+0x284>
      tmpreg0 = ((RCC->PLLI2SCFGR & RCC_PLLI2SCFGR_PLLI2SP) >> RCC_PLLI2SCFGR_PLLI2SP_Pos);
 80017ce:	f8d6 2084 	ldr.w	r2, [r6, #132]	; 0x84
      tmpreg1 = ((RCC->PLLI2SCFGR & RCC_PLLI2SCFGR_PLLI2SQ) >> RCC_PLLI2SCFGR_PLLI2SQ_Pos);
 80017d2:	f8d6 7084 	ldr.w	r7, [r6, #132]	; 0x84
      __HAL_RCC_PLLI2S_CONFIG(PeriphClkInit->PLLI2S.PLLI2SN , tmpreg0, tmpreg1, PeriphClkInit->PLLI2S.PLLI2SR);
 80017d6:	f402 3240 	and.w	r2, r2, #196608	; 0x30000
 80017da:	6860      	ldr	r0, [r4, #4]
 80017dc:	f007 6770 	and.w	r7, r7, #251658240	; 0xf000000
 80017e0:	68a1      	ldr	r1, [r4, #8]
 80017e2:	433a      	orrs	r2, r7
 80017e4:	ea42 1280 	orr.w	r2, r2, r0, lsl #6
 80017e8:	ea42 7201 	orr.w	r2, r2, r1, lsl #28
 80017ec:	f8c6 2084 	str.w	r2, [r6, #132]	; 0x84
    if(((((PeriphClkInit->PeriphClockSelection) & RCC_PERIPHCLK_SAI1) == RCC_PERIPHCLK_SAI1) && (PeriphClkInit->Sai1ClockSelection == RCC_SAI1CLKSOURCE_PLLI2S)) ||
 80017f0:	031e      	lsls	r6, r3, #12
 80017f2:	f100 8111 	bmi.w	8001a18 <HAL_RCCEx_PeriphCLKConfig+0x4ac>
 80017f6:	02d8      	lsls	r0, r3, #11
 80017f8:	d504      	bpl.n	8001804 <HAL_RCCEx_PeriphCLKConfig+0x298>
       ((((PeriphClkInit->PeriphClockSelection) & RCC_PERIPHCLK_SAI2) == RCC_PERIPHCLK_SAI2) && (PeriphClkInit->Sai2ClockSelection == RCC_SAI2CLKSOURCE_PLLI2S)))
 80017fa:	6c22      	ldr	r2, [r4, #64]	; 0x40
 80017fc:	f5b2 0f80 	cmp.w	r2, #4194304	; 0x400000
 8001800:	f000 810f 	beq.w	8001a22 <HAL_RCCEx_PeriphCLKConfig+0x4b6>
    if(((PeriphClkInit->PeriphClockSelection) & RCC_PERIPHCLK_SPDIFRX) == RCC_PERIPHCLK_SPDIFRX)
 8001804:	01d9      	lsls	r1, r3, #7
 8001806:	d511      	bpl.n	800182c <HAL_RCCEx_PeriphCLKConfig+0x2c0>
      tmpreg0 = ((RCC->PLLI2SCFGR & RCC_PLLI2SCFGR_PLLI2SQ) >> RCC_PLLI2SCFGR_PLLI2SQ_Pos);
 8001808:	4e15      	ldr	r6, [pc, #84]	; (8001860 <HAL_RCCEx_PeriphCLKConfig+0x2f4>)
      __HAL_RCC_PLLI2S_CONFIG(PeriphClkInit->PLLI2S.PLLI2SN , PeriphClkInit->PLLI2S.PLLI2SP, tmpreg0, tmpreg1);
 800180a:	6860      	ldr	r0, [r4, #4]
      tmpreg0 = ((RCC->PLLI2SCFGR & RCC_PLLI2SCFGR_PLLI2SQ) >> RCC_PLLI2SCFGR_PLLI2SQ_Pos);
 800180c:	f8d6 2084 	ldr.w	r2, [r6, #132]	; 0x84
      tmpreg1 = ((RCC->PLLI2SCFGR & RCC_PLLI2SCFGR_PLLI2SR) >> RCC_PLLI2SCFGR_PLLI2SR_Pos);
 8001810:	f8d6 7084 	ldr.w	r7, [r6, #132]	; 0x84
      __HAL_RCC_PLLI2S_CONFIG(PeriphClkInit->PLLI2S.PLLI2SN , PeriphClkInit->PLLI2S.PLLI2SP, tmpreg0, tmpreg1);
 8001814:	f002 6270 	and.w	r2, r2, #251658240	; 0xf000000
 8001818:	6921      	ldr	r1, [r4, #16]
 800181a:	f007 47e0 	and.w	r7, r7, #1879048192	; 0x70000000
 800181e:	433a      	orrs	r2, r7
 8001820:	ea42 1280 	orr.w	r2, r2, r0, lsl #6
 8001824:	ea42 4201 	orr.w	r2, r2, r1, lsl #16
 8001828:	f8c6 2084 	str.w	r2, [r6, #132]	; 0x84
    if((PeriphClkInit->PeriphClockSelection & RCC_PERIPHCLK_PLLI2S) == RCC_PERIPHCLK_PLLI2S)
 800182c:	019a      	lsls	r2, r3, #6
 800182e:	d50d      	bpl.n	800184c <HAL_RCCEx_PeriphCLKConfig+0x2e0>
      __HAL_RCC_PLLI2S_CONFIG(PeriphClkInit->PLLI2S.PLLI2SN , PeriphClkInit->PLLI2S.PLLI2SP, PeriphClkInit->PLLI2S.PLLI2SQ, PeriphClkInit->PLLI2S.PLLI2SR);
 8001830:	6923      	ldr	r3, [r4, #16]
 8001832:	6862      	ldr	r2, [r4, #4]
 8001834:	041b      	lsls	r3, r3, #16
 8001836:	e9d4 1002 	ldrd	r1, r0, [r4, #8]
 800183a:	ea43 1382 	orr.w	r3, r3, r2, lsl #6
 800183e:	4a08      	ldr	r2, [pc, #32]	; (8001860 <HAL_RCCEx_PeriphCLKConfig+0x2f4>)
 8001840:	ea43 6300 	orr.w	r3, r3, r0, lsl #24
 8001844:	ea43 7301 	orr.w	r3, r3, r1, lsl #28
 8001848:	f8c2 3084 	str.w	r3, [r2, #132]	; 0x84
    __HAL_RCC_PLLI2S_ENABLE();
 800184c:	4b04      	ldr	r3, [pc, #16]	; (8001860 <HAL_RCCEx_PeriphCLKConfig+0x2f4>)
 800184e:	681a      	ldr	r2, [r3, #0]
    while(__HAL_RCC_GET_FLAG(RCC_FLAG_PLLI2SRDY)  == RESET)
 8001850:	461e      	mov	r6, r3
    __HAL_RCC_PLLI2S_ENABLE();
 8001852:	f042 6280 	orr.w	r2, r2, #67108864	; 0x4000000
 8001856:	601a      	str	r2, [r3, #0]
    tickstart = HAL_GetTick();
 8001858:	f7fe feea 	bl	8000630 <HAL_GetTick>
 800185c:	4607      	mov	r7, r0
    while(__HAL_RCC_GET_FLAG(RCC_FLAG_PLLI2SRDY)  == RESET)
 800185e:	e006      	b.n	800186e <HAL_RCCEx_PeriphCLKConfig+0x302>
 8001860:	40023800 	.word	0x40023800
      if((HAL_GetTick() - tickstart) > PLLI2S_TIMEOUT_VALUE)
 8001864:	f7fe fee4 	bl	8000630 <HAL_GetTick>
 8001868:	1bc0      	subs	r0, r0, r7
 800186a:	2864      	cmp	r0, #100	; 0x64
 800186c:	d805      	bhi.n	800187a <HAL_RCCEx_PeriphCLKConfig+0x30e>
    while(__HAL_RCC_GET_FLAG(RCC_FLAG_PLLI2SRDY)  == RESET)
 800186e:	6833      	ldr	r3, [r6, #0]
 8001870:	011b      	lsls	r3, r3, #4
 8001872:	d5f7      	bpl.n	8001864 <HAL_RCCEx_PeriphCLKConfig+0x2f8>
  if(pllsaiused == 1)
 8001874:	2d01      	cmp	r5, #1
 8001876:	d181      	bne.n	800177c <HAL_RCCEx_PeriphCLKConfig+0x210>
 8001878:	e050      	b.n	800191c <HAL_RCCEx_PeriphCLKConfig+0x3b0>
        return HAL_TIMEOUT;
 800187a:	2003      	movs	r0, #3
}
 800187c:	b003      	add	sp, #12
 800187e:	e8bd 83f0 	ldmia.w	sp!, {r4, r5, r6, r7, r8, r9, pc}
    __HAL_RCC_PWR_CLK_ENABLE();
 8001882:	4a87      	ldr	r2, [pc, #540]	; (8001aa0 <HAL_RCCEx_PeriphCLKConfig+0x534>)
    PWR->CR1 |= PWR_CR1_DBP;
 8001884:	4b87      	ldr	r3, [pc, #540]	; (8001aa4 <HAL_RCCEx_PeriphCLKConfig+0x538>)
    __HAL_RCC_PWR_CLK_ENABLE();
 8001886:	6c11      	ldr	r1, [r2, #64]	; 0x40
    while((PWR->CR1 & PWR_CR1_DBP) == RESET)
 8001888:	461f      	mov	r7, r3
    __HAL_RCC_PWR_CLK_ENABLE();
 800188a:	f041 5180 	orr.w	r1, r1, #268435456	; 0x10000000
 800188e:	6411      	str	r1, [r2, #64]	; 0x40
 8001890:	6c12      	ldr	r2, [r2, #64]	; 0x40
 8001892:	f002 5280 	and.w	r2, r2, #268435456	; 0x10000000
 8001896:	9201      	str	r2, [sp, #4]
 8001898:	9a01      	ldr	r2, [sp, #4]
    PWR->CR1 |= PWR_CR1_DBP;
 800189a:	681a      	ldr	r2, [r3, #0]
 800189c:	f442 7280 	orr.w	r2, r2, #256	; 0x100
 80018a0:	601a      	str	r2, [r3, #0]
    tickstart = HAL_GetTick();
 80018a2:	f7fe fec5 	bl	8000630 <HAL_GetTick>
 80018a6:	4680      	mov	r8, r0
    while((PWR->CR1 & PWR_CR1_DBP) == RESET)
 80018a8:	e005      	b.n	80018b6 <HAL_RCCEx_PeriphCLKConfig+0x34a>
      if((HAL_GetTick() - tickstart) > RCC_DBP_TIMEOUT_VALUE)
 80018aa:	f7fe fec1 	bl	8000630 <HAL_GetTick>
 80018ae:	eba0 0008 	sub.w	r0, r0, r8
 80018b2:	2864      	cmp	r0, #100	; 0x64
 80018b4:	d8e1      	bhi.n	800187a <HAL_RCCEx_PeriphCLKConfig+0x30e>
    while((PWR->CR1 & PWR_CR1_DBP) == RESET)
 80018b6:	683b      	ldr	r3, [r7, #0]
 80018b8:	05db      	lsls	r3, r3, #23
 80018ba:	d5f6      	bpl.n	80018aa <HAL_RCCEx_PeriphCLKConfig+0x33e>
    tmpreg0 = (RCC->BDCR & RCC_BDCR_RTCSEL);
 80018bc:	4a78      	ldr	r2, [pc, #480]	; (8001aa0 <HAL_RCCEx_PeriphCLKConfig+0x534>)
 80018be:	6b23      	ldr	r3, [r4, #48]	; 0x30
 80018c0:	6f11      	ldr	r1, [r2, #112]	; 0x70
 80018c2:	f403 7040 	and.w	r0, r3, #768	; 0x300
    if((tmpreg0 != 0x00000000U) && (tmpreg0 != (PeriphClkInit->RTCClockSelection & RCC_BDCR_RTCSEL)))
 80018c6:	f411 7140 	ands.w	r1, r1, #768	; 0x300
 80018ca:	d011      	beq.n	80018f0 <HAL_RCCEx_PeriphCLKConfig+0x384>
 80018cc:	4288      	cmp	r0, r1
 80018ce:	d00f      	beq.n	80018f0 <HAL_RCCEx_PeriphCLKConfig+0x384>
      tmpreg0 = (RCC->BDCR & ~(RCC_BDCR_RTCSEL));
 80018d0:	6f11      	ldr	r1, [r2, #112]	; 0x70
      __HAL_RCC_BACKUPRESET_FORCE();
 80018d2:	6f17      	ldr	r7, [r2, #112]	; 0x70
      tmpreg0 = (RCC->BDCR & ~(RCC_BDCR_RTCSEL));
 80018d4:	f421 7140 	bic.w	r1, r1, #768	; 0x300
      __HAL_RCC_BACKUPRESET_FORCE();
 80018d8:	f447 3780 	orr.w	r7, r7, #65536	; 0x10000
 80018dc:	6717      	str	r7, [r2, #112]	; 0x70
      __HAL_RCC_BACKUPRESET_RELEASE();
 80018de:	6f17      	ldr	r7, [r2, #112]	; 0x70
 80018e0:	f427 3780 	bic.w	r7, r7, #65536	; 0x10000
 80018e4:	6717      	str	r7, [r2, #112]	; 0x70
      RCC->BDCR = tmpreg0;
 80018e6:	6711      	str	r1, [r2, #112]	; 0x70
      if (HAL_IS_BIT_SET(RCC->BDCR, RCC_BDCR_LSEON))
 80018e8:	6f11      	ldr	r1, [r2, #112]	; 0x70
 80018ea:	07cf      	lsls	r7, r1, #31
 80018ec:	f100 80c3 	bmi.w	8001a76 <HAL_RCCEx_PeriphCLKConfig+0x50a>
    __HAL_RCC_RTC_CONFIG(PeriphClkInit->RTCClockSelection);
 80018f0:	f5b0 7f40 	cmp.w	r0, #768	; 0x300
 80018f4:	f000 80b1 	beq.w	8001a5a <HAL_RCCEx_PeriphCLKConfig+0x4ee>
 80018f8:	4969      	ldr	r1, [pc, #420]	; (8001aa0 <HAL_RCCEx_PeriphCLKConfig+0x534>)
 80018fa:	688a      	ldr	r2, [r1, #8]
 80018fc:	f422 12f8 	bic.w	r2, r2, #2031616	; 0x1f0000
 8001900:	608a      	str	r2, [r1, #8]
 8001902:	4a67      	ldr	r2, [pc, #412]	; (8001aa0 <HAL_RCCEx_PeriphCLKConfig+0x534>)
 8001904:	f3c3 030b 	ubfx	r3, r3, #0, #12
 8001908:	6f11      	ldr	r1, [r2, #112]	; 0x70
 800190a:	430b      	orrs	r3, r1
 800190c:	6713      	str	r3, [r2, #112]	; 0x70
 800190e:	6823      	ldr	r3, [r4, #0]
 8001910:	e66e      	b.n	80015f0 <HAL_RCCEx_PeriphCLKConfig+0x84>
      plli2sused = 1;
 8001912:	2601      	movs	r6, #1
 8001914:	e665      	b.n	80015e2 <HAL_RCCEx_PeriphCLKConfig+0x76>
  uint32_t pllsaiused = 0;
 8001916:	2500      	movs	r5, #0
      plli2sused = 1;
 8001918:	2601      	movs	r6, #1
 800191a:	e64f      	b.n	80015bc <HAL_RCCEx_PeriphCLKConfig+0x50>
    __HAL_RCC_PLLSAI_DISABLE();
 800191c:	4b60      	ldr	r3, [pc, #384]	; (8001aa0 <HAL_RCCEx_PeriphCLKConfig+0x534>)
 800191e:	681a      	ldr	r2, [r3, #0]
    while(__HAL_RCC_PLLSAI_GET_FLAG() != RESET)
 8001920:	461d      	mov	r5, r3
    __HAL_RCC_PLLSAI_DISABLE();
 8001922:	f022 5280 	bic.w	r2, r2, #268435456	; 0x10000000
 8001926:	601a      	str	r2, [r3, #0]
    tickstart = HAL_GetTick();
 8001928:	f7fe fe82 	bl	8000630 <HAL_GetTick>
 800192c:	4606      	mov	r6, r0
    while(__HAL_RCC_PLLSAI_GET_FLAG() != RESET)
 800192e:	e004      	b.n	800193a <HAL_RCCEx_PeriphCLKConfig+0x3ce>
      if((HAL_GetTick() - tickstart) > PLLSAI_TIMEOUT_VALUE)
 8001930:	f7fe fe7e 	bl	8000630 <HAL_GetTick>
 8001934:	1b80      	subs	r0, r0, r6
 8001936:	2864      	cmp	r0, #100	; 0x64
 8001938:	d89f      	bhi.n	800187a <HAL_RCCEx_PeriphCLKConfig+0x30e>
    while(__HAL_RCC_PLLSAI_GET_FLAG() != RESET)
 800193a:	682b      	ldr	r3, [r5, #0]
 800193c:	009f      	lsls	r7, r3, #2
 800193e:	d4f7      	bmi.n	8001930 <HAL_RCCEx_PeriphCLKConfig+0x3c4>
    if(((((PeriphClkInit->PeriphClockSelection) & RCC_PERIPHCLK_SAI1) == RCC_PERIPHCLK_SAI1) && (PeriphClkInit->Sai1ClockSelection == RCC_SAI1CLKSOURCE_PLLSAI)) ||\
 8001940:	6823      	ldr	r3, [r4, #0]
 8001942:	031d      	lsls	r5, r3, #12
 8001944:	f100 8092 	bmi.w	8001a6c <HAL_RCCEx_PeriphCLKConfig+0x500>
 8001948:	02d8      	lsls	r0, r3, #11
 800194a:	d51d      	bpl.n	8001988 <HAL_RCCEx_PeriphCLKConfig+0x41c>
       ((((PeriphClkInit->PeriphClockSelection) & RCC_PERIPHCLK_SAI2) == RCC_PERIPHCLK_SAI2) && (PeriphClkInit->Sai2ClockSelection == RCC_SAI2CLKSOURCE_PLLSAI)))
 800194c:	6c22      	ldr	r2, [r4, #64]	; 0x40
 800194e:	b9da      	cbnz	r2, 8001988 <HAL_RCCEx_PeriphCLKConfig+0x41c>
      tmpreg0 = ((RCC->PLLSAICFGR & RCC_PLLSAICFGR_PLLSAIP) >> RCC_PLLSAICFGR_PLLSAIP_Pos);
 8001950:	4953      	ldr	r1, [pc, #332]	; (8001aa0 <HAL_RCCEx_PeriphCLKConfig+0x534>)
      __HAL_RCC_PLLSAI_CONFIG(PeriphClkInit->PLLSAI.PLLSAIN , tmpreg0, PeriphClkInit->PLLSAI.PLLSAIQ, tmpreg1);
 8001952:	6965      	ldr	r5, [r4, #20]
      tmpreg0 = ((RCC->PLLSAICFGR & RCC_PLLSAICFGR_PLLSAIP) >> RCC_PLLSAICFGR_PLLSAIP_Pos);
 8001954:	f8d1 2088 	ldr.w	r2, [r1, #136]	; 0x88
      tmpreg1 = ((RCC->PLLSAICFGR & RCC_PLLI2SCFGR_PLLI2SR) >> RCC_PLLSAICFGR_PLLSAIR_Pos);
 8001958:	f8d1 6088 	ldr.w	r6, [r1, #136]	; 0x88
      __HAL_RCC_PLLSAI_CONFIG(PeriphClkInit->PLLSAI.PLLSAIN , tmpreg0, PeriphClkInit->PLLSAI.PLLSAIQ, tmpreg1);
 800195c:	f402 3240 	and.w	r2, r2, #196608	; 0x30000
 8001960:	69a0      	ldr	r0, [r4, #24]
 8001962:	f006 46e0 	and.w	r6, r6, #1879048192	; 0x70000000
 8001966:	4332      	orrs	r2, r6
 8001968:	ea42 1285 	orr.w	r2, r2, r5, lsl #6
 800196c:	ea42 6200 	orr.w	r2, r2, r0, lsl #24
 8001970:	f8c1 2088 	str.w	r2, [r1, #136]	; 0x88
      __HAL_RCC_PLLSAI_PLLSAICLKDIVQ_CONFIG(PeriphClkInit->PLLSAIDivQ);
 8001974:	f8d1 208c 	ldr.w	r2, [r1, #140]	; 0x8c
 8001978:	6aa0      	ldr	r0, [r4, #40]	; 0x28
 800197a:	f422 52f8 	bic.w	r2, r2, #7936	; 0x1f00
 800197e:	3801      	subs	r0, #1
 8001980:	ea42 2200 	orr.w	r2, r2, r0, lsl #8
 8001984:	f8c1 208c 	str.w	r2, [r1, #140]	; 0x8c
    if((((PeriphClkInit->PeriphClockSelection) & RCC_PERIPHCLK_CLK48) == RCC_PERIPHCLK_CLK48) && (PeriphClkInit->Clk48ClockSelection == RCC_CLK48SOURCE_PLLSAIP))
 8001988:	0299      	lsls	r1, r3, #10
 800198a:	d515      	bpl.n	80019b8 <HAL_RCCEx_PeriphCLKConfig+0x44c>
 800198c:	6fe2      	ldr	r2, [r4, #124]	; 0x7c
 800198e:	f1b2 6f00 	cmp.w	r2, #134217728	; 0x8000000
 8001992:	d111      	bne.n	80019b8 <HAL_RCCEx_PeriphCLKConfig+0x44c>
      tmpreg0 = ((RCC->PLLSAICFGR & RCC_PLLSAICFGR_PLLSAIQ) >> RCC_PLLSAICFGR_PLLSAIQ_Pos);
 8001994:	4942      	ldr	r1, [pc, #264]	; (8001aa0 <HAL_RCCEx_PeriphCLKConfig+0x534>)
      __HAL_RCC_PLLSAI_CONFIG(PeriphClkInit->PLLSAI.PLLSAIN , PeriphClkInit->PLLSAI.PLLSAIP, tmpreg0, tmpreg1);
 8001996:	6965      	ldr	r5, [r4, #20]
      tmpreg0 = ((RCC->PLLSAICFGR & RCC_PLLSAICFGR_PLLSAIQ) >> RCC_PLLSAICFGR_PLLSAIQ_Pos);
 8001998:	f8d1 2088 	ldr.w	r2, [r1, #136]	; 0x88
      tmpreg1 = ((RCC->PLLSAICFGR & RCC_PLLSAICFGR_PLLSAIR) >> RCC_PLLSAICFGR_PLLSAIR_Pos);
 800199c:	f8d1 6088 	ldr.w	r6, [r1, #136]	; 0x88
      __HAL_RCC_PLLSAI_CONFIG(PeriphClkInit->PLLSAI.PLLSAIN , PeriphClkInit->PLLSAI.PLLSAIP, tmpreg0, tmpreg1);
 80019a0:	f002 6270 	and.w	r2, r2, #251658240	; 0xf000000
 80019a4:	6a20      	ldr	r0, [r4, #32]
 80019a6:	f006 46e0 	and.w	r6, r6, #1879048192	; 0x70000000
 80019aa:	4332      	orrs	r2, r6
 80019ac:	ea42 1285 	orr.w	r2, r2, r5, lsl #6
 80019b0:	ea42 4200 	orr.w	r2, r2, r0, lsl #16
 80019b4:	f8c1 2088 	str.w	r2, [r1, #136]	; 0x88
    if(((PeriphClkInit->PeriphClockSelection) & RCC_PERIPHCLK_LTDC) == (RCC_PERIPHCLK_LTDC))
 80019b8:	071a      	lsls	r2, r3, #28
 80019ba:	d519      	bpl.n	80019f0 <HAL_RCCEx_PeriphCLKConfig+0x484>
      tmpreg0 = ((RCC->PLLSAICFGR & RCC_PLLSAICFGR_PLLSAIQ) >> RCC_PLLSAICFGR_PLLSAIQ_Pos);
 80019bc:	4a38      	ldr	r2, [pc, #224]	; (8001aa0 <HAL_RCCEx_PeriphCLKConfig+0x534>)
      __HAL_RCC_PLLSAI_CONFIG(PeriphClkInit->PLLSAI.PLLSAIN , tmpreg1, tmpreg0, PeriphClkInit->PLLSAI.PLLSAIR);
 80019be:	6965      	ldr	r5, [r4, #20]
      tmpreg0 = ((RCC->PLLSAICFGR & RCC_PLLSAICFGR_PLLSAIQ) >> RCC_PLLSAICFGR_PLLSAIQ_Pos);
 80019c0:	f8d2 1088 	ldr.w	r1, [r2, #136]	; 0x88
      tmpreg1 = ((RCC->PLLSAICFGR & RCC_PLLSAICFGR_PLLSAIP) >> RCC_PLLSAICFGR_PLLSAIP_Pos);
 80019c4:	f8d2 3088 	ldr.w	r3, [r2, #136]	; 0x88
      __HAL_RCC_PLLSAI_CONFIG(PeriphClkInit->PLLSAI.PLLSAIN , tmpreg1, tmpreg0, PeriphClkInit->PLLSAI.PLLSAIR);
 80019c8:	f001 6170 	and.w	r1, r1, #251658240	; 0xf000000
 80019cc:	69e0      	ldr	r0, [r4, #28]
 80019ce:	f403 3340 	and.w	r3, r3, #196608	; 0x30000
 80019d2:	430b      	orrs	r3, r1
 80019d4:	ea43 1385 	orr.w	r3, r3, r5, lsl #6
 80019d8:	ea43 7300 	orr.w	r3, r3, r0, lsl #28
 80019dc:	f8c2 3088 	str.w	r3, [r2, #136]	; 0x88
      __HAL_RCC_PLLSAI_PLLSAICLKDIVR_CONFIG(PeriphClkInit->PLLSAIDivR);
 80019e0:	f8d2 308c 	ldr.w	r3, [r2, #140]	; 0x8c
 80019e4:	6ae1      	ldr	r1, [r4, #44]	; 0x2c
 80019e6:	f423 3340 	bic.w	r3, r3, #196608	; 0x30000
 80019ea:	430b      	orrs	r3, r1
 80019ec:	f8c2 308c 	str.w	r3, [r2, #140]	; 0x8c
    __HAL_RCC_PLLSAI_ENABLE();
 80019f0:	4b2b      	ldr	r3, [pc, #172]	; (8001aa0 <HAL_RCCEx_PeriphCLKConfig+0x534>)
 80019f2:	681a      	ldr	r2, [r3, #0]
    while(__HAL_RCC_PLLSAI_GET_FLAG() == RESET)
 80019f4:	461c      	mov	r4, r3
    __HAL_RCC_PLLSAI_ENABLE();
 80019f6:	f042 5280 	orr.w	r2, r2, #268435456	; 0x10000000
 80019fa:	601a      	str	r2, [r3, #0]
    tickstart = HAL_GetTick();
 80019fc:	f7fe fe18 	bl	8000630 <HAL_GetTick>
 8001a00:	4605      	mov	r5, r0
    while(__HAL_RCC_PLLSAI_GET_FLAG() == RESET)
 8001a02:	e005      	b.n	8001a10 <HAL_RCCEx_PeriphCLKConfig+0x4a4>
      if((HAL_GetTick() - tickstart) > PLLSAI_TIMEOUT_VALUE)
 8001a04:	f7fe fe14 	bl	8000630 <HAL_GetTick>
 8001a08:	1b40      	subs	r0, r0, r5
 8001a0a:	2864      	cmp	r0, #100	; 0x64
 8001a0c:	f63f af35 	bhi.w	800187a <HAL_RCCEx_PeriphCLKConfig+0x30e>
    while(__HAL_RCC_PLLSAI_GET_FLAG() == RESET)
 8001a10:	6823      	ldr	r3, [r4, #0]
 8001a12:	009b      	lsls	r3, r3, #2
 8001a14:	d5f6      	bpl.n	8001a04 <HAL_RCCEx_PeriphCLKConfig+0x498>
 8001a16:	e6b1      	b.n	800177c <HAL_RCCEx_PeriphCLKConfig+0x210>
    if(((((PeriphClkInit->PeriphClockSelection) & RCC_PERIPHCLK_SAI1) == RCC_PERIPHCLK_SAI1) && (PeriphClkInit->Sai1ClockSelection == RCC_SAI1CLKSOURCE_PLLI2S)) ||
 8001a18:	6be2      	ldr	r2, [r4, #60]	; 0x3c
 8001a1a:	f5b2 1f80 	cmp.w	r2, #1048576	; 0x100000
 8001a1e:	f47f aeea 	bne.w	80017f6 <HAL_RCCEx_PeriphCLKConfig+0x28a>
      tmpreg0 = ((RCC->PLLI2SCFGR & RCC_PLLI2SCFGR_PLLI2SP) >> RCC_PLLI2SCFGR_PLLI2SP_Pos);
 8001a22:	4e1f      	ldr	r6, [pc, #124]	; (8001aa0 <HAL_RCCEx_PeriphCLKConfig+0x534>)
      __HAL_RCC_PLLI2S_CONFIG(PeriphClkInit->PLLI2S.PLLI2SN, tmpreg0, PeriphClkInit->PLLI2S.PLLI2SQ, tmpreg1);
 8001a24:	6860      	ldr	r0, [r4, #4]
      tmpreg0 = ((RCC->PLLI2SCFGR & RCC_PLLI2SCFGR_PLLI2SP) >> RCC_PLLI2SCFGR_PLLI2SP_Pos);
 8001a26:	f8d6 2084 	ldr.w	r2, [r6, #132]	; 0x84
      tmpreg1 = ((RCC->PLLI2SCFGR & RCC_PLLI2SCFGR_PLLI2SR) >> RCC_PLLI2SCFGR_PLLI2SR_Pos);
 8001a2a:	f8d6 7084 	ldr.w	r7, [r6, #132]	; 0x84
      __HAL_RCC_PLLI2S_CONFIG(PeriphClkInit->PLLI2S.PLLI2SN, tmpreg0, PeriphClkInit->PLLI2S.PLLI2SQ, tmpreg1);
 8001a2e:	f402 3240 	and.w	r2, r2, #196608	; 0x30000
 8001a32:	68e1      	ldr	r1, [r4, #12]
 8001a34:	f007 47e0 	and.w	r7, r7, #1879048192	; 0x70000000
 8001a38:	433a      	orrs	r2, r7
 8001a3a:	ea42 1280 	orr.w	r2, r2, r0, lsl #6
 8001a3e:	ea42 6201 	orr.w	r2, r2, r1, lsl #24
 8001a42:	f8c6 2084 	str.w	r2, [r6, #132]	; 0x84
      __HAL_RCC_PLLI2S_PLLSAICLKDIVQ_CONFIG(PeriphClkInit->PLLI2SDivQ);
 8001a46:	f8d6 108c 	ldr.w	r1, [r6, #140]	; 0x8c
 8001a4a:	6a62      	ldr	r2, [r4, #36]	; 0x24
 8001a4c:	f021 011f 	bic.w	r1, r1, #31
 8001a50:	3a01      	subs	r2, #1
 8001a52:	430a      	orrs	r2, r1
 8001a54:	f8c6 208c 	str.w	r2, [r6, #140]	; 0x8c
 8001a58:	e6d4      	b.n	8001804 <HAL_RCCEx_PeriphCLKConfig+0x298>
    __HAL_RCC_RTC_CONFIG(PeriphClkInit->RTCClockSelection);
 8001a5a:	4811      	ldr	r0, [pc, #68]	; (8001aa0 <HAL_RCCEx_PeriphCLKConfig+0x534>)
 8001a5c:	4912      	ldr	r1, [pc, #72]	; (8001aa8 <HAL_RCCEx_PeriphCLKConfig+0x53c>)
 8001a5e:	6882      	ldr	r2, [r0, #8]
 8001a60:	4019      	ands	r1, r3
 8001a62:	f422 12f8 	bic.w	r2, r2, #2031616	; 0x1f0000
 8001a66:	430a      	orrs	r2, r1
 8001a68:	6082      	str	r2, [r0, #8]
 8001a6a:	e74a      	b.n	8001902 <HAL_RCCEx_PeriphCLKConfig+0x396>
    if(((((PeriphClkInit->PeriphClockSelection) & RCC_PERIPHCLK_SAI1) == RCC_PERIPHCLK_SAI1) && (PeriphClkInit->Sai1ClockSelection == RCC_SAI1CLKSOURCE_PLLSAI)) ||\
 8001a6c:	6be2      	ldr	r2, [r4, #60]	; 0x3c
 8001a6e:	2a00      	cmp	r2, #0
 8001a70:	f43f af6e 	beq.w	8001950 <HAL_RCCEx_PeriphCLKConfig+0x3e4>
 8001a74:	e768      	b.n	8001948 <HAL_RCCEx_PeriphCLKConfig+0x3dc>
        while(__HAL_RCC_GET_FLAG(RCC_FLAG_LSERDY) == RESET)
 8001a76:	4617      	mov	r7, r2
          if((HAL_GetTick() - tickstart ) > RCC_LSE_TIMEOUT_VALUE)
 8001a78:	f241 3888 	movw	r8, #5000	; 0x1388
        tickstart = HAL_GetTick();
 8001a7c:	f7fe fdd8 	bl	8000630 <HAL_GetTick>
 8001a80:	4681      	mov	r9, r0
        while(__HAL_RCC_GET_FLAG(RCC_FLAG_LSERDY) == RESET)
 8001a82:	e006      	b.n	8001a92 <HAL_RCCEx_PeriphCLKConfig+0x526>
          if((HAL_GetTick() - tickstart ) > RCC_LSE_TIMEOUT_VALUE)
 8001a84:	f7fe fdd4 	bl	8000630 <HAL_GetTick>
 8001a88:	eba0 0009 	sub.w	r0, r0, r9
 8001a8c:	4540      	cmp	r0, r8
 8001a8e:	f63f aef4 	bhi.w	800187a <HAL_RCCEx_PeriphCLKConfig+0x30e>
        while(__HAL_RCC_GET_FLAG(RCC_FLAG_LSERDY) == RESET)
 8001a92:	6f3b      	ldr	r3, [r7, #112]	; 0x70
 8001a94:	0798      	lsls	r0, r3, #30
 8001a96:	d5f5      	bpl.n	8001a84 <HAL_RCCEx_PeriphCLKConfig+0x518>
 8001a98:	6b23      	ldr	r3, [r4, #48]	; 0x30
 8001a9a:	f403 7040 	and.w	r0, r3, #768	; 0x300
 8001a9e:	e727      	b.n	80018f0 <HAL_RCCEx_PeriphCLKConfig+0x384>
 8001aa0:	40023800 	.word	0x40023800
 8001aa4:	40007000 	.word	0x40007000
 8001aa8:	0ffffcff 	.word	0x0ffffcff

08001aac <HAL_RTC_SetAlarm>:
  assert_param(IS_RTC_ALARM_DATE_WEEKDAY_SEL(sAlarm->AlarmDateWeekDaySel));
  assert_param(IS_RTC_ALARM_SUB_SECOND_VALUE(sAlarm->AlarmTime.SubSeconds));
  assert_param(IS_RTC_ALARM_SUB_SECOND_MASK(sAlarm->AlarmSubSecondMask));

  /* Process Locked */
  __HAL_LOCK(hrtc);
 8001aac:	7f03      	ldrb	r3, [r0, #28]
 8001aae:	2b01      	cmp	r3, #1
 8001ab0:	f000 80d7 	beq.w	8001c62 <HAL_RTC_SetAlarm+0x1b6>

  hrtc->State = HAL_RTC_STATE_BUSY;
 8001ab4:	2302      	movs	r3, #2
{
 8001ab6:	e92d 41f0 	stmdb	sp!, {r4, r5, r6, r7, r8, lr}
 8001aba:	4605      	mov	r5, r0
  __HAL_LOCK(hrtc);
 8001abc:	2001      	movs	r0, #1
 8001abe:	682f      	ldr	r7, [r5, #0]
 8001ac0:	7728      	strb	r0, [r5, #28]
  hrtc->State = HAL_RTC_STATE_BUSY;
 8001ac2:	776b      	strb	r3, [r5, #29]

  if(Format == RTC_FORMAT_BIN)
 8001ac4:	2a00      	cmp	r2, #0
 8001ac6:	d04d      	beq.n	8001b64 <HAL_RTC_SetAlarm+0xb8>
              ((uint32_t)sAlarm->AlarmDateWeekDaySel) | \
              ((uint32_t)sAlarm->AlarmMask));
  }
  else
  {
    if((hrtc->Instance->CR & RTC_CR_FMT) != (uint32_t)RESET)
 8001ac8:	68bc      	ldr	r4, [r7, #8]
 8001aca:	f014 0e40 	ands.w	lr, r4, #64	; 0x40
 8001ace:	f000 80c2 	beq.w	8001c56 <HAL_RTC_SetAlarm+0x1aa>
 8001ad2:	7b0c      	ldrb	r4, [r1, #12]
 8001ad4:	ea4f 4e04 	mov.w	lr, r4, lsl #16
    else
    {
      assert_param(IS_RTC_ALARM_DATE_WEEKDAY_WEEKDAY(RTC_Bcd2ToByte(sAlarm->AlarmDateWeekDay)));
    }

    tmpreg = (((uint32_t)(sAlarm->AlarmTime.Hours) << 16) | \
 8001ad8:	6a0b      	ldr	r3, [r1, #32]
 8001ada:	698c      	ldr	r4, [r1, #24]
              ((uint32_t)(sAlarm->AlarmTime.Minutes) << 8) | \
              ((uint32_t) sAlarm->AlarmTime.Seconds) | \
 8001adc:	788a      	ldrb	r2, [r1, #2]
    tmpreg = (((uint32_t)(sAlarm->AlarmTime.Hours) << 16) | \
 8001ade:	431c      	orrs	r4, r3
 8001ae0:	780b      	ldrb	r3, [r1, #0]
 8001ae2:	4314      	orrs	r4, r2
              ((uint32_t)(sAlarm->AlarmTime.Minutes) << 8) | \
 8001ae4:	784a      	ldrb	r2, [r1, #1]
    tmpreg = (((uint32_t)(sAlarm->AlarmTime.Hours) << 16) | \
 8001ae6:	ea44 4403 	orr.w	r4, r4, r3, lsl #16
              ((uint32_t)(sAlarm->AlarmTime.TimeFormat) << 16) | \
              ((uint32_t)(sAlarm->AlarmDateWeekDay) << 24) | \
 8001aea:	f891 3024 	ldrb.w	r3, [r1, #36]	; 0x24
    tmpreg = (((uint32_t)(sAlarm->AlarmTime.Hours) << 16) | \
 8001aee:	ea44 2402 	orr.w	r4, r4, r2, lsl #8
 8001af2:	ea44 6403 	orr.w	r4, r4, r3, lsl #24
 8001af6:	ea44 040e 	orr.w	r4, r4, lr

  /* Disable the write protection for RTC registers */
  __HAL_RTC_WRITEPROTECTION_DISABLE(hrtc);

  /* Configure the Alarm register */
  if(sAlarm->Alarm == RTC_ALARM_A)
 8001afa:	6a8b      	ldr	r3, [r1, #40]	; 0x28
  __HAL_RTC_WRITEPROTECTION_DISABLE(hrtc);
 8001afc:	20ca      	movs	r0, #202	; 0xca
 8001afe:	2253      	movs	r2, #83	; 0x53
  subsecondtmpreg = (uint32_t)((uint32_t)(sAlarm->AlarmTime.SubSeconds) | (uint32_t)(sAlarm->AlarmSubSecondMask));
 8001b00:	f8d1 8004 	ldr.w	r8, [r1, #4]
 8001b04:	69ce      	ldr	r6, [r1, #28]
  if(sAlarm->Alarm == RTC_ALARM_A)
 8001b06:	f5b3 7f80 	cmp.w	r3, #256	; 0x100
  __HAL_RTC_WRITEPROTECTION_DISABLE(hrtc);
 8001b0a:	6278      	str	r0, [r7, #36]	; 0x24
 8001b0c:	627a      	str	r2, [r7, #36]	; 0x24
  subsecondtmpreg = (uint32_t)((uint32_t)(sAlarm->AlarmTime.SubSeconds) | (uint32_t)(sAlarm->AlarmSubSecondMask));
 8001b0e:	ea48 0806 	orr.w	r8, r8, r6
  {
    /* Disable the Alarm A interrupt */
    __HAL_RTC_ALARMA_DISABLE(hrtc);
 8001b12:	68bb      	ldr	r3, [r7, #8]
  if(sAlarm->Alarm == RTC_ALARM_A)
 8001b14:	f000 8081 	beq.w	8001c1a <HAL_RTC_SetAlarm+0x16e>
    __HAL_RTC_ALARMA_ENABLE(hrtc);
  }
  else
  {
    /* Disable the Alarm B interrupt */
    __HAL_RTC_ALARMB_DISABLE(hrtc);
 8001b18:	f423 7300 	bic.w	r3, r3, #512	; 0x200
 8001b1c:	60bb      	str	r3, [r7, #8]

    /* In case of interrupt mode is used, the interrupt source must disabled */
    __HAL_RTC_ALARM_DISABLE_IT(hrtc, RTC_IT_ALRB);
 8001b1e:	68bb      	ldr	r3, [r7, #8]
 8001b20:	f423 5300 	bic.w	r3, r3, #8192	; 0x2000
 8001b24:	60bb      	str	r3, [r7, #8]

    /* Get tick */
    tickstart = HAL_GetTick();
 8001b26:	f7fe fd83 	bl	8000630 <HAL_GetTick>
 8001b2a:	4607      	mov	r7, r0

    /* Wait till RTC ALRBWF flag is set and if Time out is reached exit */
    while(__HAL_RTC_ALARM_GET_FLAG(hrtc, RTC_FLAG_ALRBWF) == RESET)
 8001b2c:	e005      	b.n	8001b3a <HAL_RTC_SetAlarm+0x8e>
    {
      if((HAL_GetTick() - tickstart ) > RTC_TIMEOUT_VALUE)
 8001b2e:	f7fe fd7f 	bl	8000630 <HAL_GetTick>
 8001b32:	1bc0      	subs	r0, r0, r7
 8001b34:	f5b0 7f7a 	cmp.w	r0, #1000	; 0x3e8
 8001b38:	d866      	bhi.n	8001c08 <HAL_RTC_SetAlarm+0x15c>
    while(__HAL_RTC_ALARM_GET_FLAG(hrtc, RTC_FLAG_ALRBWF) == RESET)
 8001b3a:	682a      	ldr	r2, [r5, #0]
 8001b3c:	68d6      	ldr	r6, [r2, #12]
 8001b3e:	f016 0602 	ands.w	r6, r6, #2
 8001b42:	d0f4      	beq.n	8001b2e <HAL_RTC_SetAlarm+0x82>

        return HAL_TIMEOUT;
      }
    }

    hrtc->Instance->ALRMBR = (uint32_t)tmpreg;
 8001b44:	6214      	str	r4, [r2, #32]
    /* Configure the Alarm B Sub Second register */
    hrtc->Instance->ALRMBSSR = subsecondtmpreg;
 8001b46:	f8c2 8048 	str.w	r8, [r2, #72]	; 0x48
    /* Configure the Alarm state: Enable Alarm */
    __HAL_RTC_ALARMB_ENABLE(hrtc);
 8001b4a:	6893      	ldr	r3, [r2, #8]
 8001b4c:	f443 7300 	orr.w	r3, r3, #512	; 0x200
 8001b50:	6093      	str	r3, [r2, #8]

  /* Change RTC state */
  hrtc->State = HAL_RTC_STATE_READY;

  /* Process Unlocked */
  __HAL_UNLOCK(hrtc);
 8001b52:	2300      	movs	r3, #0
  __HAL_RTC_WRITEPROTECTION_ENABLE(hrtc);
 8001b54:	20ff      	movs	r0, #255	; 0xff
  hrtc->State = HAL_RTC_STATE_READY;
 8001b56:	2101      	movs	r1, #1
  __HAL_RTC_WRITEPROTECTION_ENABLE(hrtc);
 8001b58:	6250      	str	r0, [r2, #36]	; 0x24

  return HAL_OK;
 8001b5a:	4618      	mov	r0, r3
  hrtc->State = HAL_RTC_STATE_READY;
 8001b5c:	7769      	strb	r1, [r5, #29]
  __HAL_UNLOCK(hrtc);
 8001b5e:	772b      	strb	r3, [r5, #28]
}
 8001b60:	e8bd 81f0 	ldmia.w	sp!, {r4, r5, r6, r7, r8, pc}
    if((hrtc->Instance->CR & RTC_CR_FMT) != (uint32_t)RESET)
 8001b64:	68be      	ldr	r6, [r7, #8]
 8001b66:	f016 0c40 	ands.w	ip, r6, #64	; 0x40
 8001b6a:	d077      	beq.n	8001c5c <HAL_RTC_SetAlarm+0x1b0>
 8001b6c:	f891 c00c 	ldrb.w	ip, [r1, #12]
 8001b70:	ea4f 4c0c 	mov.w	ip, ip, lsl #16
    tmpreg = (((uint32_t)RTC_ByteToBcd2(sAlarm->AlarmTime.Hours) << 16) | \
 8001b74:	780b      	ldrb	r3, [r1, #0]
  * @param  Value Byte to be converted
  * @retval Converted byte
  */
uint8_t RTC_ByteToBcd2(uint8_t Value)
{
  uint32_t bcdhigh = 0;
 8001b76:	2000      	movs	r0, #0
    if(sAlarm->AlarmDateWeekDaySel == RTC_ALARMDATEWEEKDAYSEL_DATE)
 8001b78:	6a0e      	ldr	r6, [r1, #32]

  while(Value >= 10)
 8001b7a:	2b09      	cmp	r3, #9
 8001b7c:	d906      	bls.n	8001b8c <HAL_RTC_SetAlarm+0xe0>
  {
    bcdhigh++;
    Value -= 10;
 8001b7e:	3b0a      	subs	r3, #10
    bcdhigh++;
 8001b80:	3001      	adds	r0, #1
    Value -= 10;
 8001b82:	b2db      	uxtb	r3, r3
  while(Value >= 10)
 8001b84:	2b09      	cmp	r3, #9
 8001b86:	d8fa      	bhi.n	8001b7e <HAL_RTC_SetAlarm+0xd2>
 8001b88:	0100      	lsls	r0, r0, #4
 8001b8a:	b2c0      	uxtb	r0, r0
    tmpreg = (((uint32_t)RTC_ByteToBcd2(sAlarm->AlarmTime.Hours) << 16) | \
 8001b8c:	4318      	orrs	r0, r3
              ((uint32_t)RTC_ByteToBcd2(sAlarm->AlarmTime.Minutes) << 8) | \
 8001b8e:	784b      	ldrb	r3, [r1, #1]
  uint32_t bcdhigh = 0;
 8001b90:	2400      	movs	r4, #0
  while(Value >= 10)
 8001b92:	2b09      	cmp	r3, #9
    tmpreg = (((uint32_t)RTC_ByteToBcd2(sAlarm->AlarmTime.Hours) << 16) | \
 8001b94:	ea4f 4000 	mov.w	r0, r0, lsl #16
  while(Value >= 10)
 8001b98:	d906      	bls.n	8001ba8 <HAL_RTC_SetAlarm+0xfc>
    Value -= 10;
 8001b9a:	3b0a      	subs	r3, #10
    bcdhigh++;
 8001b9c:	3401      	adds	r4, #1
    Value -= 10;
 8001b9e:	b2db      	uxtb	r3, r3
  while(Value >= 10)
 8001ba0:	2b09      	cmp	r3, #9
 8001ba2:	d8fa      	bhi.n	8001b9a <HAL_RTC_SetAlarm+0xee>
 8001ba4:	0124      	lsls	r4, r4, #4
 8001ba6:	b2e4      	uxtb	r4, r4
              ((uint32_t)RTC_ByteToBcd2(sAlarm->AlarmTime.Minutes) << 8) | \
 8001ba8:	4323      	orrs	r3, r4
              ((uint32_t)RTC_ByteToBcd2(sAlarm->AlarmTime.Seconds)) | \
 8001baa:	788c      	ldrb	r4, [r1, #2]
  while(Value >= 10)
 8001bac:	2c09      	cmp	r4, #9
              ((uint32_t)RTC_ByteToBcd2(sAlarm->AlarmTime.Minutes) << 8) | \
 8001bae:	ea4f 2303 	mov.w	r3, r3, lsl #8
  while(Value >= 10)
 8001bb2:	d95a      	bls.n	8001c6a <HAL_RTC_SetAlarm+0x1be>
  uint32_t bcdhigh = 0;
 8001bb4:	f04f 0e00 	mov.w	lr, #0
    Value -= 10;
 8001bb8:	3c0a      	subs	r4, #10
    bcdhigh++;
 8001bba:	f10e 0e01 	add.w	lr, lr, #1
    Value -= 10;
 8001bbe:	b2e4      	uxtb	r4, r4
  while(Value >= 10)
 8001bc0:	2c09      	cmp	r4, #9
 8001bc2:	d8f9      	bhi.n	8001bb8 <HAL_RTC_SetAlarm+0x10c>
 8001bc4:	ea4f 1e0e 	mov.w	lr, lr, lsl #4
 8001bc8:	fa5f f88e 	uxtb.w	r8, lr
              ((uint32_t)RTC_ByteToBcd2(sAlarm->AlarmDateWeekDay) << 24) | \
 8001bcc:	f891 e024 	ldrb.w	lr, [r1, #36]	; 0x24
              ((uint32_t)RTC_ByteToBcd2(sAlarm->AlarmTime.Seconds)) | \
 8001bd0:	ea44 0408 	orr.w	r4, r4, r8
  while(Value >= 10)
 8001bd4:	f1be 0f09 	cmp.w	lr, #9
 8001bd8:	d945      	bls.n	8001c66 <HAL_RTC_SetAlarm+0x1ba>
    Value -= 10;
 8001bda:	f1ae 0e0a 	sub.w	lr, lr, #10
    bcdhigh++;
 8001bde:	3201      	adds	r2, #1
    Value -= 10;
 8001be0:	fa5f fe8e 	uxtb.w	lr, lr
  while(Value >= 10)
 8001be4:	f1be 0f09 	cmp.w	lr, #9
 8001be8:	d8f7      	bhi.n	8001bda <HAL_RTC_SetAlarm+0x12e>
 8001bea:	0112      	lsls	r2, r2, #4
 8001bec:	b2d2      	uxtb	r2, r2
              ((uint32_t)RTC_ByteToBcd2(sAlarm->AlarmDateWeekDay) << 24) | \
 8001bee:	ea4e 0e02 	orr.w	lr, lr, r2
    tmpreg = (((uint32_t)RTC_ByteToBcd2(sAlarm->AlarmTime.Hours) << 16) | \
 8001bf2:	698a      	ldr	r2, [r1, #24]
 8001bf4:	4316      	orrs	r6, r2
 8001bf6:	ea46 0c0c 	orr.w	ip, r6, ip
 8001bfa:	ea4c 0000 	orr.w	r0, ip, r0
 8001bfe:	4303      	orrs	r3, r0
 8001c00:	431c      	orrs	r4, r3
 8001c02:	ea44 640e 	orr.w	r4, r4, lr, lsl #24
 8001c06:	e778      	b.n	8001afa <HAL_RTC_SetAlarm+0x4e>
        hrtc->State = HAL_RTC_STATE_TIMEOUT;
 8001c08:	2303      	movs	r3, #3
        __HAL_RTC_WRITEPROTECTION_ENABLE(hrtc);
 8001c0a:	682a      	ldr	r2, [r5, #0]
 8001c0c:	21ff      	movs	r1, #255	; 0xff
        return HAL_TIMEOUT;
 8001c0e:	4618      	mov	r0, r3
        __HAL_RTC_WRITEPROTECTION_ENABLE(hrtc);
 8001c10:	6251      	str	r1, [r2, #36]	; 0x24
        __HAL_UNLOCK(hrtc);
 8001c12:	772e      	strb	r6, [r5, #28]
        hrtc->State = HAL_RTC_STATE_TIMEOUT;
 8001c14:	776b      	strb	r3, [r5, #29]
}
 8001c16:	e8bd 81f0 	ldmia.w	sp!, {r4, r5, r6, r7, r8, pc}
    __HAL_RTC_ALARMA_DISABLE(hrtc);
 8001c1a:	f423 7380 	bic.w	r3, r3, #256	; 0x100
 8001c1e:	60bb      	str	r3, [r7, #8]
    __HAL_RTC_ALARM_DISABLE_IT(hrtc, RTC_IT_ALRA);
 8001c20:	68bb      	ldr	r3, [r7, #8]
 8001c22:	f423 5380 	bic.w	r3, r3, #4096	; 0x1000
 8001c26:	60bb      	str	r3, [r7, #8]
    tickstart = HAL_GetTick();
 8001c28:	f7fe fd02 	bl	8000630 <HAL_GetTick>
 8001c2c:	4607      	mov	r7, r0
    while(__HAL_RTC_ALARM_GET_FLAG(hrtc, RTC_FLAG_ALRAWF) == RESET)
 8001c2e:	e005      	b.n	8001c3c <HAL_RTC_SetAlarm+0x190>
      if((HAL_GetTick() - tickstart ) > RTC_TIMEOUT_VALUE)
 8001c30:	f7fe fcfe 	bl	8000630 <HAL_GetTick>
 8001c34:	1bc0      	subs	r0, r0, r7
 8001c36:	f5b0 7f7a 	cmp.w	r0, #1000	; 0x3e8
 8001c3a:	d8e5      	bhi.n	8001c08 <HAL_RTC_SetAlarm+0x15c>
    while(__HAL_RTC_ALARM_GET_FLAG(hrtc, RTC_FLAG_ALRAWF) == RESET)
 8001c3c:	682a      	ldr	r2, [r5, #0]
 8001c3e:	68d6      	ldr	r6, [r2, #12]
 8001c40:	f016 0601 	ands.w	r6, r6, #1
 8001c44:	d0f4      	beq.n	8001c30 <HAL_RTC_SetAlarm+0x184>
    hrtc->Instance->ALRMAR = (uint32_t)tmpreg;
 8001c46:	61d4      	str	r4, [r2, #28]
    hrtc->Instance->ALRMASSR = subsecondtmpreg;
 8001c48:	f8c2 8044 	str.w	r8, [r2, #68]	; 0x44
    __HAL_RTC_ALARMA_ENABLE(hrtc);
 8001c4c:	6893      	ldr	r3, [r2, #8]
 8001c4e:	f443 7380 	orr.w	r3, r3, #256	; 0x100
 8001c52:	6093      	str	r3, [r2, #8]
 8001c54:	e77d      	b.n	8001b52 <HAL_RTC_SetAlarm+0xa6>
      sAlarm->AlarmTime.TimeFormat = 0x00;
 8001c56:	f881 e00c 	strb.w	lr, [r1, #12]
 8001c5a:	e73d      	b.n	8001ad8 <HAL_RTC_SetAlarm+0x2c>
      sAlarm->AlarmTime.TimeFormat = 0x00;
 8001c5c:	f881 c00c 	strb.w	ip, [r1, #12]
 8001c60:	e788      	b.n	8001b74 <HAL_RTC_SetAlarm+0xc8>
  __HAL_LOCK(hrtc);
 8001c62:	2002      	movs	r0, #2
}
 8001c64:	4770      	bx	lr
  while(Value >= 10)
 8001c66:	2200      	movs	r2, #0
 8001c68:	e7c1      	b.n	8001bee <HAL_RTC_SetAlarm+0x142>
 8001c6a:	f04f 0800 	mov.w	r8, #0
 8001c6e:	e7ad      	b.n	8001bcc <HAL_RTC_SetAlarm+0x120>

08001c70 <HAL_RTC_WaitForSynchro>:
  hrtc->Instance->ISR &= (uint32_t)RTC_RSF_MASK;
 8001c70:	6802      	ldr	r2, [r0, #0]
{
 8001c72:	b538      	push	{r3, r4, r5, lr}
  hrtc->Instance->ISR &= (uint32_t)RTC_RSF_MASK;
 8001c74:	68d3      	ldr	r3, [r2, #12]
{
 8001c76:	4604      	mov	r4, r0
  hrtc->Instance->ISR &= (uint32_t)RTC_RSF_MASK;
 8001c78:	f023 03a0 	bic.w	r3, r3, #160	; 0xa0
 8001c7c:	60d3      	str	r3, [r2, #12]
    tickstart = HAL_GetTick();
 8001c7e:	f7fe fcd7 	bl	8000630 <HAL_GetTick>
 8001c82:	4605      	mov	r5, r0
  while((hrtc->Instance->ISR & RTC_ISR_RSF) == (uint32_t)RESET)
 8001c84:	e005      	b.n	8001c92 <HAL_RTC_WaitForSynchro+0x22>
    if((HAL_GetTick() - tickstart ) > RTC_TIMEOUT_VALUE)
 8001c86:	f7fe fcd3 	bl	8000630 <HAL_GetTick>
 8001c8a:	1b40      	subs	r0, r0, r5
 8001c8c:	f5b0 7f7a 	cmp.w	r0, #1000	; 0x3e8
 8001c90:	d805      	bhi.n	8001c9e <HAL_RTC_WaitForSynchro+0x2e>
  while((hrtc->Instance->ISR & RTC_ISR_RSF) == (uint32_t)RESET)
 8001c92:	6823      	ldr	r3, [r4, #0]
 8001c94:	68db      	ldr	r3, [r3, #12]
 8001c96:	069b      	lsls	r3, r3, #26
 8001c98:	d5f5      	bpl.n	8001c86 <HAL_RTC_WaitForSynchro+0x16>
  return HAL_OK;
 8001c9a:	2000      	movs	r0, #0
}
 8001c9c:	bd38      	pop	{r3, r4, r5, pc}
      return HAL_TIMEOUT;
 8001c9e:	2003      	movs	r0, #3
}
 8001ca0:	bd38      	pop	{r3, r4, r5, pc}
 8001ca2:	bf00      	nop

08001ca4 <RTC_EnterInitMode>:
{
 8001ca4:	b538      	push	{r3, r4, r5, lr}
  if((hrtc->Instance->ISR & RTC_ISR_INITF) == (uint32_t)RESET)
 8001ca6:	6803      	ldr	r3, [r0, #0]
 8001ca8:	68da      	ldr	r2, [r3, #12]
 8001caa:	0652      	lsls	r2, r2, #25
 8001cac:	d501      	bpl.n	8001cb2 <RTC_EnterInitMode+0xe>
  return HAL_OK;
 8001cae:	2000      	movs	r0, #0
}
 8001cb0:	bd38      	pop	{r3, r4, r5, pc}
    hrtc->Instance->ISR = (uint32_t)RTC_INIT_MASK;
 8001cb2:	f04f 32ff 	mov.w	r2, #4294967295
 8001cb6:	4604      	mov	r4, r0
 8001cb8:	60da      	str	r2, [r3, #12]
    tickstart = HAL_GetTick();
 8001cba:	f7fe fcb9 	bl	8000630 <HAL_GetTick>
 8001cbe:	4605      	mov	r5, r0
    while((hrtc->Instance->ISR & RTC_ISR_INITF) == (uint32_t)RESET)
 8001cc0:	6823      	ldr	r3, [r4, #0]
 8001cc2:	68db      	ldr	r3, [r3, #12]
 8001cc4:	065b      	lsls	r3, r3, #25
 8001cc6:	d4f2      	bmi.n	8001cae <RTC_EnterInitMode+0xa>
      if((HAL_GetTick() - tickstart ) > RTC_TIMEOUT_VALUE)
 8001cc8:	f7fe fcb2 	bl	8000630 <HAL_GetTick>
 8001ccc:	1b40      	subs	r0, r0, r5
 8001cce:	f5b0 7f7a 	cmp.w	r0, #1000	; 0x3e8
 8001cd2:	d9f5      	bls.n	8001cc0 <RTC_EnterInitMode+0x1c>
        return HAL_TIMEOUT;
 8001cd4:	2003      	movs	r0, #3
}
 8001cd6:	bd38      	pop	{r3, r4, r5, pc}

08001cd8 <HAL_RTC_Init>:
  if(hrtc == NULL)
 8001cd8:	2800      	cmp	r0, #0
 8001cda:	d041      	beq.n	8001d60 <HAL_RTC_Init+0x88>
{
 8001cdc:	b5f8      	push	{r3, r4, r5, r6, r7, lr}
  if(hrtc->State == HAL_RTC_STATE_RESET)
 8001cde:	7f43      	ldrb	r3, [r0, #29]
 8001ce0:	4604      	mov	r4, r0
 8001ce2:	f003 02ff 	and.w	r2, r3, #255	; 0xff
 8001ce6:	2b00      	cmp	r3, #0
 8001ce8:	d036      	beq.n	8001d58 <HAL_RTC_Init+0x80>
  hrtc->State = HAL_RTC_STATE_BUSY;
 8001cea:	2002      	movs	r0, #2
  __HAL_RTC_WRITEPROTECTION_DISABLE(hrtc);
 8001cec:	6823      	ldr	r3, [r4, #0]
 8001cee:	21ca      	movs	r1, #202	; 0xca
 8001cf0:	2253      	movs	r2, #83	; 0x53
  hrtc->State = HAL_RTC_STATE_BUSY;
 8001cf2:	7760      	strb	r0, [r4, #29]
  if(RTC_EnterInitMode(hrtc) != HAL_OK)
 8001cf4:	4620      	mov	r0, r4
  __HAL_RTC_WRITEPROTECTION_DISABLE(hrtc);
 8001cf6:	6259      	str	r1, [r3, #36]	; 0x24
 8001cf8:	625a      	str	r2, [r3, #36]	; 0x24
  if(RTC_EnterInitMode(hrtc) != HAL_OK)
 8001cfa:	f7ff ffd3 	bl	8001ca4 <RTC_EnterInitMode>
 8001cfe:	bb20      	cbnz	r0, 8001d4a <HAL_RTC_Init+0x72>
    hrtc->Instance->CR &= ((uint32_t)~(RTC_CR_FMT | RTC_CR_OSEL | RTC_CR_POL));
 8001d00:	6823      	ldr	r3, [r4, #0]
    __HAL_RTC_WRITEPROTECTION_ENABLE(hrtc);
 8001d02:	25ff      	movs	r5, #255	; 0xff
    hrtc->Instance->CR &= ((uint32_t)~(RTC_CR_FMT | RTC_CR_OSEL | RTC_CR_POL));
 8001d04:	4917      	ldr	r1, [pc, #92]	; (8001d64 <HAL_RTC_Init+0x8c>)
 8001d06:	689e      	ldr	r6, [r3, #8]
    hrtc->Instance->CR |= (uint32_t)(hrtc->Init.HourFormat | hrtc->Init.OutPut | hrtc->Init.OutPutPolarity);
 8001d08:	6862      	ldr	r2, [r4, #4]
    hrtc->Instance->CR &= ((uint32_t)~(RTC_CR_FMT | RTC_CR_OSEL | RTC_CR_POL));
 8001d0a:	4031      	ands	r1, r6
    hrtc->Instance->CR |= (uint32_t)(hrtc->Init.HourFormat | hrtc->Init.OutPut | hrtc->Init.OutPutPolarity);
 8001d0c:	6926      	ldr	r6, [r4, #16]
    hrtc->Instance->PRER |= (uint32_t)(hrtc->Init.AsynchPrediv << 16);
 8001d0e:	68a7      	ldr	r7, [r4, #8]
    hrtc->Instance->CR |= (uint32_t)(hrtc->Init.HourFormat | hrtc->Init.OutPut | hrtc->Init.OutPutPolarity);
 8001d10:	4332      	orrs	r2, r6
 8001d12:	6966      	ldr	r6, [r4, #20]
    hrtc->Instance->CR &= ((uint32_t)~(RTC_CR_FMT | RTC_CR_OSEL | RTC_CR_POL));
 8001d14:	6099      	str	r1, [r3, #8]
    hrtc->Instance->CR |= (uint32_t)(hrtc->Init.HourFormat | hrtc->Init.OutPut | hrtc->Init.OutPutPolarity);
 8001d16:	4332      	orrs	r2, r6
 8001d18:	689e      	ldr	r6, [r3, #8]
    hrtc->Instance->PRER = (uint32_t)(hrtc->Init.SynchPrediv);
 8001d1a:	68e1      	ldr	r1, [r4, #12]
    hrtc->Instance->CR |= (uint32_t)(hrtc->Init.HourFormat | hrtc->Init.OutPut | hrtc->Init.OutPutPolarity);
 8001d1c:	4332      	orrs	r2, r6
    hrtc->State = HAL_RTC_STATE_READY;
 8001d1e:	2601      	movs	r6, #1
    hrtc->Instance->CR |= (uint32_t)(hrtc->Init.HourFormat | hrtc->Init.OutPut | hrtc->Init.OutPutPolarity);
 8001d20:	609a      	str	r2, [r3, #8]
    hrtc->Instance->PRER = (uint32_t)(hrtc->Init.SynchPrediv);
 8001d22:	6119      	str	r1, [r3, #16]
    hrtc->Instance->PRER |= (uint32_t)(hrtc->Init.AsynchPrediv << 16);
 8001d24:	6919      	ldr	r1, [r3, #16]
 8001d26:	ea41 4107 	orr.w	r1, r1, r7, lsl #16
    hrtc->Instance->OR |= (uint32_t)(hrtc->Init.OutPutType);
 8001d2a:	69a7      	ldr	r7, [r4, #24]
    hrtc->Instance->PRER |= (uint32_t)(hrtc->Init.AsynchPrediv << 16);
 8001d2c:	6119      	str	r1, [r3, #16]
    hrtc->Instance->ISR &= (uint32_t)~RTC_ISR_INIT;
 8001d2e:	68d9      	ldr	r1, [r3, #12]
 8001d30:	f021 0180 	bic.w	r1, r1, #128	; 0x80
 8001d34:	60d9      	str	r1, [r3, #12]
    hrtc->Instance->OR &= (uint32_t)~RTC_OR_ALARMTYPE;
 8001d36:	6cd9      	ldr	r1, [r3, #76]	; 0x4c
 8001d38:	f021 0108 	bic.w	r1, r1, #8
 8001d3c:	64d9      	str	r1, [r3, #76]	; 0x4c
    hrtc->Instance->OR |= (uint32_t)(hrtc->Init.OutPutType);
 8001d3e:	6cda      	ldr	r2, [r3, #76]	; 0x4c
 8001d40:	433a      	orrs	r2, r7
 8001d42:	64da      	str	r2, [r3, #76]	; 0x4c
    __HAL_RTC_WRITEPROTECTION_ENABLE(hrtc);
 8001d44:	625d      	str	r5, [r3, #36]	; 0x24
    hrtc->State = HAL_RTC_STATE_READY;
 8001d46:	7766      	strb	r6, [r4, #29]
}
 8001d48:	bdf8      	pop	{r3, r4, r5, r6, r7, pc}
    __HAL_RTC_WRITEPROTECTION_ENABLE(hrtc);
 8001d4a:	6822      	ldr	r2, [r4, #0]
 8001d4c:	21ff      	movs	r1, #255	; 0xff
    hrtc->State = HAL_RTC_STATE_ERROR;
 8001d4e:	2304      	movs	r3, #4
    return HAL_ERROR;
 8001d50:	2001      	movs	r0, #1
    __HAL_RTC_WRITEPROTECTION_ENABLE(hrtc);
 8001d52:	6251      	str	r1, [r2, #36]	; 0x24
    hrtc->State = HAL_RTC_STATE_ERROR;
 8001d54:	7763      	strb	r3, [r4, #29]
}
 8001d56:	bdf8      	pop	{r3, r4, r5, r6, r7, pc}
    hrtc->Lock = HAL_UNLOCKED;
 8001d58:	7702      	strb	r2, [r0, #28]
    HAL_RTC_MspInit(hrtc);
 8001d5a:	f001 ff79 	bl	8003c50 <HAL_RTC_MspInit>
 8001d5e:	e7c4      	b.n	8001cea <HAL_RTC_Init+0x12>
     return HAL_ERROR;
 8001d60:	2001      	movs	r0, #1
}
 8001d62:	4770      	bx	lr
 8001d64:	ff8fffbf 	.word	0xff8fffbf

08001d68 <HAL_RTC_SetTime>:
{
 8001d68:	b5f8      	push	{r3, r4, r5, r6, r7, lr}
  __HAL_LOCK(hrtc);
 8001d6a:	7f03      	ldrb	r3, [r0, #28]
 8001d6c:	2b01      	cmp	r3, #1
 8001d6e:	d07c      	beq.n	8001e6a <HAL_RTC_SetTime+0x102>
 8001d70:	460d      	mov	r5, r1
  hrtc->State = HAL_RTC_STATE_BUSY;
 8001d72:	2302      	movs	r3, #2
  __HAL_LOCK(hrtc);
 8001d74:	2101      	movs	r1, #1
 8001d76:	6806      	ldr	r6, [r0, #0]
  hrtc->State = HAL_RTC_STATE_BUSY;
 8001d78:	7743      	strb	r3, [r0, #29]
 8001d7a:	4604      	mov	r4, r0
  __HAL_LOCK(hrtc);
 8001d7c:	7701      	strb	r1, [r0, #28]
    if((hrtc->Instance->CR & RTC_CR_FMT) != (uint32_t)RESET)
 8001d7e:	68b7      	ldr	r7, [r6, #8]
  if(Format == RTC_FORMAT_BIN)
 8001d80:	2a00      	cmp	r2, #0
 8001d82:	d033      	beq.n	8001dec <HAL_RTC_SetTime+0x84>
    if((hrtc->Instance->CR & RTC_CR_FMT) != (uint32_t)RESET)
 8001d84:	f017 0740 	ands.w	r7, r7, #64	; 0x40
 8001d88:	d06b      	beq.n	8001e62 <HAL_RTC_SetTime+0xfa>
 8001d8a:	7b2f      	ldrb	r7, [r5, #12]
 8001d8c:	043f      	lsls	r7, r7, #16
              ((uint32_t)(sTime->Minutes) << 8) | \
 8001d8e:	7868      	ldrb	r0, [r5, #1]
    tmpreg = (((uint32_t)(sTime->Hours) << 16) | \
 8001d90:	782a      	ldrb	r2, [r5, #0]
              ((uint32_t)(sTime->Minutes) << 8) | \
 8001d92:	0200      	lsls	r0, r0, #8
              ((uint32_t)sTime->Seconds) | \
 8001d94:	78ab      	ldrb	r3, [r5, #2]
    tmpreg = (((uint32_t)(sTime->Hours) << 16) | \
 8001d96:	ea40 4002 	orr.w	r0, r0, r2, lsl #16
              ((uint32_t)(sTime->Minutes) << 8) | \
 8001d9a:	4318      	orrs	r0, r3
    tmpreg = (((uint32_t)(sTime->Hours) << 16) | \
 8001d9c:	4307      	orrs	r7, r0
  __HAL_RTC_WRITEPROTECTION_DISABLE(hrtc);
 8001d9e:	22ca      	movs	r2, #202	; 0xca
 8001da0:	2353      	movs	r3, #83	; 0x53
  if(RTC_EnterInitMode(hrtc) != HAL_OK)
 8001da2:	4620      	mov	r0, r4
  __HAL_RTC_WRITEPROTECTION_DISABLE(hrtc);
 8001da4:	6272      	str	r2, [r6, #36]	; 0x24
 8001da6:	6273      	str	r3, [r6, #36]	; 0x24
  if(RTC_EnterInitMode(hrtc) != HAL_OK)
 8001da8:	f7ff ff7c 	bl	8001ca4 <RTC_EnterInitMode>
 8001dac:	4606      	mov	r6, r0
 8001dae:	2800      	cmp	r0, #0
 8001db0:	d14d      	bne.n	8001e4e <HAL_RTC_SetTime+0xe6>
    hrtc->Instance->TR = (uint32_t)(tmpreg & RTC_TR_RESERVED_MASK);
 8001db2:	4937      	ldr	r1, [pc, #220]	; (8001e90 <HAL_RTC_SetTime+0x128>)
 8001db4:	6823      	ldr	r3, [r4, #0]
 8001db6:	4039      	ands	r1, r7
    hrtc->Instance->CR |= (uint32_t)(sTime->DayLightSaving | sTime->StoreOperation);
 8001db8:	e9d5 2004 	ldrd	r2, r0, [r5, #16]
    hrtc->Instance->TR = (uint32_t)(tmpreg & RTC_TR_RESERVED_MASK);
 8001dbc:	6019      	str	r1, [r3, #0]
    hrtc->Instance->CR &= (uint32_t)~RTC_CR_BKP;
 8001dbe:	6899      	ldr	r1, [r3, #8]
    hrtc->Instance->CR |= (uint32_t)(sTime->DayLightSaving | sTime->StoreOperation);
 8001dc0:	4302      	orrs	r2, r0
    hrtc->Instance->CR &= (uint32_t)~RTC_CR_BKP;
 8001dc2:	f421 2180 	bic.w	r1, r1, #262144	; 0x40000
 8001dc6:	6099      	str	r1, [r3, #8]
    hrtc->Instance->CR |= (uint32_t)(sTime->DayLightSaving | sTime->StoreOperation);
 8001dc8:	6899      	ldr	r1, [r3, #8]
 8001dca:	430a      	orrs	r2, r1
 8001dcc:	609a      	str	r2, [r3, #8]
    hrtc->Instance->ISR &= (uint32_t)~RTC_ISR_INIT;
 8001dce:	68da      	ldr	r2, [r3, #12]
 8001dd0:	f022 0280 	bic.w	r2, r2, #128	; 0x80
 8001dd4:	60da      	str	r2, [r3, #12]
    if((hrtc->Instance->CR & RTC_CR_BYPSHAD) == RESET)
 8001dd6:	689a      	ldr	r2, [r3, #8]
 8001dd8:	0692      	lsls	r2, r2, #26
 8001dda:	d549      	bpl.n	8001e70 <HAL_RTC_SetTime+0x108>
    __HAL_RTC_WRITEPROTECTION_ENABLE(hrtc);
 8001ddc:	20ff      	movs	r0, #255	; 0xff
   hrtc->State = HAL_RTC_STATE_READY;
 8001dde:	2101      	movs	r1, #1
   __HAL_UNLOCK(hrtc);
 8001de0:	2200      	movs	r2, #0
    __HAL_RTC_WRITEPROTECTION_ENABLE(hrtc);
 8001de2:	6258      	str	r0, [r3, #36]	; 0x24
   hrtc->State = HAL_RTC_STATE_READY;
 8001de4:	7761      	strb	r1, [r4, #29]
   __HAL_UNLOCK(hrtc);
 8001de6:	7722      	strb	r2, [r4, #28]
}
 8001de8:	4630      	mov	r0, r6
 8001dea:	bdf8      	pop	{r3, r4, r5, r6, r7, pc}
    if((hrtc->Instance->CR & RTC_CR_FMT) != (uint32_t)RESET)
 8001dec:	f017 0740 	ands.w	r7, r7, #64	; 0x40
 8001df0:	d039      	beq.n	8001e66 <HAL_RTC_SetTime+0xfe>
 8001df2:	7b2f      	ldrb	r7, [r5, #12]
 8001df4:	043f      	lsls	r7, r7, #16
    tmpreg = (uint32_t)(((uint32_t)RTC_ByteToBcd2(sTime->Hours) << 16) | \
 8001df6:	782b      	ldrb	r3, [r5, #0]
  uint32_t bcdhigh = 0;
 8001df8:	2100      	movs	r1, #0
  while(Value >= 10)
 8001dfa:	2b09      	cmp	r3, #9
 8001dfc:	d906      	bls.n	8001e0c <HAL_RTC_SetTime+0xa4>
    Value -= 10;
 8001dfe:	3b0a      	subs	r3, #10
    bcdhigh++;
 8001e00:	3101      	adds	r1, #1
    Value -= 10;
 8001e02:	b2db      	uxtb	r3, r3
  while(Value >= 10)
 8001e04:	2b09      	cmp	r3, #9
 8001e06:	d8fa      	bhi.n	8001dfe <HAL_RTC_SetTime+0x96>
 8001e08:	0109      	lsls	r1, r1, #4
 8001e0a:	b2c9      	uxtb	r1, r1
    tmpreg = (uint32_t)(((uint32_t)RTC_ByteToBcd2(sTime->Hours) << 16) | \
 8001e0c:	4319      	orrs	r1, r3
                        ((uint32_t)RTC_ByteToBcd2(sTime->Minutes) << 8) | \
 8001e0e:	786b      	ldrb	r3, [r5, #1]
  uint32_t bcdhigh = 0;
 8001e10:	2000      	movs	r0, #0
  while(Value >= 10)
 8001e12:	2b09      	cmp	r3, #9
    tmpreg = (uint32_t)(((uint32_t)RTC_ByteToBcd2(sTime->Hours) << 16) | \
 8001e14:	ea4f 4101 	mov.w	r1, r1, lsl #16
  while(Value >= 10)
 8001e18:	d906      	bls.n	8001e28 <HAL_RTC_SetTime+0xc0>
    Value -= 10;
 8001e1a:	3b0a      	subs	r3, #10
    bcdhigh++;
 8001e1c:	3001      	adds	r0, #1
    Value -= 10;
 8001e1e:	b2db      	uxtb	r3, r3
  while(Value >= 10)
 8001e20:	2b09      	cmp	r3, #9
 8001e22:	d8fa      	bhi.n	8001e1a <HAL_RTC_SetTime+0xb2>
 8001e24:	0100      	lsls	r0, r0, #4
 8001e26:	b2c0      	uxtb	r0, r0
                        ((uint32_t)RTC_ByteToBcd2(sTime->Minutes) << 8) | \
 8001e28:	4303      	orrs	r3, r0
                        ((uint32_t)RTC_ByteToBcd2(sTime->Seconds)) | \
 8001e2a:	78a8      	ldrb	r0, [r5, #2]
  while(Value >= 10)
 8001e2c:	2809      	cmp	r0, #9
                        ((uint32_t)RTC_ByteToBcd2(sTime->Minutes) << 8) | \
 8001e2e:	ea4f 2303 	mov.w	r3, r3, lsl #8
  while(Value >= 10)
 8001e32:	d92b      	bls.n	8001e8c <HAL_RTC_SetTime+0x124>
    Value -= 10;
 8001e34:	380a      	subs	r0, #10
    bcdhigh++;
 8001e36:	3201      	adds	r2, #1
    Value -= 10;
 8001e38:	b2c0      	uxtb	r0, r0
  while(Value >= 10)
 8001e3a:	2809      	cmp	r0, #9
 8001e3c:	d8fa      	bhi.n	8001e34 <HAL_RTC_SetTime+0xcc>
 8001e3e:	0112      	lsls	r2, r2, #4
 8001e40:	b2d2      	uxtb	r2, r2
    tmpreg = (uint32_t)(((uint32_t)RTC_ByteToBcd2(sTime->Hours) << 16) | \
 8001e42:	430f      	orrs	r7, r1
                        ((uint32_t)RTC_ByteToBcd2(sTime->Seconds)) | \
 8001e44:	4310      	orrs	r0, r2
    tmpreg = (uint32_t)(((uint32_t)RTC_ByteToBcd2(sTime->Hours) << 16) | \
 8001e46:	433b      	orrs	r3, r7
 8001e48:	ea43 0700 	orr.w	r7, r3, r0
 8001e4c:	e7a7      	b.n	8001d9e <HAL_RTC_SetTime+0x36>
    __HAL_RTC_WRITEPROTECTION_ENABLE(hrtc);
 8001e4e:	6821      	ldr	r1, [r4, #0]
 8001e50:	20ff      	movs	r0, #255	; 0xff
    hrtc->State = HAL_RTC_STATE_ERROR;
 8001e52:	2204      	movs	r2, #4
    __HAL_UNLOCK(hrtc);
 8001e54:	2300      	movs	r3, #0
    return HAL_ERROR;
 8001e56:	2601      	movs	r6, #1
    __HAL_RTC_WRITEPROTECTION_ENABLE(hrtc);
 8001e58:	6248      	str	r0, [r1, #36]	; 0x24
    hrtc->State = HAL_RTC_STATE_ERROR;
 8001e5a:	7762      	strb	r2, [r4, #29]
    __HAL_UNLOCK(hrtc);
 8001e5c:	7723      	strb	r3, [r4, #28]
}
 8001e5e:	4630      	mov	r0, r6
 8001e60:	bdf8      	pop	{r3, r4, r5, r6, r7, pc}
      sTime->TimeFormat = 0x00;
 8001e62:	732f      	strb	r7, [r5, #12]
 8001e64:	e793      	b.n	8001d8e <HAL_RTC_SetTime+0x26>
      sTime->TimeFormat = 0x00;
 8001e66:	732f      	strb	r7, [r5, #12]
 8001e68:	e7c5      	b.n	8001df6 <HAL_RTC_SetTime+0x8e>
  __HAL_LOCK(hrtc);
 8001e6a:	2602      	movs	r6, #2
}
 8001e6c:	4630      	mov	r0, r6
 8001e6e:	bdf8      	pop	{r3, r4, r5, r6, r7, pc}
      if(HAL_RTC_WaitForSynchro(hrtc) != HAL_OK)
 8001e70:	4620      	mov	r0, r4
 8001e72:	f7ff fefd 	bl	8001c70 <HAL_RTC_WaitForSynchro>
 8001e76:	b908      	cbnz	r0, 8001e7c <HAL_RTC_SetTime+0x114>
 8001e78:	6823      	ldr	r3, [r4, #0]
 8001e7a:	e7af      	b.n	8001ddc <HAL_RTC_SetTime+0x74>
        __HAL_RTC_WRITEPROTECTION_ENABLE(hrtc);
 8001e7c:	6822      	ldr	r2, [r4, #0]
 8001e7e:	21ff      	movs	r1, #255	; 0xff
        hrtc->State = HAL_RTC_STATE_ERROR;
 8001e80:	2304      	movs	r3, #4
        __HAL_RTC_WRITEPROTECTION_ENABLE(hrtc);
 8001e82:	6251      	str	r1, [r2, #36]	; 0x24
        __HAL_UNLOCK(hrtc);
 8001e84:	7726      	strb	r6, [r4, #28]
        return HAL_ERROR;
 8001e86:	2601      	movs	r6, #1
        hrtc->State = HAL_RTC_STATE_ERROR;
 8001e88:	7763      	strb	r3, [r4, #29]
        return HAL_ERROR;
 8001e8a:	e7ad      	b.n	8001de8 <HAL_RTC_SetTime+0x80>
  while(Value >= 10)
 8001e8c:	2200      	movs	r2, #0
 8001e8e:	e7d8      	b.n	8001e42 <HAL_RTC_SetTime+0xda>
 8001e90:	007f7f7f 	.word	0x007f7f7f

08001e94 <HAL_RTC_SetDate>:
 __HAL_LOCK(hrtc);
 8001e94:	7f03      	ldrb	r3, [r0, #28]
 8001e96:	2b01      	cmp	r3, #1
{
 8001e98:	b570      	push	{r4, r5, r6, lr}
 __HAL_LOCK(hrtc);
 8001e9a:	d06a      	beq.n	8001f72 <HAL_RTC_SetDate+0xde>
 8001e9c:	4605      	mov	r5, r0
  hrtc->State = HAL_RTC_STATE_BUSY;
 8001e9e:	2302      	movs	r3, #2
 __HAL_LOCK(hrtc);
 8001ea0:	2001      	movs	r0, #1
  hrtc->State = HAL_RTC_STATE_BUSY;
 8001ea2:	776b      	strb	r3, [r5, #29]
 __HAL_LOCK(hrtc);
 8001ea4:	7728      	strb	r0, [r5, #28]
 8001ea6:	780e      	ldrb	r6, [r1, #0]
 8001ea8:	78cb      	ldrb	r3, [r1, #3]
 8001eaa:	0376      	lsls	r6, r6, #13
 8001eac:	7848      	ldrb	r0, [r1, #1]
 8001eae:	788c      	ldrb	r4, [r1, #2]
  if((Format == RTC_FORMAT_BIN) && ((sDate->Month & 0x10U) == 0x10U))
 8001eb0:	b312      	cbz	r2, 8001ef8 <HAL_RTC_SetDate+0x64>
    datetmpreg = ((((uint32_t)sDate->Year) << 16) | \
 8001eb2:	ea46 4303 	orr.w	r3, r6, r3, lsl #16
 8001eb6:	431c      	orrs	r4, r3
 8001eb8:	ea44 2400 	orr.w	r4, r4, r0, lsl #8
  __HAL_RTC_WRITEPROTECTION_DISABLE(hrtc);
 8001ebc:	682b      	ldr	r3, [r5, #0]
 8001ebe:	21ca      	movs	r1, #202	; 0xca
 8001ec0:	2253      	movs	r2, #83	; 0x53
  if(RTC_EnterInitMode(hrtc) != HAL_OK)
 8001ec2:	4628      	mov	r0, r5
  __HAL_RTC_WRITEPROTECTION_DISABLE(hrtc);
 8001ec4:	6259      	str	r1, [r3, #36]	; 0x24
 8001ec6:	625a      	str	r2, [r3, #36]	; 0x24
  if(RTC_EnterInitMode(hrtc) != HAL_OK)
 8001ec8:	f7ff feec 	bl	8001ca4 <RTC_EnterInitMode>
 8001ecc:	4606      	mov	r6, r0
 8001ece:	2800      	cmp	r0, #0
 8001ed0:	d145      	bne.n	8001f5e <HAL_RTC_SetDate+0xca>
    hrtc->Instance->DR = (uint32_t)(datetmpreg & RTC_DR_RESERVED_MASK);
 8001ed2:	4a31      	ldr	r2, [pc, #196]	; (8001f98 <HAL_RTC_SetDate+0x104>)
 8001ed4:	682b      	ldr	r3, [r5, #0]
 8001ed6:	4022      	ands	r2, r4
 8001ed8:	605a      	str	r2, [r3, #4]
    hrtc->Instance->ISR &= (uint32_t)~RTC_ISR_INIT;
 8001eda:	68da      	ldr	r2, [r3, #12]
 8001edc:	f022 0280 	bic.w	r2, r2, #128	; 0x80
 8001ee0:	60da      	str	r2, [r3, #12]
    if((hrtc->Instance->CR & RTC_CR_BYPSHAD) == RESET)
 8001ee2:	689a      	ldr	r2, [r3, #8]
 8001ee4:	0692      	lsls	r2, r2, #26
 8001ee6:	d547      	bpl.n	8001f78 <HAL_RTC_SetDate+0xe4>
    __HAL_RTC_WRITEPROTECTION_ENABLE(hrtc);
 8001ee8:	20ff      	movs	r0, #255	; 0xff
    hrtc->State = HAL_RTC_STATE_READY ;
 8001eea:	2101      	movs	r1, #1
    __HAL_UNLOCK(hrtc);
 8001eec:	2200      	movs	r2, #0
    __HAL_RTC_WRITEPROTECTION_ENABLE(hrtc);
 8001eee:	6258      	str	r0, [r3, #36]	; 0x24
    hrtc->State = HAL_RTC_STATE_READY ;
 8001ef0:	7769      	strb	r1, [r5, #29]
    __HAL_UNLOCK(hrtc);
 8001ef2:	772a      	strb	r2, [r5, #28]
}
 8001ef4:	4630      	mov	r0, r6
 8001ef6:	bd70      	pop	{r4, r5, r6, pc}
  if((Format == RTC_FORMAT_BIN) && ((sDate->Month & 0x10U) == 0x10U))
 8001ef8:	f010 0f10 	tst.w	r0, #16
 8001efc:	d004      	beq.n	8001f08 <HAL_RTC_SetDate+0x74>
    sDate->Month = (uint8_t)((sDate->Month & (uint8_t)~(0x10U)) + (uint8_t)0x0AU);
 8001efe:	f020 0010 	bic.w	r0, r0, #16
 8001f02:	300a      	adds	r0, #10
 8001f04:	b2c0      	uxtb	r0, r0
 8001f06:	7048      	strb	r0, [r1, #1]
  while(Value >= 10)
 8001f08:	2b09      	cmp	r3, #9
  uint32_t bcdhigh = 0;
 8001f0a:	f04f 0100 	mov.w	r1, #0
  while(Value >= 10)
 8001f0e:	d906      	bls.n	8001f1e <HAL_RTC_SetDate+0x8a>
    Value -= 10;
 8001f10:	3b0a      	subs	r3, #10
    bcdhigh++;
 8001f12:	3101      	adds	r1, #1
    Value -= 10;
 8001f14:	b2db      	uxtb	r3, r3
  while(Value >= 10)
 8001f16:	2b09      	cmp	r3, #9
 8001f18:	d8fa      	bhi.n	8001f10 <HAL_RTC_SetDate+0x7c>
 8001f1a:	0109      	lsls	r1, r1, #4
 8001f1c:	b2c9      	uxtb	r1, r1
   datetmpreg = (((uint32_t)RTC_ByteToBcd2(sDate->Year) << 16) | \
 8001f1e:	430b      	orrs	r3, r1
  while(Value >= 10)
 8001f20:	2809      	cmp	r0, #9
  uint32_t bcdhigh = 0;
 8001f22:	f04f 0100 	mov.w	r1, #0
   datetmpreg = (((uint32_t)RTC_ByteToBcd2(sDate->Year) << 16) | \
 8001f26:	ea4f 4303 	mov.w	r3, r3, lsl #16
  while(Value >= 10)
 8001f2a:	d906      	bls.n	8001f3a <HAL_RTC_SetDate+0xa6>
    Value -= 10;
 8001f2c:	380a      	subs	r0, #10
    bcdhigh++;
 8001f2e:	3101      	adds	r1, #1
    Value -= 10;
 8001f30:	b2c0      	uxtb	r0, r0
  while(Value >= 10)
 8001f32:	2809      	cmp	r0, #9
 8001f34:	d8fa      	bhi.n	8001f2c <HAL_RTC_SetDate+0x98>
 8001f36:	0109      	lsls	r1, r1, #4
 8001f38:	b2c9      	uxtb	r1, r1
                 ((uint32_t)RTC_ByteToBcd2(sDate->Month) << 8) | \
 8001f3a:	4308      	orrs	r0, r1
  while(Value >= 10)
 8001f3c:	2c09      	cmp	r4, #9
                 ((uint32_t)RTC_ByteToBcd2(sDate->Month) << 8) | \
 8001f3e:	ea4f 2100 	mov.w	r1, r0, lsl #8
  while(Value >= 10)
 8001f42:	d927      	bls.n	8001f94 <HAL_RTC_SetDate+0x100>
    Value -= 10;
 8001f44:	3c0a      	subs	r4, #10
    bcdhigh++;
 8001f46:	3201      	adds	r2, #1
    Value -= 10;
 8001f48:	b2e4      	uxtb	r4, r4
  while(Value >= 10)
 8001f4a:	2c09      	cmp	r4, #9
 8001f4c:	d8fa      	bhi.n	8001f44 <HAL_RTC_SetDate+0xb0>
 8001f4e:	0112      	lsls	r2, r2, #4
 8001f50:	b2d0      	uxtb	r0, r2
   datetmpreg = (((uint32_t)RTC_ByteToBcd2(sDate->Year) << 16) | \
 8001f52:	431e      	orrs	r6, r3
                 ((uint32_t)RTC_ByteToBcd2(sDate->Date)) | \
 8001f54:	4304      	orrs	r4, r0
   datetmpreg = (((uint32_t)RTC_ByteToBcd2(sDate->Year) << 16) | \
 8001f56:	ea46 0001 	orr.w	r0, r6, r1
 8001f5a:	4304      	orrs	r4, r0
 8001f5c:	e7ae      	b.n	8001ebc <HAL_RTC_SetDate+0x28>
    __HAL_RTC_WRITEPROTECTION_ENABLE(hrtc);
 8001f5e:	6829      	ldr	r1, [r5, #0]
 8001f60:	20ff      	movs	r0, #255	; 0xff
    hrtc->State = HAL_RTC_STATE_ERROR;
 8001f62:	2204      	movs	r2, #4
    __HAL_UNLOCK(hrtc);
 8001f64:	2300      	movs	r3, #0
    return HAL_ERROR;
 8001f66:	2601      	movs	r6, #1
    __HAL_RTC_WRITEPROTECTION_ENABLE(hrtc);
 8001f68:	6248      	str	r0, [r1, #36]	; 0x24
    hrtc->State = HAL_RTC_STATE_ERROR;
 8001f6a:	776a      	strb	r2, [r5, #29]
    __HAL_UNLOCK(hrtc);
 8001f6c:	772b      	strb	r3, [r5, #28]
}
 8001f6e:	4630      	mov	r0, r6
 8001f70:	bd70      	pop	{r4, r5, r6, pc}
 __HAL_LOCK(hrtc);
 8001f72:	2602      	movs	r6, #2
}
 8001f74:	4630      	mov	r0, r6
 8001f76:	bd70      	pop	{r4, r5, r6, pc}
      if(HAL_RTC_WaitForSynchro(hrtc) != HAL_OK)
 8001f78:	4628      	mov	r0, r5
 8001f7a:	f7ff fe79 	bl	8001c70 <HAL_RTC_WaitForSynchro>
 8001f7e:	b908      	cbnz	r0, 8001f84 <HAL_RTC_SetDate+0xf0>
 8001f80:	682b      	ldr	r3, [r5, #0]
 8001f82:	e7b1      	b.n	8001ee8 <HAL_RTC_SetDate+0x54>
        __HAL_RTC_WRITEPROTECTION_ENABLE(hrtc);
 8001f84:	682a      	ldr	r2, [r5, #0]
 8001f86:	21ff      	movs	r1, #255	; 0xff
        hrtc->State = HAL_RTC_STATE_ERROR;
 8001f88:	2304      	movs	r3, #4
        __HAL_RTC_WRITEPROTECTION_ENABLE(hrtc);
 8001f8a:	6251      	str	r1, [r2, #36]	; 0x24
        __HAL_UNLOCK(hrtc);
 8001f8c:	772e      	strb	r6, [r5, #28]
        return HAL_ERROR;
 8001f8e:	2601      	movs	r6, #1
        hrtc->State = HAL_RTC_STATE_ERROR;
 8001f90:	776b      	strb	r3, [r5, #29]
        return HAL_ERROR;
 8001f92:	e7af      	b.n	8001ef4 <HAL_RTC_SetDate+0x60>
  while(Value >= 10)
 8001f94:	2000      	movs	r0, #0
 8001f96:	e7dc      	b.n	8001f52 <HAL_RTC_SetDate+0xbe>
 8001f98:	00ffff3f 	.word	0x00ffff3f

08001f9c <HAL_RTCEx_SetTimeStamp>:
  /* Check the parameters */
  assert_param(IS_TIMESTAMP_EDGE(TimeStampEdge));
  assert_param(IS_RTC_TIMESTAMP_PIN(RTC_TimeStampPin));

  /* Process Locked */
  __HAL_LOCK(hrtc);
 8001f9c:	7f03      	ldrb	r3, [r0, #28]
 8001f9e:	2b01      	cmp	r3, #1
{
 8001fa0:	b4f0      	push	{r4, r5, r6, r7}
  __HAL_LOCK(hrtc);
 8001fa2:	d021      	beq.n	8001fe8 <HAL_RTCEx_SetTimeStamp+0x4c>

  hrtc->State = HAL_RTC_STATE_BUSY;

  /* Get the RTC_CR register and clear the bits to be configured */
  tmpreg = (uint32_t)(hrtc->Instance->CR & (uint32_t)~(RTC_CR_TSEDGE | RTC_CR_TSE));
 8001fa4:	6803      	ldr	r3, [r0, #0]
  hrtc->State = HAL_RTC_STATE_BUSY;
 8001fa6:	2602      	movs	r6, #2

  tmpreg|= TimeStampEdge;

  /* Disable the write protection for RTC registers */
  __HAL_RTC_WRITEPROTECTION_DISABLE(hrtc);
 8001fa8:	25ca      	movs	r5, #202	; 0xca
 8001faa:	2453      	movs	r4, #83	; 0x53
  hrtc->State = HAL_RTC_STATE_BUSY;
 8001fac:	7746      	strb	r6, [r0, #29]
  hrtc->Instance->CR = (uint32_t)tmpreg;

  __HAL_RTC_TIMESTAMP_ENABLE(hrtc);

  /* Enable the write protection for RTC registers */
  __HAL_RTC_WRITEPROTECTION_ENABLE(hrtc);
 8001fae:	26ff      	movs	r6, #255	; 0xff
  tmpreg = (uint32_t)(hrtc->Instance->CR & (uint32_t)~(RTC_CR_TSEDGE | RTC_CR_TSE));
 8001fb0:	689f      	ldr	r7, [r3, #8]
  __HAL_RTC_WRITEPROTECTION_DISABLE(hrtc);
 8001fb2:	625d      	str	r5, [r3, #36]	; 0x24
 8001fb4:	625c      	str	r4, [r3, #36]	; 0x24
  tmpreg = (uint32_t)(hrtc->Instance->CR & (uint32_t)~(RTC_CR_TSEDGE | RTC_CR_TSE));
 8001fb6:	f6a4 045c 	subw	r4, r4, #2140	; 0x85c
  hrtc->Instance->OR &= (uint32_t)~RTC_OR_TSINSEL;
 8001fba:	6cdd      	ldr	r5, [r3, #76]	; 0x4c
  tmpreg = (uint32_t)(hrtc->Instance->CR & (uint32_t)~(RTC_CR_TSEDGE | RTC_CR_TSE));
 8001fbc:	403c      	ands	r4, r7

  /* Change RTC state */
  hrtc->State = HAL_RTC_STATE_READY;
 8001fbe:	2701      	movs	r7, #1
  hrtc->Instance->OR &= (uint32_t)~RTC_OR_TSINSEL;
 8001fc0:	f025 0506 	bic.w	r5, r5, #6
  tmpreg|= TimeStampEdge;
 8001fc4:	430c      	orrs	r4, r1
  hrtc->Instance->OR &= (uint32_t)~RTC_OR_TSINSEL;
 8001fc6:	64dd      	str	r5, [r3, #76]	; 0x4c
  hrtc->Instance->OR |= (uint32_t)(RTC_TimeStampPin);
 8001fc8:	6cd9      	ldr	r1, [r3, #76]	; 0x4c
 8001fca:	430a      	orrs	r2, r1

  /* Process Unlocked */
  __HAL_UNLOCK(hrtc);
 8001fcc:	2100      	movs	r1, #0
  hrtc->Instance->OR |= (uint32_t)(RTC_TimeStampPin);
 8001fce:	64da      	str	r2, [r3, #76]	; 0x4c

  return HAL_OK;
 8001fd0:	460d      	mov	r5, r1
  hrtc->Instance->CR = (uint32_t)tmpreg;
 8001fd2:	609c      	str	r4, [r3, #8]
  __HAL_RTC_TIMESTAMP_ENABLE(hrtc);
 8001fd4:	689a      	ldr	r2, [r3, #8]
 8001fd6:	f442 6200 	orr.w	r2, r2, #2048	; 0x800
 8001fda:	609a      	str	r2, [r3, #8]
  __HAL_RTC_WRITEPROTECTION_ENABLE(hrtc);
 8001fdc:	625e      	str	r6, [r3, #36]	; 0x24
  hrtc->State = HAL_RTC_STATE_READY;
 8001fde:	7747      	strb	r7, [r0, #29]
  __HAL_UNLOCK(hrtc);
 8001fe0:	7701      	strb	r1, [r0, #28]
}
 8001fe2:	4628      	mov	r0, r5
 8001fe4:	bcf0      	pop	{r4, r5, r6, r7}
 8001fe6:	4770      	bx	lr
  __HAL_LOCK(hrtc);
 8001fe8:	2502      	movs	r5, #2
}
 8001fea:	4628      	mov	r0, r5
 8001fec:	bcf0      	pop	{r4, r5, r6, r7}
 8001fee:	4770      	bx	lr

08001ff0 <HAL_SPI_Init>:
HAL_StatusTypeDef HAL_SPI_Init(SPI_HandleTypeDef *hspi)
{
  uint32_t frxth;

  /* Check the SPI handle allocation */
  if (hspi == NULL)
 8001ff0:	2800      	cmp	r0, #0
 8001ff2:	d05d      	beq.n	80020b0 <HAL_SPI_Init+0xc0>
  {
    assert_param(IS_SPI_CRC_POLYNOMIAL(hspi->Init.CRCPolynomial));
    assert_param(IS_SPI_CRC_LENGTH(hspi->Init.CRCLength));
  }
#else
  hspi->Init.CRCCalculation = SPI_CRCCALCULATION_DISABLE;
 8001ff4:	2200      	movs	r2, #0
#endif /* USE_SPI_CRC */

  if (hspi->State == HAL_SPI_STATE_RESET)
 8001ff6:	f890 305d 	ldrb.w	r3, [r0, #93]	; 0x5d
{
 8001ffa:	e92d 41f0 	stmdb	sp!, {r4, r5, r6, r7, r8, lr}
  hspi->Init.CRCCalculation = SPI_CRCCALCULATION_DISABLE;
 8001ffe:	6282      	str	r2, [r0, #40]	; 0x28
 8002000:	4604      	mov	r4, r0
  if (hspi->State == HAL_SPI_STATE_RESET)
 8002002:	f003 02ff 	and.w	r2, r3, #255	; 0xff
 8002006:	2b00      	cmp	r3, #0
 8002008:	d04d      	beq.n	80020a6 <HAL_SPI_Init+0xb6>

  /* Disable the selected SPI peripheral */
  __HAL_SPI_DISABLE(hspi);

  /* Align by default the rs fifo threshold on the data size */
  if (hspi->Init.DataSize > SPI_DATASIZE_8BIT)
 800200a:	68e7      	ldr	r7, [r4, #12]
  hspi->State = HAL_SPI_STATE_BUSY;
 800200c:	2302      	movs	r3, #2
  __HAL_SPI_DISABLE(hspi);
 800200e:	6822      	ldr	r2, [r4, #0]
  {
    frxth = SPI_RXFIFO_THRESHOLD_HF;
 8002010:	f5b7 6fe0 	cmp.w	r7, #1792	; 0x700
  hspi->State = HAL_SPI_STATE_BUSY;
 8002014:	f884 305d 	strb.w	r3, [r4, #93]	; 0x5d
  {
    frxth = SPI_RXFIFO_THRESHOLD_QF;
  }

  /* CRC calculation is valid only for 16Bit and 8 Bit */
  if ((hspi->Init.DataSize != SPI_DATASIZE_16BIT) && (hspi->Init.DataSize != SPI_DATASIZE_8BIT))
 8002018:	f427 6100 	bic.w	r1, r7, #2048	; 0x800
  __HAL_SPI_DISABLE(hspi);
 800201c:	6813      	ldr	r3, [r2, #0]
    frxth = SPI_RXFIFO_THRESHOLD_HF;
 800201e:	bf94      	ite	ls
 8002020:	f44f 5580 	movls.w	r5, #4096	; 0x1000
 8002024:	2500      	movhi	r5, #0
  __HAL_SPI_DISABLE(hspi);
 8002026:	f023 0340 	bic.w	r3, r3, #64	; 0x40
  if ((hspi->Init.DataSize != SPI_DATASIZE_16BIT) && (hspi->Init.DataSize != SPI_DATASIZE_8BIT))
 800202a:	f5b1 6fe0 	cmp.w	r1, #1792	; 0x700
  __HAL_SPI_DISABLE(hspi);
 800202e:	6013      	str	r3, [r2, #0]
  if ((hspi->Init.DataSize != SPI_DATASIZE_16BIT) && (hspi->Init.DataSize != SPI_DATASIZE_8BIT))
 8002030:	d135      	bne.n	800209e <HAL_SPI_Init+0xae>
 8002032:	6aa6      	ldr	r6, [r4, #40]	; 0x28
    /* CRC must be disabled */
    hspi->Init.CRCCalculation = SPI_CRCCALCULATION_DISABLE;
  }

  /* Align the CRC Length on the data size */
  if (hspi->Init.CRCLength == SPI_CRC_LENGTH_DATASIZE)
 8002034:	6b23      	ldr	r3, [r4, #48]	; 0x30
 8002036:	b92b      	cbnz	r3, 8002044 <HAL_SPI_Init+0x54>
  {
    /* CRC Length aligned on the data size : value set by default */
    if (hspi->Init.DataSize > SPI_DATASIZE_8BIT)
 8002038:	f5b7 6fe0 	cmp.w	r7, #1792	; 0x700
    {
      hspi->Init.CRCLength = SPI_CRC_LENGTH_16BIT;
 800203c:	bf8c      	ite	hi
 800203e:	2302      	movhi	r3, #2
    }
    else
    {
      hspi->Init.CRCLength = SPI_CRC_LENGTH_8BIT;
 8002040:	2301      	movls	r3, #1
 8002042:	6323      	str	r3, [r4, #48]	; 0x30
  }

  /*----------------------- SPIx CR1 & CR2 Configuration ---------------------*/
  /* Configure : SPI Mode, Communication Mode, Clock polarity and phase, NSS management,
  Communication speed, First bit and CRC calculation state */
  WRITE_REG(hspi->Instance->CR1, (hspi->Init.Mode | hspi->Init.Direction |
 8002044:	68a1      	ldr	r1, [r4, #8]
#if defined(SPI_I2SCFGR_I2SMOD)
  /* Activate the SPI mode (Make sure that I2SMOD bit in I2SCFGR register is reset) */
  CLEAR_BIT(hspi->Instance->I2SCFGR, SPI_I2SCFGR_I2SMOD);
#endif /* SPI_I2SCFGR_I2SMOD */

  hspi->ErrorCode = HAL_SPI_ERROR_NONE;
 8002046:	f04f 0800 	mov.w	r8, #0
  WRITE_REG(hspi->Instance->CR1, (hspi->Init.Mode | hspi->Init.Direction |
 800204a:	6863      	ldr	r3, [r4, #4]
 800204c:	6920      	ldr	r0, [r4, #16]
 800204e:	430b      	orrs	r3, r1
 8002050:	6961      	ldr	r1, [r4, #20]
 8002052:	4303      	orrs	r3, r0
 8002054:	430b      	orrs	r3, r1
 8002056:	e9d4 0106 	ldrd	r0, r1, [r4, #24]
 800205a:	430b      	orrs	r3, r1
  WRITE_REG(hspi->Instance->CR2, (((hspi->Init.NSS >> 16U) & SPI_CR2_SSOE) | hspi->Init.TIMode |
 800205c:	6a61      	ldr	r1, [r4, #36]	; 0x24
 800205e:	ea4f 4c10 	mov.w	ip, r0, lsr #16
  WRITE_REG(hspi->Instance->CR1, (hspi->Init.Mode | hspi->Init.Direction |
 8002062:	f400 7e00 	and.w	lr, r0, #512	; 0x200
  WRITE_REG(hspi->Instance->CR2, (((hspi->Init.NSS >> 16U) & SPI_CR2_SSOE) | hspi->Init.TIMode |
 8002066:	430f      	orrs	r7, r1
  WRITE_REG(hspi->Instance->CR1, (hspi->Init.Mode | hspi->Init.Direction |
 8002068:	6a21      	ldr	r1, [r4, #32]
  WRITE_REG(hspi->Instance->CR2, (((hspi->Init.NSS >> 16U) & SPI_CR2_SSOE) | hspi->Init.TIMode |
 800206a:	f00c 0c04 	and.w	ip, ip, #4
  hspi->State     = HAL_SPI_STATE_READY;

  return HAL_OK;
 800206e:	4640      	mov	r0, r8
  WRITE_REG(hspi->Instance->CR1, (hspi->Init.Mode | hspi->Init.Direction |
 8002070:	430b      	orrs	r3, r1
  WRITE_REG(hspi->Instance->CR2, (((hspi->Init.NSS >> 16U) & SPI_CR2_SSOE) | hspi->Init.TIMode |
 8002072:	6b61      	ldr	r1, [r4, #52]	; 0x34
 8002074:	430f      	orrs	r7, r1
  WRITE_REG(hspi->Instance->CR1, (hspi->Init.Mode | hspi->Init.Direction |
 8002076:	ea43 030e 	orr.w	r3, r3, lr
  hspi->State     = HAL_SPI_STATE_READY;
 800207a:	f04f 0e01 	mov.w	lr, #1
  WRITE_REG(hspi->Instance->CR2, (((hspi->Init.NSS >> 16U) & SPI_CR2_SSOE) | hspi->Init.TIMode |
 800207e:	ea47 070c 	orr.w	r7, r7, ip
  WRITE_REG(hspi->Instance->CR1, (hspi->Init.Mode | hspi->Init.Direction |
 8002082:	4333      	orrs	r3, r6
  WRITE_REG(hspi->Instance->CR2, (((hspi->Init.NSS >> 16U) & SPI_CR2_SSOE) | hspi->Init.TIMode |
 8002084:	433d      	orrs	r5, r7
  WRITE_REG(hspi->Instance->CR1, (hspi->Init.Mode | hspi->Init.Direction |
 8002086:	6013      	str	r3, [r2, #0]
  WRITE_REG(hspi->Instance->CR2, (((hspi->Init.NSS >> 16U) & SPI_CR2_SSOE) | hspi->Init.TIMode |
 8002088:	6055      	str	r5, [r2, #4]
  CLEAR_BIT(hspi->Instance->I2SCFGR, SPI_I2SCFGR_I2SMOD);
 800208a:	69d3      	ldr	r3, [r2, #28]
 800208c:	f423 6300 	bic.w	r3, r3, #2048	; 0x800
 8002090:	61d3      	str	r3, [r2, #28]
  hspi->ErrorCode = HAL_SPI_ERROR_NONE;
 8002092:	f8c4 8060 	str.w	r8, [r4, #96]	; 0x60
  hspi->State     = HAL_SPI_STATE_READY;
 8002096:	f884 e05d 	strb.w	lr, [r4, #93]	; 0x5d
}
 800209a:	e8bd 81f0 	ldmia.w	sp!, {r4, r5, r6, r7, r8, pc}
    hspi->Init.CRCCalculation = SPI_CRCCALCULATION_DISABLE;
 800209e:	2300      	movs	r3, #0
 80020a0:	461e      	mov	r6, r3
 80020a2:	62a3      	str	r3, [r4, #40]	; 0x28
 80020a4:	e7c6      	b.n	8002034 <HAL_SPI_Init+0x44>
    hspi->Lock = HAL_UNLOCKED;
 80020a6:	f880 205c 	strb.w	r2, [r0, #92]	; 0x5c
    HAL_SPI_MspInit(hspi);
 80020aa:	f001 fddf 	bl	8003c6c <HAL_SPI_MspInit>
 80020ae:	e7ac      	b.n	800200a <HAL_SPI_Init+0x1a>
    return HAL_ERROR;
 80020b0:	2001      	movs	r0, #1
}
 80020b2:	4770      	bx	lr

080020b4 <TIM_OC1_SetConfig>:
  * @param  TIMx to select the TIM peripheral
  * @param  OC_Config The ouput configuration structure
  * @retval None
  */
static void TIM_OC1_SetConfig(TIM_TypeDef *TIMx, TIM_OC_InitTypeDef *OC_Config)
{
 80020b4:	b4f0      	push	{r4, r5, r6, r7}
  uint32_t tmpccmrx;
  uint32_t tmpccer;
  uint32_t tmpcr2;

  /* Disable the Channel 1: Reset the CC1E Bit */
  TIMx->CCER &= ~TIM_CCER_CC1E;
 80020b6:	6a04      	ldr	r4, [r0, #32]
  tmpccmrx |= OC_Config->OCMode;

  /* Reset the Output Polarity level */
  tmpccer &= ~TIM_CCER_CC1P;
  /* Set the Output Compare Polarity */
  tmpccer |= OC_Config->OCPolarity;
 80020b8:	688d      	ldr	r5, [r1, #8]
  TIMx->CCER &= ~TIM_CCER_CC1E;
 80020ba:	f024 0401 	bic.w	r4, r4, #1
  tmpccmrx |= OC_Config->OCMode;
 80020be:	680e      	ldr	r6, [r1, #0]
  tmpccmrx &= ~TIM_CCMR1_CC1S;
 80020c0:	4a12      	ldr	r2, [pc, #72]	; (800210c <TIM_OC1_SetConfig+0x58>)
  TIMx->CCER &= ~TIM_CCER_CC1E;
 80020c2:	6204      	str	r4, [r0, #32]
  tmpccer = TIMx->CCER;
 80020c4:	6a03      	ldr	r3, [r0, #32]
  tmpcr2 =  TIMx->CR2;
 80020c6:	6844      	ldr	r4, [r0, #4]
  tmpccer &= ~TIM_CCER_CC1P;
 80020c8:	f023 0302 	bic.w	r3, r3, #2
  tmpccmrx = TIMx->CCMR1;
 80020cc:	6987      	ldr	r7, [r0, #24]
  tmpccer |= OC_Config->OCPolarity;
 80020ce:	432b      	orrs	r3, r5

  if (IS_TIM_CCXN_INSTANCE(TIMx, TIM_CHANNEL_1))
 80020d0:	4d0f      	ldr	r5, [pc, #60]	; (8002110 <TIM_OC1_SetConfig+0x5c>)
  tmpccmrx &= ~TIM_CCMR1_CC1S;
 80020d2:	403a      	ands	r2, r7
  if (IS_TIM_CCXN_INSTANCE(TIMx, TIM_CHANNEL_1))
 80020d4:	42a8      	cmp	r0, r5
  tmpccmrx |= OC_Config->OCMode;
 80020d6:	ea42 0206 	orr.w	r2, r2, r6
  if (IS_TIM_CCXN_INSTANCE(TIMx, TIM_CHANNEL_1))
 80020da:	d00a      	beq.n	80020f2 <TIM_OC1_SetConfig+0x3e>
 80020dc:	f505 6580 	add.w	r5, r5, #1024	; 0x400
 80020e0:	42a8      	cmp	r0, r5
 80020e2:	d006      	beq.n	80020f2 <TIM_OC1_SetConfig+0x3e>

  /* Write to TIMx CCMR1 */
  TIMx->CCMR1 = tmpccmrx;

  /* Set the Capture Compare Register value */
  TIMx->CCR1 = OC_Config->Pulse;
 80020e4:	6849      	ldr	r1, [r1, #4]
  TIMx->CR2 = tmpcr2;
 80020e6:	6044      	str	r4, [r0, #4]
  TIMx->CCMR1 = tmpccmrx;
 80020e8:	6182      	str	r2, [r0, #24]
  TIMx->CCR1 = OC_Config->Pulse;
 80020ea:	6341      	str	r1, [r0, #52]	; 0x34

  /* Write to TIMx CCER */
  TIMx->CCER = tmpccer;
 80020ec:	6203      	str	r3, [r0, #32]
}
 80020ee:	bcf0      	pop	{r4, r5, r6, r7}
 80020f0:	4770      	bx	lr
    tmpccer &= ~TIM_CCER_CC1NP;
 80020f2:	f023 0308 	bic.w	r3, r3, #8
    tmpccer |= OC_Config->OCNPolarity;
 80020f6:	68cf      	ldr	r7, [r1, #12]
    tmpcr2 |= OC_Config->OCNIdleState;
 80020f8:	694d      	ldr	r5, [r1, #20]
    tmpcr2 &= ~TIM_CR2_OIS1N;
 80020fa:	f424 7440 	bic.w	r4, r4, #768	; 0x300
    tmpcr2 |= OC_Config->OCNIdleState;
 80020fe:	698e      	ldr	r6, [r1, #24]
    tmpccer |= OC_Config->OCNPolarity;
 8002100:	433b      	orrs	r3, r7
    tmpcr2 |= OC_Config->OCNIdleState;
 8002102:	4335      	orrs	r5, r6
    tmpccer &= ~TIM_CCER_CC1NE;
 8002104:	f023 0304 	bic.w	r3, r3, #4
    tmpcr2 |= OC_Config->OCNIdleState;
 8002108:	432c      	orrs	r4, r5
 800210a:	e7eb      	b.n	80020e4 <TIM_OC1_SetConfig+0x30>
 800210c:	fffeff8c 	.word	0xfffeff8c
 8002110:	40010000 	.word	0x40010000

08002114 <TIM_OC3_SetConfig>:
  * @param  TIMx to select the TIM peripheral
  * @param  OC_Config The ouput configuration structure
  * @retval None
  */
static void TIM_OC3_SetConfig(TIM_TypeDef *TIMx, TIM_OC_InitTypeDef *OC_Config)
{
 8002114:	b4f0      	push	{r4, r5, r6, r7}
  uint32_t tmpccmrx;
  uint32_t tmpccer;
  uint32_t tmpcr2;

  /* Disable the Channel 3: Reset the CC2E Bit */
  TIMx->CCER &= ~TIM_CCER_CC3E;
 8002116:	6a04      	ldr	r4, [r0, #32]
  tmpccmrx |= OC_Config->OCMode;

  /* Reset the Output Polarity level */
  tmpccer &= ~TIM_CCER_CC3P;
  /* Set the Output Compare Polarity */
  tmpccer |= (OC_Config->OCPolarity << 8U);
 8002118:	688d      	ldr	r5, [r1, #8]
  TIMx->CCER &= ~TIM_CCER_CC3E;
 800211a:	f424 7480 	bic.w	r4, r4, #256	; 0x100
  tmpccmrx |= OC_Config->OCMode;
 800211e:	680e      	ldr	r6, [r1, #0]
  tmpccmrx &= ~TIM_CCMR2_CC3S;
 8002120:	4a14      	ldr	r2, [pc, #80]	; (8002174 <TIM_OC3_SetConfig+0x60>)
  TIMx->CCER &= ~TIM_CCER_CC3E;
 8002122:	6204      	str	r4, [r0, #32]
  tmpccer = TIMx->CCER;
 8002124:	6a03      	ldr	r3, [r0, #32]
  tmpcr2 =  TIMx->CR2;
 8002126:	6844      	ldr	r4, [r0, #4]
  tmpccer &= ~TIM_CCER_CC3P;
 8002128:	f423 7300 	bic.w	r3, r3, #512	; 0x200
  tmpccmrx = TIMx->CCMR2;
 800212c:	69c7      	ldr	r7, [r0, #28]
  tmpccer |= (OC_Config->OCPolarity << 8U);
 800212e:	ea43 2305 	orr.w	r3, r3, r5, lsl #8

  if (IS_TIM_CCXN_INSTANCE(TIMx, TIM_CHANNEL_3))
 8002132:	4d11      	ldr	r5, [pc, #68]	; (8002178 <TIM_OC3_SetConfig+0x64>)
  tmpccmrx &= ~TIM_CCMR2_CC3S;
 8002134:	403a      	ands	r2, r7
  if (IS_TIM_CCXN_INSTANCE(TIMx, TIM_CHANNEL_3))
 8002136:	42a8      	cmp	r0, r5
  tmpccmrx |= OC_Config->OCMode;
 8002138:	ea42 0206 	orr.w	r2, r2, r6
  if (IS_TIM_CCXN_INSTANCE(TIMx, TIM_CHANNEL_3))
 800213c:	d00a      	beq.n	8002154 <TIM_OC3_SetConfig+0x40>
 800213e:	f505 6580 	add.w	r5, r5, #1024	; 0x400
 8002142:	42a8      	cmp	r0, r5
 8002144:	d006      	beq.n	8002154 <TIM_OC3_SetConfig+0x40>

  /* Write to TIMx CCMR2 */
  TIMx->CCMR2 = tmpccmrx;

  /* Set the Capture Compare Register value */
  TIMx->CCR3 = OC_Config->Pulse;
 8002146:	6849      	ldr	r1, [r1, #4]
  TIMx->CR2 = tmpcr2;
 8002148:	6044      	str	r4, [r0, #4]
  TIMx->CCMR2 = tmpccmrx;
 800214a:	61c2      	str	r2, [r0, #28]
  TIMx->CCR3 = OC_Config->Pulse;
 800214c:	63c1      	str	r1, [r0, #60]	; 0x3c

  /* Write to TIMx CCER */
  TIMx->CCER = tmpccer;
 800214e:	6203      	str	r3, [r0, #32]
}
 8002150:	bcf0      	pop	{r4, r5, r6, r7}
 8002152:	4770      	bx	lr
    tmpccer &= ~TIM_CCER_CC3NP;
 8002154:	f423 6300 	bic.w	r3, r3, #2048	; 0x800
    tmpccer |= (OC_Config->OCNPolarity << 8U);
 8002158:	68cf      	ldr	r7, [r1, #12]
    tmpcr2 |= (OC_Config->OCIdleState << 4U);
 800215a:	694d      	ldr	r5, [r1, #20]
    tmpcr2 &= ~TIM_CR2_OIS3N;
 800215c:	f424 5440 	bic.w	r4, r4, #12288	; 0x3000
    tmpcr2 |= (OC_Config->OCNIdleState << 4U);
 8002160:	698e      	ldr	r6, [r1, #24]
    tmpccer |= (OC_Config->OCNPolarity << 8U);
 8002162:	ea43 2307 	orr.w	r3, r3, r7, lsl #8
    tmpcr2 |= (OC_Config->OCNIdleState << 4U);
 8002166:	4335      	orrs	r5, r6
    tmpccer &= ~TIM_CCER_CC3NE;
 8002168:	f423 6380 	bic.w	r3, r3, #1024	; 0x400
    tmpcr2 |= (OC_Config->OCNIdleState << 4U);
 800216c:	ea44 1405 	orr.w	r4, r4, r5, lsl #4
 8002170:	e7e9      	b.n	8002146 <TIM_OC3_SetConfig+0x32>
 8002172:	bf00      	nop
 8002174:	fffeff8c 	.word	0xfffeff8c
 8002178:	40010000 	.word	0x40010000

0800217c <TIM_OC4_SetConfig>:
  * @param  TIMx to select the TIM peripheral
  * @param  OC_Config The ouput configuration structure
  * @retval None
  */
static void TIM_OC4_SetConfig(TIM_TypeDef *TIMx, TIM_OC_InitTypeDef *OC_Config)
{
 800217c:	b4f0      	push	{r4, r5, r6, r7}
  uint32_t tmpccmrx;
  uint32_t tmpccer;
  uint32_t tmpcr2;

  /* Disable the Channel 4: Reset the CC4E Bit */
  TIMx->CCER &= ~TIM_CCER_CC4E;
 800217e:	6a04      	ldr	r4, [r0, #32]
  tmpccmrx |= (OC_Config->OCMode << 8U);

  /* Reset the Output Polarity level */
  tmpccer &= ~TIM_CCER_CC4P;
  /* Set the Output Compare Polarity */
  tmpccer |= (OC_Config->OCPolarity << 12U);
 8002180:	688d      	ldr	r5, [r1, #8]
  TIMx->CCER &= ~TIM_CCER_CC4E;
 8002182:	f424 5480 	bic.w	r4, r4, #4096	; 0x1000
  tmpccmrx |= (OC_Config->OCMode << 8U);
 8002186:	680e      	ldr	r6, [r1, #0]
  tmpccmrx &= ~TIM_CCMR2_CC4S;
 8002188:	4a0f      	ldr	r2, [pc, #60]	; (80021c8 <TIM_OC4_SetConfig+0x4c>)
  TIMx->CCER &= ~TIM_CCER_CC4E;
 800218a:	6204      	str	r4, [r0, #32]
  tmpccer = TIMx->CCER;
 800218c:	6a03      	ldr	r3, [r0, #32]
  tmpcr2 =  TIMx->CR2;
 800218e:	6844      	ldr	r4, [r0, #4]
  tmpccer &= ~TIM_CCER_CC4P;
 8002190:	f423 5300 	bic.w	r3, r3, #8192	; 0x2000
  tmpccmrx = TIMx->CCMR2;
 8002194:	69c7      	ldr	r7, [r0, #28]
  tmpccer |= (OC_Config->OCPolarity << 12U);
 8002196:	ea43 3305 	orr.w	r3, r3, r5, lsl #12

  if (IS_TIM_BREAK_INSTANCE(TIMx))
 800219a:	4d0c      	ldr	r5, [pc, #48]	; (80021cc <TIM_OC4_SetConfig+0x50>)
  tmpccmrx &= ~TIM_CCMR2_CC4S;
 800219c:	403a      	ands	r2, r7
  if (IS_TIM_BREAK_INSTANCE(TIMx))
 800219e:	42a8      	cmp	r0, r5
  tmpccmrx |= (OC_Config->OCMode << 8U);
 80021a0:	ea42 2206 	orr.w	r2, r2, r6, lsl #8
  if (IS_TIM_BREAK_INSTANCE(TIMx))
 80021a4:	d00a      	beq.n	80021bc <TIM_OC4_SetConfig+0x40>
 80021a6:	f505 6580 	add.w	r5, r5, #1024	; 0x400
 80021aa:	42a8      	cmp	r0, r5
 80021ac:	d006      	beq.n	80021bc <TIM_OC4_SetConfig+0x40>

  /* Write to TIMx CCMR2 */
  TIMx->CCMR2 = tmpccmrx;

  /* Set the Capture Compare Register value */
  TIMx->CCR4 = OC_Config->Pulse;
 80021ae:	6849      	ldr	r1, [r1, #4]
  TIMx->CR2 = tmpcr2;
 80021b0:	6044      	str	r4, [r0, #4]
  TIMx->CCMR2 = tmpccmrx;
 80021b2:	61c2      	str	r2, [r0, #28]
  TIMx->CCR4 = OC_Config->Pulse;
 80021b4:	6401      	str	r1, [r0, #64]	; 0x40

  /* Write to TIMx CCER */
  TIMx->CCER = tmpccer;
 80021b6:	6203      	str	r3, [r0, #32]
}
 80021b8:	bcf0      	pop	{r4, r5, r6, r7}
 80021ba:	4770      	bx	lr
    tmpcr2 &= ~TIM_CR2_OIS4;
 80021bc:	f424 4480 	bic.w	r4, r4, #16384	; 0x4000
    tmpcr2 |= (OC_Config->OCIdleState << 6U);
 80021c0:	694d      	ldr	r5, [r1, #20]
 80021c2:	ea44 1485 	orr.w	r4, r4, r5, lsl #6
 80021c6:	e7f2      	b.n	80021ae <TIM_OC4_SetConfig+0x32>
 80021c8:	feff8cff 	.word	0xfeff8cff
 80021cc:	40010000 	.word	0x40010000

080021d0 <TIM_OC5_SetConfig>:
  * @param  OC_Config The ouput configuration structure
  * @retval None
  */
static void TIM_OC5_SetConfig(TIM_TypeDef *TIMx,
                              TIM_OC_InitTypeDef *OC_Config)
{
 80021d0:	b4f0      	push	{r4, r5, r6, r7}
  uint32_t tmpccmrx;
  uint32_t tmpccer;
  uint32_t tmpcr2;

  /* Disable the output: Reset the CCxE Bit */
  TIMx->CCER &= ~TIM_CCER_CC5E;
 80021d2:	6a04      	ldr	r4, [r0, #32]
  tmpccmrx |= OC_Config->OCMode;

  /* Reset the Output Polarity level */
  tmpccer &= ~TIM_CCER_CC5P;
  /* Set the Output Compare Polarity */
  tmpccer |= (OC_Config->OCPolarity << 16U);
 80021d4:	688d      	ldr	r5, [r1, #8]
  TIMx->CCER &= ~TIM_CCER_CC5E;
 80021d6:	f424 3480 	bic.w	r4, r4, #65536	; 0x10000
  tmpccmrx |= OC_Config->OCMode;
 80021da:	680e      	ldr	r6, [r1, #0]
  tmpccmrx &= ~(TIM_CCMR3_OC5M);
 80021dc:	4a0f      	ldr	r2, [pc, #60]	; (800221c <TIM_OC5_SetConfig+0x4c>)
  TIMx->CCER &= ~TIM_CCER_CC5E;
 80021de:	6204      	str	r4, [r0, #32]
  tmpccer = TIMx->CCER;
 80021e0:	6a03      	ldr	r3, [r0, #32]
  tmpcr2 =  TIMx->CR2;
 80021e2:	6844      	ldr	r4, [r0, #4]
  tmpccer &= ~TIM_CCER_CC5P;
 80021e4:	f423 3300 	bic.w	r3, r3, #131072	; 0x20000
  tmpccmrx = TIMx->CCMR3;
 80021e8:	6d47      	ldr	r7, [r0, #84]	; 0x54
  tmpccer |= (OC_Config->OCPolarity << 16U);
 80021ea:	ea43 4305 	orr.w	r3, r3, r5, lsl #16

  if (IS_TIM_BREAK_INSTANCE(TIMx))
 80021ee:	4d0c      	ldr	r5, [pc, #48]	; (8002220 <TIM_OC5_SetConfig+0x50>)
  tmpccmrx &= ~(TIM_CCMR3_OC5M);
 80021f0:	403a      	ands	r2, r7
  if (IS_TIM_BREAK_INSTANCE(TIMx))
 80021f2:	42a8      	cmp	r0, r5
  tmpccmrx |= OC_Config->OCMode;
 80021f4:	ea42 0206 	orr.w	r2, r2, r6
  if (IS_TIM_BREAK_INSTANCE(TIMx))
 80021f8:	d00a      	beq.n	8002210 <TIM_OC5_SetConfig+0x40>
 80021fa:	f505 6580 	add.w	r5, r5, #1024	; 0x400
 80021fe:	42a8      	cmp	r0, r5
 8002200:	d006      	beq.n	8002210 <TIM_OC5_SetConfig+0x40>

  /* Write to TIMx CCMR3 */
  TIMx->CCMR3 = tmpccmrx;

  /* Set the Capture Compare Register value */
  TIMx->CCR5 = OC_Config->Pulse;
 8002202:	6849      	ldr	r1, [r1, #4]
  TIMx->CR2 = tmpcr2;
 8002204:	6044      	str	r4, [r0, #4]
  TIMx->CCMR3 = tmpccmrx;
 8002206:	6542      	str	r2, [r0, #84]	; 0x54
  TIMx->CCR5 = OC_Config->Pulse;
 8002208:	6581      	str	r1, [r0, #88]	; 0x58

  /* Write to TIMx CCER */
  TIMx->CCER = tmpccer;
 800220a:	6203      	str	r3, [r0, #32]
}
 800220c:	bcf0      	pop	{r4, r5, r6, r7}
 800220e:	4770      	bx	lr
    tmpcr2 &= ~TIM_CR2_OIS5;
 8002210:	f424 3480 	bic.w	r4, r4, #65536	; 0x10000
    tmpcr2 |= (OC_Config->OCIdleState << 8U);
 8002214:	694d      	ldr	r5, [r1, #20]
 8002216:	ea44 2405 	orr.w	r4, r4, r5, lsl #8
 800221a:	e7f2      	b.n	8002202 <TIM_OC5_SetConfig+0x32>
 800221c:	fffeff8f 	.word	0xfffeff8f
 8002220:	40010000 	.word	0x40010000

08002224 <TIM_OC6_SetConfig>:
  * @param  OC_Config The ouput configuration structure
  * @retval None
  */
static void TIM_OC6_SetConfig(TIM_TypeDef *TIMx,
                              TIM_OC_InitTypeDef *OC_Config)
{
 8002224:	b4f0      	push	{r4, r5, r6, r7}
  uint32_t tmpccmrx;
  uint32_t tmpccer;
  uint32_t tmpcr2;

  /* Disable the output: Reset the CCxE Bit */
  TIMx->CCER &= ~TIM_CCER_CC6E;
 8002226:	6a04      	ldr	r4, [r0, #32]
  tmpccmrx |= (OC_Config->OCMode << 8U);

  /* Reset the Output Polarity level */
  tmpccer &= (uint32_t)~TIM_CCER_CC6P;
  /* Set the Output Compare Polarity */
  tmpccer |= (OC_Config->OCPolarity << 20U);
 8002228:	688d      	ldr	r5, [r1, #8]
  TIMx->CCER &= ~TIM_CCER_CC6E;
 800222a:	f424 1480 	bic.w	r4, r4, #1048576	; 0x100000
  tmpccmrx |= (OC_Config->OCMode << 8U);
 800222e:	680e      	ldr	r6, [r1, #0]
  tmpccmrx &= ~(TIM_CCMR3_OC6M);
 8002230:	4a0f      	ldr	r2, [pc, #60]	; (8002270 <TIM_OC6_SetConfig+0x4c>)
  TIMx->CCER &= ~TIM_CCER_CC6E;
 8002232:	6204      	str	r4, [r0, #32]
  tmpccer = TIMx->CCER;
 8002234:	6a03      	ldr	r3, [r0, #32]
  tmpcr2 =  TIMx->CR2;
 8002236:	6844      	ldr	r4, [r0, #4]
  tmpccer &= (uint32_t)~TIM_CCER_CC6P;
 8002238:	f423 1300 	bic.w	r3, r3, #2097152	; 0x200000
  tmpccmrx = TIMx->CCMR3;
 800223c:	6d47      	ldr	r7, [r0, #84]	; 0x54
  tmpccer |= (OC_Config->OCPolarity << 20U);
 800223e:	ea43 5305 	orr.w	r3, r3, r5, lsl #20

  if (IS_TIM_BREAK_INSTANCE(TIMx))
 8002242:	4d0c      	ldr	r5, [pc, #48]	; (8002274 <TIM_OC6_SetConfig+0x50>)
  tmpccmrx &= ~(TIM_CCMR3_OC6M);
 8002244:	403a      	ands	r2, r7
  if (IS_TIM_BREAK_INSTANCE(TIMx))
 8002246:	42a8      	cmp	r0, r5
  tmpccmrx |= (OC_Config->OCMode << 8U);
 8002248:	ea42 2206 	orr.w	r2, r2, r6, lsl #8
  if (IS_TIM_BREAK_INSTANCE(TIMx))
 800224c:	d00a      	beq.n	8002264 <TIM_OC6_SetConfig+0x40>
 800224e:	f505 6580 	add.w	r5, r5, #1024	; 0x400
 8002252:	42a8      	cmp	r0, r5
 8002254:	d006      	beq.n	8002264 <TIM_OC6_SetConfig+0x40>

  /* Write to TIMx CCMR3 */
  TIMx->CCMR3 = tmpccmrx;

  /* Set the Capture Compare Register value */
  TIMx->CCR6 = OC_Config->Pulse;
 8002256:	6849      	ldr	r1, [r1, #4]
  TIMx->CR2 = tmpcr2;
 8002258:	6044      	str	r4, [r0, #4]
  TIMx->CCMR3 = tmpccmrx;
 800225a:	6542      	str	r2, [r0, #84]	; 0x54
  TIMx->CCR6 = OC_Config->Pulse;
 800225c:	65c1      	str	r1, [r0, #92]	; 0x5c

  /* Write to TIMx CCER */
  TIMx->CCER = tmpccer;
 800225e:	6203      	str	r3, [r0, #32]
}
 8002260:	bcf0      	pop	{r4, r5, r6, r7}
 8002262:	4770      	bx	lr
    tmpcr2 &= ~TIM_CR2_OIS6;
 8002264:	f424 2480 	bic.w	r4, r4, #262144	; 0x40000
    tmpcr2 |= (OC_Config->OCIdleState << 10U);
 8002268:	694d      	ldr	r5, [r1, #20]
 800226a:	ea44 2485 	orr.w	r4, r4, r5, lsl #10
 800226e:	e7f2      	b.n	8002256 <TIM_OC6_SetConfig+0x32>
 8002270:	feff8fff 	.word	0xfeff8fff
 8002274:	40010000 	.word	0x40010000

08002278 <HAL_TIM_PWM_MspInit>:
 8002278:	4770      	bx	lr
 800227a:	bf00      	nop

0800227c <HAL_TIM_ConfigClockSource>:
  __HAL_LOCK(htim);
 800227c:	f890 303c 	ldrb.w	r3, [r0, #60]	; 0x3c
 8002280:	2b01      	cmp	r3, #1
 8002282:	d05b      	beq.n	800233c <HAL_TIM_ConfigClockSource+0xc0>
 8002284:	4602      	mov	r2, r0
  htim->State = HAL_TIM_STATE_BUSY;
 8002286:	2002      	movs	r0, #2
  tmpsmcr = htim->Instance->SMCR;
 8002288:	6813      	ldr	r3, [r2, #0]
{
 800228a:	b470      	push	{r4, r5, r6}
  htim->State = HAL_TIM_STATE_BUSY;
 800228c:	f882 003d 	strb.w	r0, [r2, #61]	; 0x3d
  __HAL_LOCK(htim);
 8002290:	2501      	movs	r5, #1
  tmpsmcr = htim->Instance->SMCR;
 8002292:	6898      	ldr	r0, [r3, #8]
  tmpsmcr &= ~(TIM_SMCR_ETF | TIM_SMCR_ETPS | TIM_SMCR_ECE | TIM_SMCR_ETP);
 8002294:	4c4c      	ldr	r4, [pc, #304]	; (80023c8 <HAL_TIM_ConfigClockSource+0x14c>)
  __HAL_LOCK(htim);
 8002296:	f882 503c 	strb.w	r5, [r2, #60]	; 0x3c
  tmpsmcr &= ~(TIM_SMCR_ETF | TIM_SMCR_ETPS | TIM_SMCR_ECE | TIM_SMCR_ETP);
 800229a:	4004      	ands	r4, r0
  switch (sClockSourceConfig->ClockSource)
 800229c:	6808      	ldr	r0, [r1, #0]
 800229e:	2840      	cmp	r0, #64	; 0x40
  htim->Instance->SMCR = tmpsmcr;
 80022a0:	609c      	str	r4, [r3, #8]
  switch (sClockSourceConfig->ClockSource)
 80022a2:	d076      	beq.n	8002392 <HAL_TIM_ConfigClockSource+0x116>
 80022a4:	d94c      	bls.n	8002340 <HAL_TIM_ConfigClockSource+0xc4>
 80022a6:	2860      	cmp	r0, #96	; 0x60
 80022a8:	d02f      	beq.n	800230a <HAL_TIM_ConfigClockSource+0x8e>
 80022aa:	d958      	bls.n	800235e <HAL_TIM_ConfigClockSource+0xe2>
 80022ac:	2870      	cmp	r0, #112	; 0x70
 80022ae:	d01b      	beq.n	80022e8 <HAL_TIM_ConfigClockSource+0x6c>
 80022b0:	f5b0 5f00 	cmp.w	r0, #8192	; 0x2000
 80022b4:	d10f      	bne.n	80022d6 <HAL_TIM_ConfigClockSource+0x5a>

  /* Reset the ETR Bits */
  tmpsmcr &= ~(TIM_SMCR_ETF | TIM_SMCR_ETPS | TIM_SMCR_ECE | TIM_SMCR_ETP);

  /* Set the Prescaler, the Filter value and the Polarity */
  tmpsmcr |= (uint32_t)(TIM_ExtTRGPrescaler | (TIM_ExtTRGPolarity | (ExtTRGFilter << 8U)));
 80022b6:	68cc      	ldr	r4, [r1, #12]
 80022b8:	e9d1 5001 	ldrd	r5, r0, [r1, #4]
 80022bc:	ea40 0105 	orr.w	r1, r0, r5
  tmpsmcr = TIMx->SMCR;
 80022c0:	6898      	ldr	r0, [r3, #8]
  tmpsmcr |= (uint32_t)(TIM_ExtTRGPrescaler | (TIM_ExtTRGPolarity | (ExtTRGFilter << 8U)));
 80022c2:	ea41 2104 	orr.w	r1, r1, r4, lsl #8
  tmpsmcr &= ~(TIM_SMCR_ETF | TIM_SMCR_ETPS | TIM_SMCR_ECE | TIM_SMCR_ETP);
 80022c6:	f420 407f 	bic.w	r0, r0, #65280	; 0xff00
  tmpsmcr |= (uint32_t)(TIM_ExtTRGPrescaler | (TIM_ExtTRGPolarity | (ExtTRGFilter << 8U)));
 80022ca:	4301      	orrs	r1, r0

  /* Write to TIMx SMCR */
  TIMx->SMCR = tmpsmcr;
 80022cc:	6099      	str	r1, [r3, #8]
      htim->Instance->SMCR |= TIM_SMCR_ECE;
 80022ce:	6899      	ldr	r1, [r3, #8]
 80022d0:	f441 4180 	orr.w	r1, r1, #16384	; 0x4000
 80022d4:	6099      	str	r1, [r3, #8]
  __HAL_UNLOCK(htim);
 80022d6:	2300      	movs	r3, #0
  htim->State = HAL_TIM_STATE_READY;
 80022d8:	2101      	movs	r1, #1
  return HAL_OK;
 80022da:	4618      	mov	r0, r3
  htim->State = HAL_TIM_STATE_READY;
 80022dc:	f882 103d 	strb.w	r1, [r2, #61]	; 0x3d
  __HAL_UNLOCK(htim);
 80022e0:	f882 303c 	strb.w	r3, [r2, #60]	; 0x3c
}
 80022e4:	bc70      	pop	{r4, r5, r6}
 80022e6:	4770      	bx	lr
  tmpsmcr |= (uint32_t)(TIM_ExtTRGPrescaler | (TIM_ExtTRGPolarity | (ExtTRGFilter << 8U)));
 80022e8:	e9d1 5001 	ldrd	r5, r0, [r1, #4]
 80022ec:	68cc      	ldr	r4, [r1, #12]
 80022ee:	ea40 0105 	orr.w	r1, r0, r5
  tmpsmcr = TIMx->SMCR;
 80022f2:	6898      	ldr	r0, [r3, #8]
  tmpsmcr |= (uint32_t)(TIM_ExtTRGPrescaler | (TIM_ExtTRGPolarity | (ExtTRGFilter << 8U)));
 80022f4:	ea41 2104 	orr.w	r1, r1, r4, lsl #8
  tmpsmcr &= ~(TIM_SMCR_ETF | TIM_SMCR_ETPS | TIM_SMCR_ECE | TIM_SMCR_ETP);
 80022f8:	f420 407f 	bic.w	r0, r0, #65280	; 0xff00
  tmpsmcr |= (uint32_t)(TIM_ExtTRGPrescaler | (TIM_ExtTRGPolarity | (ExtTRGFilter << 8U)));
 80022fc:	4301      	orrs	r1, r0
  TIMx->SMCR = tmpsmcr;
 80022fe:	6099      	str	r1, [r3, #8]
      tmpsmcr = htim->Instance->SMCR;
 8002300:	6899      	ldr	r1, [r3, #8]
      tmpsmcr |= (TIM_SLAVEMODE_EXTERNAL1 | TIM_CLOCKSOURCE_ETRMODE1);
 8002302:	f041 0177 	orr.w	r1, r1, #119	; 0x77
      htim->Instance->SMCR = tmpsmcr;
 8002306:	6099      	str	r1, [r3, #8]
      break;
 8002308:	e7e5      	b.n	80022d6 <HAL_TIM_ConfigClockSource+0x5a>
  TIMx->CCER &= ~TIM_CCER_CC2E;
 800230a:	6a1c      	ldr	r4, [r3, #32]
      TIM_TI2_ConfigInputStage(htim->Instance,
 800230c:	684d      	ldr	r5, [r1, #4]
  TIMx->CCER &= ~TIM_CCER_CC2E;
 800230e:	f024 0410 	bic.w	r4, r4, #16
      TIM_TI2_ConfigInputStage(htim->Instance,
 8002312:	68ce      	ldr	r6, [r1, #12]
  TIMx->CCER &= ~TIM_CCER_CC2E;
 8002314:	621c      	str	r4, [r3, #32]
  tmpccmr1 = TIMx->CCMR1;
 8002316:	6998      	ldr	r0, [r3, #24]
  tmpccer = TIMx->CCER;
 8002318:	6a19      	ldr	r1, [r3, #32]
  tmpccmr1 &= ~TIM_CCMR1_IC2F;
 800231a:	f420 4070 	bic.w	r0, r0, #61440	; 0xf000
  tmpccer &= ~(TIM_CCER_CC2P | TIM_CCER_CC2NP);
 800231e:	f021 01a0 	bic.w	r1, r1, #160	; 0xa0
  tmpccmr1 |= (TIM_ICFilter << 12U);
 8002322:	ea40 3006 	orr.w	r0, r0, r6, lsl #12
  tmpccer |= (TIM_ICPolarity << 4U);
 8002326:	ea41 1105 	orr.w	r1, r1, r5, lsl #4
  TIMx->CCMR1 = tmpccmr1 ;
 800232a:	6198      	str	r0, [r3, #24]
  TIMx->CCER = tmpccer;
 800232c:	6219      	str	r1, [r3, #32]
  tmpsmcr = TIMx->SMCR;
 800232e:	6899      	ldr	r1, [r3, #8]
  tmpsmcr &= ~TIM_SMCR_TS;
 8002330:	f021 0170 	bic.w	r1, r1, #112	; 0x70
  tmpsmcr |= (InputTriggerSource | TIM_SLAVEMODE_EXTERNAL1);
 8002334:	f041 0167 	orr.w	r1, r1, #103	; 0x67
  TIMx->SMCR = tmpsmcr;
 8002338:	6099      	str	r1, [r3, #8]
 800233a:	e7cc      	b.n	80022d6 <HAL_TIM_ConfigClockSource+0x5a>
  __HAL_LOCK(htim);
 800233c:	2002      	movs	r0, #2
}
 800233e:	4770      	bx	lr
  switch (sClockSourceConfig->ClockSource)
 8002340:	2810      	cmp	r0, #16
 8002342:	d004      	beq.n	800234e <HAL_TIM_ConfigClockSource+0xd2>
 8002344:	d93d      	bls.n	80023c2 <HAL_TIM_ConfigClockSource+0x146>
 8002346:	2820      	cmp	r0, #32
 8002348:	d001      	beq.n	800234e <HAL_TIM_ConfigClockSource+0xd2>
 800234a:	2830      	cmp	r0, #48	; 0x30
 800234c:	d1c3      	bne.n	80022d6 <HAL_TIM_ConfigClockSource+0x5a>
  tmpsmcr = TIMx->SMCR;
 800234e:	6899      	ldr	r1, [r3, #8]
  tmpsmcr |= (InputTriggerSource | TIM_SLAVEMODE_EXTERNAL1);
 8002350:	f040 0007 	orr.w	r0, r0, #7
  tmpsmcr &= ~TIM_SMCR_TS;
 8002354:	f021 0170 	bic.w	r1, r1, #112	; 0x70
  tmpsmcr |= (InputTriggerSource | TIM_SLAVEMODE_EXTERNAL1);
 8002358:	4308      	orrs	r0, r1
  TIMx->SMCR = tmpsmcr;
 800235a:	6098      	str	r0, [r3, #8]
 800235c:	e7bb      	b.n	80022d6 <HAL_TIM_ConfigClockSource+0x5a>
  switch (sClockSourceConfig->ClockSource)
 800235e:	2850      	cmp	r0, #80	; 0x50
 8002360:	d1b9      	bne.n	80022d6 <HAL_TIM_ConfigClockSource+0x5a>
  tmpccer = TIMx->CCER;
 8002362:	6a1d      	ldr	r5, [r3, #32]
  TIMx->CCER &= ~TIM_CCER_CC1E;
 8002364:	6a1c      	ldr	r4, [r3, #32]
      TIM_TI1_ConfigInputStage(htim->Instance,
 8002366:	6848      	ldr	r0, [r1, #4]
  tmpccer &= ~(TIM_CCER_CC1P | TIM_CCER_CC1NP);
 8002368:	f025 050a 	bic.w	r5, r5, #10
  TIMx->CCER &= ~TIM_CCER_CC1E;
 800236c:	f024 0401 	bic.w	r4, r4, #1
      TIM_TI1_ConfigInputStage(htim->Instance,
 8002370:	68ce      	ldr	r6, [r1, #12]
  tmpccer |= TIM_ICPolarity;
 8002372:	4328      	orrs	r0, r5
  TIMx->CCER &= ~TIM_CCER_CC1E;
 8002374:	621c      	str	r4, [r3, #32]
  tmpccmr1 = TIMx->CCMR1;
 8002376:	6999      	ldr	r1, [r3, #24]
  tmpccmr1 &= ~TIM_CCMR1_IC1F;
 8002378:	f021 01f0 	bic.w	r1, r1, #240	; 0xf0
  tmpccmr1 |= (TIM_ICFilter << 4U);
 800237c:	ea41 1106 	orr.w	r1, r1, r6, lsl #4
  TIMx->CCMR1 = tmpccmr1;
 8002380:	6199      	str	r1, [r3, #24]
  TIMx->CCER = tmpccer;
 8002382:	6218      	str	r0, [r3, #32]
  tmpsmcr = TIMx->SMCR;
 8002384:	6899      	ldr	r1, [r3, #8]
  tmpsmcr &= ~TIM_SMCR_TS;
 8002386:	f021 0170 	bic.w	r1, r1, #112	; 0x70
  tmpsmcr |= (InputTriggerSource | TIM_SLAVEMODE_EXTERNAL1);
 800238a:	f041 0157 	orr.w	r1, r1, #87	; 0x57
  TIMx->SMCR = tmpsmcr;
 800238e:	6099      	str	r1, [r3, #8]
 8002390:	e7a1      	b.n	80022d6 <HAL_TIM_ConfigClockSource+0x5a>
  tmpccer = TIMx->CCER;
 8002392:	6a1d      	ldr	r5, [r3, #32]
  TIMx->CCER &= ~TIM_CCER_CC1E;
 8002394:	6a1c      	ldr	r4, [r3, #32]
      TIM_TI1_ConfigInputStage(htim->Instance,
 8002396:	6848      	ldr	r0, [r1, #4]
  tmpccer &= ~(TIM_CCER_CC1P | TIM_CCER_CC1NP);
 8002398:	f025 050a 	bic.w	r5, r5, #10
  TIMx->CCER &= ~TIM_CCER_CC1E;
 800239c:	f024 0401 	bic.w	r4, r4, #1
      TIM_TI1_ConfigInputStage(htim->Instance,
 80023a0:	68ce      	ldr	r6, [r1, #12]
  tmpccer |= TIM_ICPolarity;
 80023a2:	4328      	orrs	r0, r5
  TIMx->CCER &= ~TIM_CCER_CC1E;
 80023a4:	621c      	str	r4, [r3, #32]
  tmpccmr1 = TIMx->CCMR1;
 80023a6:	6999      	ldr	r1, [r3, #24]
  tmpccmr1 &= ~TIM_CCMR1_IC1F;
 80023a8:	f021 01f0 	bic.w	r1, r1, #240	; 0xf0
  tmpccmr1 |= (TIM_ICFilter << 4U);
 80023ac:	ea41 1106 	orr.w	r1, r1, r6, lsl #4
  TIMx->CCMR1 = tmpccmr1;
 80023b0:	6199      	str	r1, [r3, #24]
  TIMx->CCER = tmpccer;
 80023b2:	6218      	str	r0, [r3, #32]
  tmpsmcr = TIMx->SMCR;
 80023b4:	6899      	ldr	r1, [r3, #8]
  tmpsmcr &= ~TIM_SMCR_TS;
 80023b6:	f021 0170 	bic.w	r1, r1, #112	; 0x70
  tmpsmcr |= (InputTriggerSource | TIM_SLAVEMODE_EXTERNAL1);
 80023ba:	f041 0147 	orr.w	r1, r1, #71	; 0x47
  TIMx->SMCR = tmpsmcr;
 80023be:	6099      	str	r1, [r3, #8]
 80023c0:	e789      	b.n	80022d6 <HAL_TIM_ConfigClockSource+0x5a>
  switch (sClockSourceConfig->ClockSource)
 80023c2:	2800      	cmp	r0, #0
 80023c4:	d0c3      	beq.n	800234e <HAL_TIM_ConfigClockSource+0xd2>
 80023c6:	e786      	b.n	80022d6 <HAL_TIM_ConfigClockSource+0x5a>
 80023c8:	fffe0088 	.word	0xfffe0088

080023cc <TIM_Base_SetConfig>:
{
 80023cc:	b4f0      	push	{r4, r5, r6, r7}
  if (IS_TIM_COUNTER_MODE_SELECT_INSTANCE(TIMx))
 80023ce:	4e32      	ldr	r6, [pc, #200]	; (8002498 <TIM_Base_SetConfig+0xcc>)
 80023d0:	f1b0 4f80 	cmp.w	r0, #1073741824	; 0x40000000
 80023d4:	4f31      	ldr	r7, [pc, #196]	; (800249c <TIM_Base_SetConfig+0xd0>)
 80023d6:	eba0 0606 	sub.w	r6, r0, r6
  tmpcr1 = TIMx->CR1;
 80023da:	6803      	ldr	r3, [r0, #0]
 80023dc:	eba0 0707 	sub.w	r7, r0, r7
  if (IS_TIM_COUNTER_MODE_SELECT_INSTANCE(TIMx))
 80023e0:	fab6 f686 	clz	r6, r6
 80023e4:	fab7 f787 	clz	r7, r7
 80023e8:	ea4f 1656 	mov.w	r6, r6, lsr #5
 80023ec:	ea4f 1757 	mov.w	r7, r7, lsr #5
 80023f0:	d025      	beq.n	800243e <TIM_Base_SetConfig+0x72>
 80023f2:	bb26      	cbnz	r6, 800243e <TIM_Base_SetConfig+0x72>
 80023f4:	4a2a      	ldr	r2, [pc, #168]	; (80024a0 <TIM_Base_SetConfig+0xd4>)
 80023f6:	4290      	cmp	r0, r2
 80023f8:	d03e      	beq.n	8002478 <TIM_Base_SetConfig+0xac>
 80023fa:	f502 6280 	add.w	r2, r2, #1024	; 0x400
 80023fe:	4290      	cmp	r0, r2
 8002400:	d03a      	beq.n	8002478 <TIM_Base_SetConfig+0xac>
 8002402:	f502 6280 	add.w	r2, r2, #1024	; 0x400
 8002406:	4290      	cmp	r0, r2
 8002408:	d03b      	beq.n	8002482 <TIM_Base_SetConfig+0xb6>
 800240a:	2f00      	cmp	r7, #0
 800240c:	d139      	bne.n	8002482 <TIM_Base_SetConfig+0xb6>
  if (IS_TIM_CLOCK_DIVISION_INSTANCE(TIMx))
 800240e:	4a25      	ldr	r2, [pc, #148]	; (80024a4 <TIM_Base_SetConfig+0xd8>)
 8002410:	4290      	cmp	r0, r2
 8002412:	d018      	beq.n	8002446 <TIM_Base_SetConfig+0x7a>
 8002414:	f502 6280 	add.w	r2, r2, #1024	; 0x400
 8002418:	4290      	cmp	r0, r2
 800241a:	d014      	beq.n	8002446 <TIM_Base_SetConfig+0x7a>
 800241c:	f502 6280 	add.w	r2, r2, #1024	; 0x400
 8002420:	4290      	cmp	r0, r2
 8002422:	d010      	beq.n	8002446 <TIM_Base_SetConfig+0x7a>
 8002424:	f5a2 3298 	sub.w	r2, r2, #77824	; 0x13000
 8002428:	4290      	cmp	r0, r2
 800242a:	d00c      	beq.n	8002446 <TIM_Base_SetConfig+0x7a>
 800242c:	f502 6280 	add.w	r2, r2, #1024	; 0x400
 8002430:	4290      	cmp	r0, r2
 8002432:	d008      	beq.n	8002446 <TIM_Base_SetConfig+0x7a>
 8002434:	f502 6280 	add.w	r2, r2, #1024	; 0x400
 8002438:	4290      	cmp	r0, r2
 800243a:	d108      	bne.n	800244e <TIM_Base_SetConfig+0x82>
 800243c:	e003      	b.n	8002446 <TIM_Base_SetConfig+0x7a>
    tmpcr1 &= ~(TIM_CR1_DIR | TIM_CR1_CMS);
 800243e:	f023 0370 	bic.w	r3, r3, #112	; 0x70
    tmpcr1 |= Structure->CounterMode;
 8002442:	684d      	ldr	r5, [r1, #4]
 8002444:	432b      	orrs	r3, r5
    tmpcr1 &= ~TIM_CR1_CKD;
 8002446:	f423 7340 	bic.w	r3, r3, #768	; 0x300
    tmpcr1 |= (uint32_t)Structure->ClockDivision;
 800244a:	68cd      	ldr	r5, [r1, #12]
 800244c:	432b      	orrs	r3, r5
  MODIFY_REG(tmpcr1, TIM_CR1_ARPE, Structure->AutoReloadPreload);
 800244e:	694a      	ldr	r2, [r1, #20]
 8002450:	f023 0380 	bic.w	r3, r3, #128	; 0x80
  TIMx->ARR = (uint32_t)Structure->Period ;
 8002454:	688c      	ldr	r4, [r1, #8]
  MODIFY_REG(tmpcr1, TIM_CR1_ARPE, Structure->AutoReloadPreload);
 8002456:	4313      	orrs	r3, r2
  TIMx->PSC = Structure->Prescaler;
 8002458:	680a      	ldr	r2, [r1, #0]
  TIMx->CR1 = tmpcr1;
 800245a:	6003      	str	r3, [r0, #0]
  TIMx->ARR = (uint32_t)Structure->Period ;
 800245c:	62c4      	str	r4, [r0, #44]	; 0x2c
  TIMx->PSC = Structure->Prescaler;
 800245e:	6282      	str	r2, [r0, #40]	; 0x28
  if (IS_TIM_REPETITION_COUNTER_INSTANCE(TIMx))
 8002460:	b926      	cbnz	r6, 800246c <TIM_Base_SetConfig+0xa0>
 8002462:	b91f      	cbnz	r7, 800246c <TIM_Base_SetConfig+0xa0>
  TIMx->EGR = TIM_EGR_UG;
 8002464:	2301      	movs	r3, #1
}
 8002466:	bcf0      	pop	{r4, r5, r6, r7}
  TIMx->EGR = TIM_EGR_UG;
 8002468:	6143      	str	r3, [r0, #20]
}
 800246a:	4770      	bx	lr
    TIMx->RCR = Structure->RepetitionCounter;
 800246c:	690b      	ldr	r3, [r1, #16]
 800246e:	6303      	str	r3, [r0, #48]	; 0x30
  TIMx->EGR = TIM_EGR_UG;
 8002470:	2301      	movs	r3, #1
}
 8002472:	bcf0      	pop	{r4, r5, r6, r7}
  TIMx->EGR = TIM_EGR_UG;
 8002474:	6143      	str	r3, [r0, #20]
}
 8002476:	4770      	bx	lr
    tmpcr1 &= ~(TIM_CR1_DIR | TIM_CR1_CMS);
 8002478:	f023 0370 	bic.w	r3, r3, #112	; 0x70
    tmpcr1 |= Structure->CounterMode;
 800247c:	684a      	ldr	r2, [r1, #4]
 800247e:	4313      	orrs	r3, r2
 8002480:	e7e1      	b.n	8002446 <TIM_Base_SetConfig+0x7a>
  if (IS_TIM_CLOCK_DIVISION_INSTANCE(TIMx))
 8002482:	4a09      	ldr	r2, [pc, #36]	; (80024a8 <TIM_Base_SetConfig+0xdc>)
    tmpcr1 &= ~(TIM_CR1_DIR | TIM_CR1_CMS);
 8002484:	f023 0370 	bic.w	r3, r3, #112	; 0x70
    tmpcr1 |= Structure->CounterMode;
 8002488:	684c      	ldr	r4, [r1, #4]
  if (IS_TIM_CLOCK_DIVISION_INSTANCE(TIMx))
 800248a:	4290      	cmp	r0, r2
    tmpcr1 |= Structure->CounterMode;
 800248c:	ea43 0304 	orr.w	r3, r3, r4
  if (IS_TIM_CLOCK_DIVISION_INSTANCE(TIMx))
 8002490:	d0d9      	beq.n	8002446 <TIM_Base_SetConfig+0x7a>
 8002492:	2f00      	cmp	r7, #0
 8002494:	d1d7      	bne.n	8002446 <TIM_Base_SetConfig+0x7a>
 8002496:	e7ba      	b.n	800240e <TIM_Base_SetConfig+0x42>
 8002498:	40010000 	.word	0x40010000
 800249c:	40010400 	.word	0x40010400
 80024a0:	40000400 	.word	0x40000400
 80024a4:	40014000 	.word	0x40014000
 80024a8:	40000c00 	.word	0x40000c00

080024ac <HAL_TIM_Base_Init>:
  if (htim == NULL)
 80024ac:	b1b8      	cbz	r0, 80024de <HAL_TIM_Base_Init+0x32>
  if (htim->State == HAL_TIM_STATE_RESET)
 80024ae:	f890 303d 	ldrb.w	r3, [r0, #61]	; 0x3d
{
 80024b2:	b510      	push	{r4, lr}
  if (htim->State == HAL_TIM_STATE_RESET)
 80024b4:	f003 02ff 	and.w	r2, r3, #255	; 0xff
 80024b8:	4604      	mov	r4, r0
 80024ba:	b15b      	cbz	r3, 80024d4 <HAL_TIM_Base_Init+0x28>
  htim->State = HAL_TIM_STATE_BUSY;
 80024bc:	2302      	movs	r3, #2
  TIM_Base_SetConfig(htim->Instance, &htim->Init);
 80024be:	6820      	ldr	r0, [r4, #0]
 80024c0:	1d21      	adds	r1, r4, #4
  htim->State = HAL_TIM_STATE_BUSY;
 80024c2:	f884 303d 	strb.w	r3, [r4, #61]	; 0x3d
  TIM_Base_SetConfig(htim->Instance, &htim->Init);
 80024c6:	f7ff ff81 	bl	80023cc <TIM_Base_SetConfig>
  htim->State = HAL_TIM_STATE_READY;
 80024ca:	2301      	movs	r3, #1
  return HAL_OK;
 80024cc:	2000      	movs	r0, #0
  htim->State = HAL_TIM_STATE_READY;
 80024ce:	f884 303d 	strb.w	r3, [r4, #61]	; 0x3d
}
 80024d2:	bd10      	pop	{r4, pc}
    htim->Lock = HAL_UNLOCKED;
 80024d4:	f880 203c 	strb.w	r2, [r0, #60]	; 0x3c
    HAL_TIM_Base_MspInit(htim);
 80024d8:	f001 fc0e 	bl	8003cf8 <HAL_TIM_Base_MspInit>
 80024dc:	e7ee      	b.n	80024bc <HAL_TIM_Base_Init+0x10>
    return HAL_ERROR;
 80024de:	2001      	movs	r0, #1
}
 80024e0:	4770      	bx	lr
 80024e2:	bf00      	nop

080024e4 <HAL_TIM_PWM_Init>:
  if (htim == NULL)
 80024e4:	b1b8      	cbz	r0, 8002516 <HAL_TIM_PWM_Init+0x32>
  if (htim->State == HAL_TIM_STATE_RESET)
 80024e6:	f890 303d 	ldrb.w	r3, [r0, #61]	; 0x3d
{
 80024ea:	b510      	push	{r4, lr}
  if (htim->State == HAL_TIM_STATE_RESET)
 80024ec:	f003 02ff 	and.w	r2, r3, #255	; 0xff
 80024f0:	4604      	mov	r4, r0
 80024f2:	b15b      	cbz	r3, 800250c <HAL_TIM_PWM_Init+0x28>
  htim->State = HAL_TIM_STATE_BUSY;
 80024f4:	2302      	movs	r3, #2
  TIM_Base_SetConfig(htim->Instance, &htim->Init);
 80024f6:	6820      	ldr	r0, [r4, #0]
 80024f8:	1d21      	adds	r1, r4, #4
  htim->State = HAL_TIM_STATE_BUSY;
 80024fa:	f884 303d 	strb.w	r3, [r4, #61]	; 0x3d
  TIM_Base_SetConfig(htim->Instance, &htim->Init);
 80024fe:	f7ff ff65 	bl	80023cc <TIM_Base_SetConfig>
  htim->State = HAL_TIM_STATE_READY;
 8002502:	2301      	movs	r3, #1
  return HAL_OK;
 8002504:	2000      	movs	r0, #0
  htim->State = HAL_TIM_STATE_READY;
 8002506:	f884 303d 	strb.w	r3, [r4, #61]	; 0x3d
}
 800250a:	bd10      	pop	{r4, pc}
    htim->Lock = HAL_UNLOCKED;
 800250c:	f880 203c 	strb.w	r2, [r0, #60]	; 0x3c
    HAL_TIM_PWM_MspInit(htim);
 8002510:	f7ff feb2 	bl	8002278 <HAL_TIM_PWM_MspInit>
 8002514:	e7ee      	b.n	80024f4 <HAL_TIM_PWM_Init+0x10>
    return HAL_ERROR;
 8002516:	2001      	movs	r0, #1
}
 8002518:	4770      	bx	lr
 800251a:	bf00      	nop

0800251c <TIM_OC2_SetConfig>:
{
 800251c:	b4f0      	push	{r4, r5, r6, r7}
  TIMx->CCER &= ~TIM_CCER_CC2E;
 800251e:	6a04      	ldr	r4, [r0, #32]
  tmpccer |= (OC_Config->OCPolarity << 4U);
 8002520:	688d      	ldr	r5, [r1, #8]
  TIMx->CCER &= ~TIM_CCER_CC2E;
 8002522:	f024 0410 	bic.w	r4, r4, #16
  tmpccmrx |= (OC_Config->OCMode << 8U);
 8002526:	680e      	ldr	r6, [r1, #0]
  tmpccmrx &= ~TIM_CCMR1_CC2S;
 8002528:	4a14      	ldr	r2, [pc, #80]	; (800257c <TIM_OC2_SetConfig+0x60>)
  TIMx->CCER &= ~TIM_CCER_CC2E;
 800252a:	6204      	str	r4, [r0, #32]
  tmpccer = TIMx->CCER;
 800252c:	6a03      	ldr	r3, [r0, #32]
  tmpcr2 =  TIMx->CR2;
 800252e:	6844      	ldr	r4, [r0, #4]
  tmpccer &= ~TIM_CCER_CC2P;
 8002530:	f023 0320 	bic.w	r3, r3, #32
  tmpccmrx = TIMx->CCMR1;
 8002534:	6987      	ldr	r7, [r0, #24]
  tmpccer |= (OC_Config->OCPolarity << 4U);
 8002536:	ea43 1305 	orr.w	r3, r3, r5, lsl #4
  if (IS_TIM_CCXN_INSTANCE(TIMx, TIM_CHANNEL_2))
 800253a:	4d11      	ldr	r5, [pc, #68]	; (8002580 <TIM_OC2_SetConfig+0x64>)
  tmpccmrx &= ~TIM_CCMR1_CC2S;
 800253c:	403a      	ands	r2, r7
  if (IS_TIM_CCXN_INSTANCE(TIMx, TIM_CHANNEL_2))
 800253e:	42a8      	cmp	r0, r5
  tmpccmrx |= (OC_Config->OCMode << 8U);
 8002540:	ea42 2206 	orr.w	r2, r2, r6, lsl #8
  if (IS_TIM_CCXN_INSTANCE(TIMx, TIM_CHANNEL_2))
 8002544:	d00a      	beq.n	800255c <TIM_OC2_SetConfig+0x40>
 8002546:	f505 6580 	add.w	r5, r5, #1024	; 0x400
 800254a:	42a8      	cmp	r0, r5
 800254c:	d006      	beq.n	800255c <TIM_OC2_SetConfig+0x40>
  TIMx->CCR2 = OC_Config->Pulse;
 800254e:	6849      	ldr	r1, [r1, #4]
  TIMx->CR2 = tmpcr2;
 8002550:	6044      	str	r4, [r0, #4]
  TIMx->CCMR1 = tmpccmrx;
 8002552:	6182      	str	r2, [r0, #24]
  TIMx->CCR2 = OC_Config->Pulse;
 8002554:	6381      	str	r1, [r0, #56]	; 0x38
  TIMx->CCER = tmpccer;
 8002556:	6203      	str	r3, [r0, #32]
}
 8002558:	bcf0      	pop	{r4, r5, r6, r7}
 800255a:	4770      	bx	lr
    tmpccer &= ~TIM_CCER_CC2NP;
 800255c:	f023 0380 	bic.w	r3, r3, #128	; 0x80
    tmpccer |= (OC_Config->OCNPolarity << 4U);
 8002560:	68cf      	ldr	r7, [r1, #12]
    tmpcr2 |= (OC_Config->OCIdleState << 2U);
 8002562:	694d      	ldr	r5, [r1, #20]
    tmpcr2 &= ~TIM_CR2_OIS2N;
 8002564:	f424 6440 	bic.w	r4, r4, #3072	; 0xc00
    tmpcr2 |= (OC_Config->OCNIdleState << 2U);
 8002568:	698e      	ldr	r6, [r1, #24]
    tmpccer |= (OC_Config->OCNPolarity << 4U);
 800256a:	ea43 1307 	orr.w	r3, r3, r7, lsl #4
    tmpcr2 |= (OC_Config->OCNIdleState << 2U);
 800256e:	4335      	orrs	r5, r6
    tmpccer &= ~TIM_CCER_CC2NE;
 8002570:	f023 0340 	bic.w	r3, r3, #64	; 0x40
    tmpcr2 |= (OC_Config->OCNIdleState << 2U);
 8002574:	ea44 0485 	orr.w	r4, r4, r5, lsl #2
 8002578:	e7e9      	b.n	800254e <TIM_OC2_SetConfig+0x32>
 800257a:	bf00      	nop
 800257c:	feff8cff 	.word	0xfeff8cff
 8002580:	40010000 	.word	0x40010000

08002584 <HAL_TIM_PWM_ConfigChannel>:
{
 8002584:	b538      	push	{r3, r4, r5, lr}
  __HAL_LOCK(htim);
 8002586:	f890 303c 	ldrb.w	r3, [r0, #60]	; 0x3c
 800258a:	2b01      	cmp	r3, #1
 800258c:	f000 808d 	beq.w	80026aa <HAL_TIM_PWM_ConfigChannel+0x126>
 8002590:	460d      	mov	r5, r1
  htim->State = HAL_TIM_STATE_BUSY;
 8002592:	2302      	movs	r3, #2
  __HAL_LOCK(htim);
 8002594:	2101      	movs	r1, #1
 8002596:	4604      	mov	r4, r0
  htim->State = HAL_TIM_STATE_BUSY;
 8002598:	f880 303d 	strb.w	r3, [r0, #61]	; 0x3d
  __HAL_LOCK(htim);
 800259c:	f880 103c 	strb.w	r1, [r0, #60]	; 0x3c
  switch (Channel)
 80025a0:	2a14      	cmp	r2, #20
 80025a2:	d81d      	bhi.n	80025e0 <HAL_TIM_PWM_ConfigChannel+0x5c>
 80025a4:	e8df f002 	tbb	[pc, r2]
 80025a8:	1c1c1c0b 	.word	0x1c1c1c0b
 80025ac:	1c1c1c37 	.word	0x1c1c1c37
 80025b0:	1c1c1c4a 	.word	0x1c1c1c4a
 80025b4:	1c1c1c5c 	.word	0x1c1c1c5c
 80025b8:	1c1c1c6f 	.word	0x1c1c1c6f
 80025bc:	24          	.byte	0x24
 80025bd:	00          	.byte	0x00
      TIM_OC1_SetConfig(htim->Instance, sConfig);
 80025be:	4629      	mov	r1, r5
 80025c0:	6800      	ldr	r0, [r0, #0]
 80025c2:	f7ff fd77 	bl	80020b4 <TIM_OC1_SetConfig>
      htim->Instance->CCMR1 |= TIM_CCMR1_OC1PE;
 80025c6:	6823      	ldr	r3, [r4, #0]
      htim->Instance->CCMR1 |= sConfig->OCFastMode;
 80025c8:	6928      	ldr	r0, [r5, #16]
      htim->Instance->CCMR1 |= TIM_CCMR1_OC1PE;
 80025ca:	6999      	ldr	r1, [r3, #24]
 80025cc:	f041 0108 	orr.w	r1, r1, #8
 80025d0:	6199      	str	r1, [r3, #24]
      htim->Instance->CCMR1 &= ~TIM_CCMR1_OC1FE;
 80025d2:	6999      	ldr	r1, [r3, #24]
 80025d4:	f021 0104 	bic.w	r1, r1, #4
 80025d8:	6199      	str	r1, [r3, #24]
      htim->Instance->CCMR1 |= sConfig->OCFastMode;
 80025da:	699a      	ldr	r2, [r3, #24]
 80025dc:	4302      	orrs	r2, r0
 80025de:	619a      	str	r2, [r3, #24]
  __HAL_UNLOCK(htim);
 80025e0:	2300      	movs	r3, #0
  htim->State = HAL_TIM_STATE_READY;
 80025e2:	2201      	movs	r2, #1
  return HAL_OK;
 80025e4:	4618      	mov	r0, r3
  htim->State = HAL_TIM_STATE_READY;
 80025e6:	f884 203d 	strb.w	r2, [r4, #61]	; 0x3d
  __HAL_UNLOCK(htim);
 80025ea:	f884 303c 	strb.w	r3, [r4, #60]	; 0x3c
}
 80025ee:	bd38      	pop	{r3, r4, r5, pc}
      TIM_OC6_SetConfig(htim->Instance, sConfig);
 80025f0:	4629      	mov	r1, r5
 80025f2:	6800      	ldr	r0, [r0, #0]
 80025f4:	f7ff fe16 	bl	8002224 <TIM_OC6_SetConfig>
      htim->Instance->CCMR3 |= TIM_CCMR3_OC6PE;
 80025f8:	6823      	ldr	r3, [r4, #0]
      htim->Instance->CCMR3 |= sConfig->OCFastMode << 8U;
 80025fa:	6928      	ldr	r0, [r5, #16]
      htim->Instance->CCMR3 |= TIM_CCMR3_OC6PE;
 80025fc:	6d59      	ldr	r1, [r3, #84]	; 0x54
 80025fe:	f441 6100 	orr.w	r1, r1, #2048	; 0x800
 8002602:	6559      	str	r1, [r3, #84]	; 0x54
      htim->Instance->CCMR3 &= ~TIM_CCMR3_OC6FE;
 8002604:	6d59      	ldr	r1, [r3, #84]	; 0x54
 8002606:	f421 6180 	bic.w	r1, r1, #1024	; 0x400
 800260a:	6559      	str	r1, [r3, #84]	; 0x54
      htim->Instance->CCMR3 |= sConfig->OCFastMode << 8U;
 800260c:	6d5a      	ldr	r2, [r3, #84]	; 0x54
 800260e:	ea42 2200 	orr.w	r2, r2, r0, lsl #8
 8002612:	655a      	str	r2, [r3, #84]	; 0x54
      break;
 8002614:	e7e4      	b.n	80025e0 <HAL_TIM_PWM_ConfigChannel+0x5c>
      TIM_OC2_SetConfig(htim->Instance, sConfig);
 8002616:	4629      	mov	r1, r5
 8002618:	6800      	ldr	r0, [r0, #0]
 800261a:	f7ff ff7f 	bl	800251c <TIM_OC2_SetConfig>
      htim->Instance->CCMR1 |= TIM_CCMR1_OC2PE;
 800261e:	6823      	ldr	r3, [r4, #0]
      htim->Instance->CCMR1 |= sConfig->OCFastMode << 8U;
 8002620:	6928      	ldr	r0, [r5, #16]
      htim->Instance->CCMR1 |= TIM_CCMR1_OC2PE;
 8002622:	6999      	ldr	r1, [r3, #24]
 8002624:	f441 6100 	orr.w	r1, r1, #2048	; 0x800
 8002628:	6199      	str	r1, [r3, #24]
      htim->Instance->CCMR1 &= ~TIM_CCMR1_OC2FE;
 800262a:	6999      	ldr	r1, [r3, #24]
 800262c:	f421 6180 	bic.w	r1, r1, #1024	; 0x400
 8002630:	6199      	str	r1, [r3, #24]
      htim->Instance->CCMR1 |= sConfig->OCFastMode << 8U;
 8002632:	699a      	ldr	r2, [r3, #24]
 8002634:	ea42 2200 	orr.w	r2, r2, r0, lsl #8
 8002638:	619a      	str	r2, [r3, #24]
      break;
 800263a:	e7d1      	b.n	80025e0 <HAL_TIM_PWM_ConfigChannel+0x5c>
      TIM_OC3_SetConfig(htim->Instance, sConfig);
 800263c:	4629      	mov	r1, r5
 800263e:	6800      	ldr	r0, [r0, #0]
 8002640:	f7ff fd68 	bl	8002114 <TIM_OC3_SetConfig>
      htim->Instance->CCMR2 |= TIM_CCMR2_OC3PE;
 8002644:	6823      	ldr	r3, [r4, #0]
      htim->Instance->CCMR2 |= sConfig->OCFastMode;
 8002646:	6928      	ldr	r0, [r5, #16]
      htim->Instance->CCMR2 |= TIM_CCMR2_OC3PE;
 8002648:	69d9      	ldr	r1, [r3, #28]
 800264a:	f041 0108 	orr.w	r1, r1, #8
 800264e:	61d9      	str	r1, [r3, #28]
      htim->Instance->CCMR2 &= ~TIM_CCMR2_OC3FE;
 8002650:	69d9      	ldr	r1, [r3, #28]
 8002652:	f021 0104 	bic.w	r1, r1, #4
 8002656:	61d9      	str	r1, [r3, #28]
      htim->Instance->CCMR2 |= sConfig->OCFastMode;
 8002658:	69da      	ldr	r2, [r3, #28]
 800265a:	4302      	orrs	r2, r0
 800265c:	61da      	str	r2, [r3, #28]
      break;
 800265e:	e7bf      	b.n	80025e0 <HAL_TIM_PWM_ConfigChannel+0x5c>
      TIM_OC4_SetConfig(htim->Instance, sConfig);
 8002660:	4629      	mov	r1, r5
 8002662:	6800      	ldr	r0, [r0, #0]
 8002664:	f7ff fd8a 	bl	800217c <TIM_OC4_SetConfig>
      htim->Instance->CCMR2 |= TIM_CCMR2_OC4PE;
 8002668:	6823      	ldr	r3, [r4, #0]
      htim->Instance->CCMR2 |= sConfig->OCFastMode << 8U;
 800266a:	6928      	ldr	r0, [r5, #16]
      htim->Instance->CCMR2 |= TIM_CCMR2_OC4PE;
 800266c:	69d9      	ldr	r1, [r3, #28]
 800266e:	f441 6100 	orr.w	r1, r1, #2048	; 0x800
 8002672:	61d9      	str	r1, [r3, #28]
      htim->Instance->CCMR2 &= ~TIM_CCMR2_OC4FE;
 8002674:	69d9      	ldr	r1, [r3, #28]
 8002676:	f421 6180 	bic.w	r1, r1, #1024	; 0x400
 800267a:	61d9      	str	r1, [r3, #28]
      htim->Instance->CCMR2 |= sConfig->OCFastMode << 8U;
 800267c:	69da      	ldr	r2, [r3, #28]
 800267e:	ea42 2200 	orr.w	r2, r2, r0, lsl #8
 8002682:	61da      	str	r2, [r3, #28]
      break;
 8002684:	e7ac      	b.n	80025e0 <HAL_TIM_PWM_ConfigChannel+0x5c>
      TIM_OC5_SetConfig(htim->Instance, sConfig);
 8002686:	4629      	mov	r1, r5
 8002688:	6800      	ldr	r0, [r0, #0]
 800268a:	f7ff fda1 	bl	80021d0 <TIM_OC5_SetConfig>
      htim->Instance->CCMR3 |= TIM_CCMR3_OC5PE;
 800268e:	6823      	ldr	r3, [r4, #0]
      htim->Instance->CCMR3 |= sConfig->OCFastMode;
 8002690:	6928      	ldr	r0, [r5, #16]
      htim->Instance->CCMR3 |= TIM_CCMR3_OC5PE;
 8002692:	6d59      	ldr	r1, [r3, #84]	; 0x54
 8002694:	f041 0108 	orr.w	r1, r1, #8
 8002698:	6559      	str	r1, [r3, #84]	; 0x54
      htim->Instance->CCMR3 &= ~TIM_CCMR3_OC5FE;
 800269a:	6d59      	ldr	r1, [r3, #84]	; 0x54
 800269c:	f021 0104 	bic.w	r1, r1, #4
 80026a0:	6559      	str	r1, [r3, #84]	; 0x54
      htim->Instance->CCMR3 |= sConfig->OCFastMode;
 80026a2:	6d5a      	ldr	r2, [r3, #84]	; 0x54
 80026a4:	4302      	orrs	r2, r0
 80026a6:	655a      	str	r2, [r3, #84]	; 0x54
      break;
 80026a8:	e79a      	b.n	80025e0 <HAL_TIM_PWM_ConfigChannel+0x5c>
  __HAL_LOCK(htim);
 80026aa:	2002      	movs	r0, #2
}
 80026ac:	bd38      	pop	{r3, r4, r5, pc}
 80026ae:	bf00      	nop

080026b0 <HAL_TIMEx_MasterConfigSynchronization>:
  assert_param(IS_TIM_SYNCHRO_INSTANCE(htim->Instance));
  assert_param(IS_TIM_TRGO_SOURCE(sMasterConfig->MasterOutputTrigger));
  assert_param(IS_TIM_MSM_STATE(sMasterConfig->MasterSlaveMode));

  /* Check input state */
  __HAL_LOCK(htim);
 80026b0:	f890 303c 	ldrb.w	r3, [r0, #60]	; 0x3c
 80026b4:	2b01      	cmp	r3, #1
 80026b6:	d025      	beq.n	8002704 <HAL_TIMEx_MasterConfigSynchronization+0x54>

  /* Change the handler state */
  htim->State = HAL_TIM_STATE_BUSY;

  /* Get the TIMx CR2 register value */
  tmpcr2 = htim->Instance->CR2;
 80026b8:	6802      	ldr	r2, [r0, #0]
  htim->State = HAL_TIM_STATE_BUSY;
 80026ba:	2302      	movs	r3, #2
{
 80026bc:	b470      	push	{r4, r5, r6}

  /* Get the TIMx SMCR register value */
  tmpsmcr = htim->Instance->SMCR;

  /* If the timer supports ADC synchronization through TRGO2, set the master mode selection 2 */
  if (IS_TIM_TRGO2_INSTANCE(htim->Instance))
 80026be:	4d13      	ldr	r5, [pc, #76]	; (800270c <HAL_TIMEx_MasterConfigSynchronization+0x5c>)
  htim->State = HAL_TIM_STATE_BUSY;
 80026c0:	f880 303d 	strb.w	r3, [r0, #61]	; 0x3d
  if (IS_TIM_TRGO2_INSTANCE(htim->Instance))
 80026c4:	42aa      	cmp	r2, r5
  tmpcr2 = htim->Instance->CR2;
 80026c6:	6853      	ldr	r3, [r2, #4]
  tmpsmcr = htim->Instance->SMCR;
 80026c8:	6894      	ldr	r4, [r2, #8]
  if (IS_TIM_TRGO2_INSTANCE(htim->Instance))
 80026ca:	d016      	beq.n	80026fa <HAL_TIMEx_MasterConfigSynchronization+0x4a>
 80026cc:	f505 6580 	add.w	r5, r5, #1024	; 0x400
 80026d0:	42aa      	cmp	r2, r5
 80026d2:	d012      	beq.n	80026fa <HAL_TIMEx_MasterConfigSynchronization+0x4a>
  }

  /* Reset the MMS Bits */
  tmpcr2 &= ~TIM_CR2_MMS;
  /* Select the TRGO source */
  tmpcr2 |=  sMasterConfig->MasterOutputTrigger;
 80026d4:	680d      	ldr	r5, [r1, #0]

  /* Reset the MSM Bit */
  tmpsmcr &= ~TIM_SMCR_MSM;
 80026d6:	f024 0480 	bic.w	r4, r4, #128	; 0x80
  /* Set master mode */
  tmpsmcr |= sMasterConfig->MasterSlaveMode;
 80026da:	6889      	ldr	r1, [r1, #8]
  tmpcr2 &= ~TIM_CR2_MMS;
 80026dc:	f023 0370 	bic.w	r3, r3, #112	; 0x70

  /* Update TIMx SMCR */
  htim->Instance->SMCR = tmpsmcr;

  /* Change the htim state */
  htim->State = HAL_TIM_STATE_READY;
 80026e0:	2601      	movs	r6, #1
  tmpcr2 |=  sMasterConfig->MasterOutputTrigger;
 80026e2:	432b      	orrs	r3, r5
  tmpsmcr |= sMasterConfig->MasterSlaveMode;
 80026e4:	4321      	orrs	r1, r4

  __HAL_UNLOCK(htim);
 80026e6:	2500      	movs	r5, #0
  htim->Instance->CR2 = tmpcr2;
 80026e8:	6053      	str	r3, [r2, #4]
  htim->Instance->SMCR = tmpsmcr;
 80026ea:	6091      	str	r1, [r2, #8]
  htim->State = HAL_TIM_STATE_READY;
 80026ec:	f880 603d 	strb.w	r6, [r0, #61]	; 0x3d
  __HAL_UNLOCK(htim);
 80026f0:	f880 503c 	strb.w	r5, [r0, #60]	; 0x3c

  return HAL_OK;
}
 80026f4:	4628      	mov	r0, r5
 80026f6:	bc70      	pop	{r4, r5, r6}
 80026f8:	4770      	bx	lr
    tmpcr2 &= ~TIM_CR2_MMS2;
 80026fa:	f423 0370 	bic.w	r3, r3, #15728640	; 0xf00000
    tmpcr2 |= sMasterConfig->MasterOutputTrigger2;
 80026fe:	684d      	ldr	r5, [r1, #4]
 8002700:	432b      	orrs	r3, r5
 8002702:	e7e7      	b.n	80026d4 <HAL_TIMEx_MasterConfigSynchronization+0x24>
  __HAL_LOCK(htim);
 8002704:	2302      	movs	r3, #2
}
 8002706:	4618      	mov	r0, r3
 8002708:	4770      	bx	lr
 800270a:	bf00      	nop
 800270c:	40010000 	.word	0x40010000

08002710 <HAL_UART_Transmit_DMA>:
  * @param pData Pointer to data buffer.
  * @param Size  Amount of data to be sent.
  * @retval HAL status
  */
HAL_StatusTypeDef HAL_UART_Transmit_DMA(UART_HandleTypeDef *huart, uint8_t *pData, uint16_t Size)
{
 8002710:	b5f8      	push	{r3, r4, r5, r6, r7, lr}
  /* Check that a Tx process is not already ongoing */
  if (huart->gState == HAL_UART_STATE_READY)
 8002712:	6f46      	ldr	r6, [r0, #116]	; 0x74
 8002714:	2e20      	cmp	r6, #32
 8002716:	d13b      	bne.n	8002790 <HAL_UART_Transmit_DMA+0x80>
  {
    if ((pData == NULL) || (Size == 0U))
 8002718:	2900      	cmp	r1, #0
 800271a:	d03b      	beq.n	8002794 <HAL_UART_Transmit_DMA+0x84>
 800271c:	fab2 f782 	clz	r7, r2
 8002720:	097f      	lsrs	r7, r7, #5
 8002722:	2f00      	cmp	r7, #0
 8002724:	d136      	bne.n	8002794 <HAL_UART_Transmit_DMA+0x84>
    {
      return HAL_ERROR;
    }

    /* Process Locked */
    __HAL_LOCK(huart);
 8002726:	f890 4070 	ldrb.w	r4, [r0, #112]	; 0x70
 800272a:	2c01      	cmp	r4, #1
 800272c:	d030      	beq.n	8002790 <HAL_UART_Transmit_DMA+0x80>
 800272e:	4613      	mov	r3, r2
 8002730:	4605      	mov	r5, r0
    huart->pTxBuffPtr  = pData;
    huart->TxXferSize  = Size;
    huart->TxXferCount = Size;

    huart->ErrorCode = HAL_UART_ERROR_NONE;
    huart->gState = HAL_UART_STATE_BUSY_TX;
 8002732:	2221      	movs	r2, #33	; 0x21
    __HAL_LOCK(huart);
 8002734:	2401      	movs	r4, #1

    if (huart->hdmatx != NULL)
 8002736:	f8d0 e068 	ldr.w	lr, [r0, #104]	; 0x68
    huart->TxXferCount = Size;
 800273a:	f8a0 3052 	strh.w	r3, [r0, #82]	; 0x52
    huart->pTxBuffPtr  = pData;
 800273e:	64e9      	str	r1, [r5, #76]	; 0x4c
    huart->ErrorCode = HAL_UART_ERROR_NONE;
 8002740:	67c7      	str	r7, [r0, #124]	; 0x7c
    huart->TxXferSize  = Size;
 8002742:	f8a0 3050 	strh.w	r3, [r0, #80]	; 0x50
    huart->gState = HAL_UART_STATE_BUSY_TX;
 8002746:	6742      	str	r2, [r0, #116]	; 0x74
    __HAL_LOCK(huart);
 8002748:	f880 4070 	strb.w	r4, [r0, #112]	; 0x70
 800274c:	6802      	ldr	r2, [r0, #0]
    if (huart->hdmatx != NULL)
 800274e:	f1be 0f00 	cmp.w	lr, #0
 8002752:	d012      	beq.n	800277a <HAL_UART_Transmit_DMA+0x6a>
    {
      /* Set the UART DMA transfer complete callback */
      huart->hdmatx->XferCpltCallback = UART_DMATransmitCplt;

      /* Set the UART DMA Half transfer complete callback */
      huart->hdmatx->XferHalfCpltCallback = UART_DMATxHalfCplt;
 8002754:	f8df c054 	ldr.w	ip, [pc, #84]	; 80027ac <HAL_UART_Transmit_DMA+0x9c>

      /* Set the DMA abort callback */
      huart->hdmatx->XferAbortCallback = NULL;

      /* Enable the UART transmit DMA channel */
      if (HAL_DMA_Start_IT(huart->hdmatx, (uint32_t)huart->pTxBuffPtr, (uint32_t)&huart->Instance->TDR, Size) != HAL_OK)
 8002758:	3228      	adds	r2, #40	; 0x28
      huart->hdmatx->XferCpltCallback = UART_DMATransmitCplt;
 800275a:	4813      	ldr	r0, [pc, #76]	; (80027a8 <HAL_UART_Transmit_DMA+0x98>)
      huart->hdmatx->XferHalfCpltCallback = UART_DMATxHalfCplt;
 800275c:	f8ce c040 	str.w	ip, [lr, #64]	; 0x40
      huart->hdmatx->XferErrorCallback = UART_DMAError;
 8002760:	f8df c04c 	ldr.w	ip, [pc, #76]	; 80027b0 <HAL_UART_Transmit_DMA+0xa0>
      huart->hdmatx->XferCpltCallback = UART_DMATransmitCplt;
 8002764:	f8ce 003c 	str.w	r0, [lr, #60]	; 0x3c
      if (HAL_DMA_Start_IT(huart->hdmatx, (uint32_t)huart->pTxBuffPtr, (uint32_t)&huart->Instance->TDR, Size) != HAL_OK)
 8002768:	4670      	mov	r0, lr
      huart->hdmatx->XferAbortCallback = NULL;
 800276a:	f8ce 7050 	str.w	r7, [lr, #80]	; 0x50
      huart->hdmatx->XferErrorCallback = UART_DMAError;
 800276e:	f8ce c04c 	str.w	ip, [lr, #76]	; 0x4c
      if (HAL_DMA_Start_IT(huart->hdmatx, (uint32_t)huart->pTxBuffPtr, (uint32_t)&huart->Instance->TDR, Size) != HAL_OK)
 8002772:	f7fe f989 	bl	8000a88 <HAL_DMA_Start_IT>
 8002776:	b978      	cbnz	r0, 8002798 <HAL_UART_Transmit_DMA+0x88>
 8002778:	682a      	ldr	r2, [r5, #0]

        return HAL_ERROR;
      }
    }
    /* Clear the TC flag in the ICR register */
    __HAL_UART_CLEAR_FLAG(huart, UART_CLEAR_TCF);
 800277a:	2340      	movs	r3, #64	; 0x40

    /* Process Unlocked */
    __HAL_UNLOCK(huart);
 800277c:	2100      	movs	r1, #0
    __HAL_UART_CLEAR_FLAG(huart, UART_CLEAR_TCF);
 800277e:	6213      	str	r3, [r2, #32]

    /* Enable the DMA transfer for transmit request by setting the DMAT bit
    in the UART CR3 register */
    SET_BIT(huart->Instance->CR3, USART_CR3_DMAT);

    return HAL_OK;
 8002780:	4608      	mov	r0, r1
    SET_BIT(huart->Instance->CR3, USART_CR3_DMAT);
 8002782:	6893      	ldr	r3, [r2, #8]
    __HAL_UNLOCK(huart);
 8002784:	f885 1070 	strb.w	r1, [r5, #112]	; 0x70
    SET_BIT(huart->Instance->CR3, USART_CR3_DMAT);
 8002788:	f043 0380 	orr.w	r3, r3, #128	; 0x80
 800278c:	6093      	str	r3, [r2, #8]
  }
  else
  {
    return HAL_BUSY;
  }
}
 800278e:	bdf8      	pop	{r3, r4, r5, r6, r7, pc}
    return HAL_BUSY;
 8002790:	2002      	movs	r0, #2
}
 8002792:	bdf8      	pop	{r3, r4, r5, r6, r7, pc}
      return HAL_ERROR;
 8002794:	2001      	movs	r0, #1
}
 8002796:	bdf8      	pop	{r3, r4, r5, r6, r7, pc}
        huart->ErrorCode = HAL_UART_ERROR_DMA;
 8002798:	2310      	movs	r3, #16
        __HAL_UNLOCK(huart);
 800279a:	f885 7070 	strb.w	r7, [r5, #112]	; 0x70
        return HAL_ERROR;
 800279e:	4620      	mov	r0, r4
        huart->ErrorCode = HAL_UART_ERROR_DMA;
 80027a0:	67eb      	str	r3, [r5, #124]	; 0x7c
        huart->gState = HAL_UART_STATE_READY;
 80027a2:	676e      	str	r6, [r5, #116]	; 0x74
}
 80027a4:	bdf8      	pop	{r3, r4, r5, r6, r7, pc}
 80027a6:	bf00      	nop
 80027a8:	080027b9 	.word	0x080027b9
 80027ac:	080027e9 	.word	0x080027e9
 80027b0:	080027f9 	.word	0x080027f9

080027b4 <HAL_UART_TxCpltCallback>:
 80027b4:	4770      	bx	lr
 80027b6:	bf00      	nop

080027b8 <UART_DMATransmitCplt>:
  * @brief DMA UART transmit process complete callback.
  * @param hdma DMA handle.
  * @retval None
  */
static void UART_DMATransmitCplt(DMA_HandleTypeDef *hdma)
{
 80027b8:	b508      	push	{r3, lr}
  UART_HandleTypeDef *huart = (UART_HandleTypeDef *)(hdma->Parent);

  /* DMA Normal mode */
  if (hdma->Init.Mode != DMA_CIRCULAR)
 80027ba:	69c3      	ldr	r3, [r0, #28]
  UART_HandleTypeDef *huart = (UART_HandleTypeDef *)(hdma->Parent);
 80027bc:	6b80      	ldr	r0, [r0, #56]	; 0x38
  if (hdma->Init.Mode != DMA_CIRCULAR)
 80027be:	f5b3 7f80 	cmp.w	r3, #256	; 0x100
 80027c2:	d00c      	beq.n	80027de <UART_DMATransmitCplt+0x26>
  {
    huart->TxXferCount = 0U;

    /* Disable the DMA transfer for transmit request by resetting the DMAT bit
       in the UART CR3 register */
    CLEAR_BIT(huart->Instance->CR3, USART_CR3_DMAT);
 80027c4:	6803      	ldr	r3, [r0, #0]
    huart->TxXferCount = 0U;
 80027c6:	2200      	movs	r2, #0
 80027c8:	f8a0 2052 	strh.w	r2, [r0, #82]	; 0x52
    CLEAR_BIT(huart->Instance->CR3, USART_CR3_DMAT);
 80027cc:	689a      	ldr	r2, [r3, #8]
 80027ce:	f022 0280 	bic.w	r2, r2, #128	; 0x80
 80027d2:	609a      	str	r2, [r3, #8]

    /* Enable the UART Transmit Complete Interrupt */
    SET_BIT(huart->Instance->CR1, USART_CR1_TCIE);
 80027d4:	681a      	ldr	r2, [r3, #0]
 80027d6:	f042 0240 	orr.w	r2, r2, #64	; 0x40
 80027da:	601a      	str	r2, [r3, #0]
#else
    /*Call legacy weak Tx complete callback*/
    HAL_UART_TxCpltCallback(huart);
#endif /* USE_HAL_UART_REGISTER_CALLBACKS */
  }
}
 80027dc:	bd08      	pop	{r3, pc}
    HAL_UART_TxCpltCallback(huart);
 80027de:	f7ff ffe9 	bl	80027b4 <HAL_UART_TxCpltCallback>
}
 80027e2:	bd08      	pop	{r3, pc}

080027e4 <HAL_UART_TxHalfCpltCallback>:
 80027e4:	4770      	bx	lr
 80027e6:	bf00      	nop

080027e8 <UART_DMATxHalfCplt>:
  * @brief DMA UART transmit process half complete callback.
  * @param hdma DMA handle.
  * @retval None
  */
static void UART_DMATxHalfCplt(DMA_HandleTypeDef *hdma)
{
 80027e8:	b508      	push	{r3, lr}
#if (USE_HAL_UART_REGISTER_CALLBACKS == 1)
  /*Call registered Tx Half complete callback*/
  huart->TxHalfCpltCallback(huart);
#else
  /*Call legacy weak Tx Half complete callback*/
  HAL_UART_TxHalfCpltCallback(huart);
 80027ea:	6b80      	ldr	r0, [r0, #56]	; 0x38
 80027ec:	f7ff fffa 	bl	80027e4 <HAL_UART_TxHalfCpltCallback>
#endif /* USE_HAL_UART_REGISTER_CALLBACKS */
}
 80027f0:	bd08      	pop	{r3, pc}
 80027f2:	bf00      	nop

080027f4 <HAL_UART_ErrorCallback>:
 80027f4:	4770      	bx	lr
 80027f6:	bf00      	nop

080027f8 <UART_DMAError>:
  * @param hdma DMA handle.
  * @retval None
  */
static void UART_DMAError(DMA_HandleTypeDef *hdma)
{
  UART_HandleTypeDef *huart = (UART_HandleTypeDef *)(hdma->Parent);
 80027f8:	6b83      	ldr	r3, [r0, #56]	; 0x38

  const HAL_UART_StateTypeDef gstate = huart->gState;
  const HAL_UART_StateTypeDef rxstate = huart->RxState;

  /* Stop UART DMA Tx request if ongoing */
  if ((HAL_IS_BIT_SET(huart->Instance->CR3, USART_CR3_DMAT)) &&
 80027fa:	681a      	ldr	r2, [r3, #0]
{
 80027fc:	b510      	push	{r4, lr}
  const HAL_UART_StateTypeDef gstate = huart->gState;
 80027fe:	6f5c      	ldr	r4, [r3, #116]	; 0x74
  const HAL_UART_StateTypeDef rxstate = huart->RxState;
 8002800:	6f98      	ldr	r0, [r3, #120]	; 0x78
  if ((HAL_IS_BIT_SET(huart->Instance->CR3, USART_CR3_DMAT)) &&
 8002802:	6891      	ldr	r1, [r2, #8]
 8002804:	0609      	lsls	r1, r1, #24
 8002806:	d501      	bpl.n	800280c <UART_DMAError+0x14>
 8002808:	2c21      	cmp	r4, #33	; 0x21
 800280a:	d01b      	beq.n	8002844 <UART_DMAError+0x4c>
    huart->TxXferCount = 0U;
    UART_EndTxTransfer(huart);
  }

  /* Stop UART DMA Rx request if ongoing */
  if ((HAL_IS_BIT_SET(huart->Instance->CR3, USART_CR3_DMAR)) &&
 800280c:	6891      	ldr	r1, [r2, #8]
 800280e:	0649      	lsls	r1, r1, #25
 8002810:	d501      	bpl.n	8002816 <UART_DMAError+0x1e>
 8002812:	2822      	cmp	r0, #34	; 0x22
 8002814:	d007      	beq.n	8002826 <UART_DMAError+0x2e>
  {
    huart->RxXferCount = 0U;
    UART_EndRxTransfer(huart);
  }

  huart->ErrorCode |= HAL_UART_ERROR_DMA;
 8002816:	6fda      	ldr	r2, [r3, #124]	; 0x7c
#if (USE_HAL_UART_REGISTER_CALLBACKS == 1)
  /*Call registered error callback*/
  huart->ErrorCallback(huart);
#else
  /*Call legacy weak error callback*/
  HAL_UART_ErrorCallback(huart);
 8002818:	4618      	mov	r0, r3
  huart->ErrorCode |= HAL_UART_ERROR_DMA;
 800281a:	f042 0210 	orr.w	r2, r2, #16
 800281e:	67da      	str	r2, [r3, #124]	; 0x7c
  HAL_UART_ErrorCallback(huart);
 8002820:	f7ff ffe8 	bl	80027f4 <HAL_UART_ErrorCallback>
#endif /* USE_HAL_UART_REGISTER_CALLBACKS */
}
 8002824:	bd10      	pop	{r4, pc}
    huart->RxXferCount = 0U;
 8002826:	2000      	movs	r0, #0
  huart->RxState = HAL_UART_STATE_READY;
 8002828:	2420      	movs	r4, #32
    huart->RxXferCount = 0U;
 800282a:	f8a3 005a 	strh.w	r0, [r3, #90]	; 0x5a
  CLEAR_BIT(huart->Instance->CR1, (USART_CR1_RXNEIE | USART_CR1_PEIE));
 800282e:	6811      	ldr	r1, [r2, #0]
 8002830:	f421 7190 	bic.w	r1, r1, #288	; 0x120
 8002834:	6011      	str	r1, [r2, #0]
  CLEAR_BIT(huart->Instance->CR3, USART_CR3_EIE);
 8002836:	6891      	ldr	r1, [r2, #8]
 8002838:	f021 0101 	bic.w	r1, r1, #1
 800283c:	6091      	str	r1, [r2, #8]
  huart->RxISR = NULL;
 800283e:	6618      	str	r0, [r3, #96]	; 0x60
  huart->RxState = HAL_UART_STATE_READY;
 8002840:	679c      	str	r4, [r3, #120]	; 0x78
 8002842:	e7e8      	b.n	8002816 <UART_DMAError+0x1e>
    huart->TxXferCount = 0U;
 8002844:	2100      	movs	r1, #0
  huart->gState = HAL_UART_STATE_READY;
 8002846:	2420      	movs	r4, #32
    huart->TxXferCount = 0U;
 8002848:	f8a3 1052 	strh.w	r1, [r3, #82]	; 0x52
  CLEAR_BIT(huart->Instance->CR1, (USART_CR1_TXEIE | USART_CR1_TCIE));
 800284c:	6811      	ldr	r1, [r2, #0]
 800284e:	f021 01c0 	bic.w	r1, r1, #192	; 0xc0
 8002852:	6011      	str	r1, [r2, #0]
  huart->gState = HAL_UART_STATE_READY;
 8002854:	675c      	str	r4, [r3, #116]	; 0x74
 8002856:	e7d9      	b.n	800280c <UART_DMAError+0x14>

08002858 <UART_SetConfig>:
{
 8002858:	b5f8      	push	{r3, r4, r5, r6, r7, lr}
 800285a:	4604      	mov	r4, r0
  tmpreg = (uint32_t)huart->Init.WordLength | huart->Init.Parity | huart->Init.Mode | huart->Init.OverSampling ;
 800285c:	6883      	ldr	r3, [r0, #8]
  MODIFY_REG(huart->Instance->CR1, USART_CR1_FIELDS, tmpreg);
 800285e:	49af      	ldr	r1, [pc, #700]	; (8002b1c <UART_SetConfig+0x2c4>)
  tmpreg = (uint32_t)huart->Init.WordLength | huart->Init.Parity | huart->Init.Mode | huart->Init.OverSampling ;
 8002860:	69e6      	ldr	r6, [r4, #28]
  MODIFY_REG(huart->Instance->CR2, USART_CR2_STOP, huart->Init.StopBits);
 8002862:	68e7      	ldr	r7, [r4, #12]
  UART_GETCLOCKSOURCE(huart, clocksource);
 8002864:	4dae      	ldr	r5, [pc, #696]	; (8002b20 <UART_SetConfig+0x2c8>)
  tmpreg = (uint32_t)huart->Init.WordLength | huart->Init.Parity | huart->Init.Mode | huart->Init.OverSampling ;
 8002866:	e9d0 2004 	ldrd	r2, r0, [r0, #16]
 800286a:	431a      	orrs	r2, r3
  MODIFY_REG(huart->Instance->CR1, USART_CR1_FIELDS, tmpreg);
 800286c:	6823      	ldr	r3, [r4, #0]
  tmpreg = (uint32_t)huart->Init.WordLength | huart->Init.Parity | huart->Init.Mode | huart->Init.OverSampling ;
 800286e:	4302      	orrs	r2, r0
  MODIFY_REG(huart->Instance->CR1, USART_CR1_FIELDS, tmpreg);
 8002870:	6818      	ldr	r0, [r3, #0]
  UART_GETCLOCKSOURCE(huart, clocksource);
 8002872:	42ab      	cmp	r3, r5
  MODIFY_REG(huart->Instance->CR1, USART_CR1_FIELDS, tmpreg);
 8002874:	ea01 0100 	and.w	r1, r1, r0
  tmpreg = (uint32_t)huart->Init.WordLength | huart->Init.Parity | huart->Init.Mode | huart->Init.OverSampling ;
 8002878:	ea42 0206 	orr.w	r2, r2, r6
  MODIFY_REG(huart->Instance->CR1, USART_CR1_FIELDS, tmpreg);
 800287c:	ea42 0201 	orr.w	r2, r2, r1
  tmpreg = (uint32_t)huart->Init.HwFlowCtl;
 8002880:	69a1      	ldr	r1, [r4, #24]
  MODIFY_REG(huart->Instance->CR1, USART_CR1_FIELDS, tmpreg);
 8002882:	601a      	str	r2, [r3, #0]
  MODIFY_REG(huart->Instance->CR2, USART_CR2_STOP, huart->Init.StopBits);
 8002884:	6858      	ldr	r0, [r3, #4]
  tmpreg |= huart->Init.OneBitSampling;
 8002886:	6a22      	ldr	r2, [r4, #32]
  MODIFY_REG(huart->Instance->CR2, USART_CR2_STOP, huart->Init.StopBits);
 8002888:	f420 5040 	bic.w	r0, r0, #12288	; 0x3000
  tmpreg |= huart->Init.OneBitSampling;
 800288c:	ea42 0201 	orr.w	r2, r2, r1
  MODIFY_REG(huart->Instance->CR2, USART_CR2_STOP, huart->Init.StopBits);
 8002890:	ea40 0007 	orr.w	r0, r0, r7
 8002894:	6058      	str	r0, [r3, #4]
  MODIFY_REG(huart->Instance->CR3, USART_CR3_FIELDS, tmpreg);
 8002896:	6899      	ldr	r1, [r3, #8]
 8002898:	f421 6130 	bic.w	r1, r1, #2816	; 0xb00
 800289c:	ea42 0201 	orr.w	r2, r2, r1
 80028a0:	609a      	str	r2, [r3, #8]
  UART_GETCLOCKSOURCE(huart, clocksource);
 80028a2:	d041      	beq.n	8002928 <UART_SetConfig+0xd0>
 80028a4:	4a9f      	ldr	r2, [pc, #636]	; (8002b24 <UART_SetConfig+0x2cc>)
 80028a6:	4293      	cmp	r3, r2
 80028a8:	d01b      	beq.n	80028e2 <UART_SetConfig+0x8a>
 80028aa:	4a9f      	ldr	r2, [pc, #636]	; (8002b28 <UART_SetConfig+0x2d0>)
 80028ac:	4293      	cmp	r3, r2
 80028ae:	f000 80b1 	beq.w	8002a14 <UART_SetConfig+0x1bc>
 80028b2:	4a9e      	ldr	r2, [pc, #632]	; (8002b2c <UART_SetConfig+0x2d4>)
 80028b4:	4293      	cmp	r3, r2
 80028b6:	f000 80df 	beq.w	8002a78 <UART_SetConfig+0x220>
 80028ba:	4a9d      	ldr	r2, [pc, #628]	; (8002b30 <UART_SetConfig+0x2d8>)
 80028bc:	4293      	cmp	r3, r2
 80028be:	d053      	beq.n	8002968 <UART_SetConfig+0x110>
 80028c0:	4a9c      	ldr	r2, [pc, #624]	; (8002b34 <UART_SetConfig+0x2dc>)
 80028c2:	4293      	cmp	r3, r2
 80028c4:	f000 80be 	beq.w	8002a44 <UART_SetConfig+0x1ec>
 80028c8:	4a9b      	ldr	r2, [pc, #620]	; (8002b38 <UART_SetConfig+0x2e0>)
 80028ca:	4293      	cmp	r3, r2
 80028cc:	f000 8105 	beq.w	8002ada <UART_SetConfig+0x282>
 80028d0:	4a9a      	ldr	r2, [pc, #616]	; (8002b3c <UART_SetConfig+0x2e4>)
 80028d2:	4293      	cmp	r3, r2
 80028d4:	f000 8111 	beq.w	8002afa <UART_SetConfig+0x2a2>
  huart->RxISR = NULL;
 80028d8:	2300      	movs	r3, #0
      ret = HAL_ERROR;
 80028da:	2001      	movs	r0, #1
  huart->TxISR = NULL;
 80028dc:	e9c4 3318 	strd	r3, r3, [r4, #96]	; 0x60
}
 80028e0:	bdf8      	pop	{r3, r4, r5, r6, r7, pc}
  UART_GETCLOCKSOURCE(huart, clocksource);
 80028e2:	f502 32fa 	add.w	r2, r2, #128000	; 0x1f400
 80028e6:	4b96      	ldr	r3, [pc, #600]	; (8002b40 <UART_SetConfig+0x2e8>)
 80028e8:	f8d2 2090 	ldr.w	r2, [r2, #144]	; 0x90
 80028ec:	f002 020c 	and.w	r2, r2, #12
 80028f0:	4413      	add	r3, r2
 80028f2:	791b      	ldrb	r3, [r3, #4]
  if (huart->Init.OverSampling == UART_OVERSAMPLING_8)
 80028f4:	f5b6 4f00 	cmp.w	r6, #32768	; 0x8000
 80028f8:	d01e      	beq.n	8002938 <UART_SetConfig+0xe0>
    switch (clocksource)
 80028fa:	2b08      	cmp	r3, #8
 80028fc:	d8ec      	bhi.n	80028d8 <UART_SetConfig+0x80>
 80028fe:	a201      	add	r2, pc, #4	; (adr r2, 8002904 <UART_SetConfig+0xac>)
 8002900:	f852 f023 	ldr.w	pc, [r2, r3, lsl #2]
 8002904:	08002a03 	.word	0x08002a03
 8002908:	08002995 	.word	0x08002995
 800290c:	08002ab3 	.word	0x08002ab3
 8002910:	080028d9 	.word	0x080028d9
 8002914:	08002a5b 	.word	0x08002a5b
 8002918:	080028d9 	.word	0x080028d9
 800291c:	080028d9 	.word	0x080028d9
 8002920:	080028d9 	.word	0x080028d9
 8002924:	08002a35 	.word	0x08002a35
  UART_GETCLOCKSOURCE(huart, clocksource);
 8002928:	4b86      	ldr	r3, [pc, #536]	; (8002b44 <UART_SetConfig+0x2ec>)
 800292a:	4a85      	ldr	r2, [pc, #532]	; (8002b40 <UART_SetConfig+0x2e8>)
 800292c:	f8d3 3090 	ldr.w	r3, [r3, #144]	; 0x90
 8002930:	f003 0303 	and.w	r3, r3, #3
 8002934:	5cd3      	ldrb	r3, [r2, r3]
 8002936:	e7dd      	b.n	80028f4 <UART_SetConfig+0x9c>
    switch (clocksource)
 8002938:	2b08      	cmp	r3, #8
 800293a:	d8cd      	bhi.n	80028d8 <UART_SetConfig+0x80>
 800293c:	a201      	add	r2, pc, #4	; (adr r2, 8002944 <UART_SetConfig+0xec>)
 800293e:	f852 f023 	ldr.w	pc, [r2, r3, lsl #2]
 8002942:	bf00      	nop
 8002944:	08002a6d 	.word	0x08002a6d
 8002948:	080029bf 	.word	0x080029bf
 800294c:	08002a93 	.word	0x08002a93
 8002950:	080028d9 	.word	0x080028d9
 8002954:	08002a73 	.word	0x08002a73
 8002958:	080028d9 	.word	0x080028d9
 800295c:	080028d9 	.word	0x080028d9
 8002960:	080028d9 	.word	0x080028d9
 8002964:	08002aa3 	.word	0x08002aa3
  UART_GETCLOCKSOURCE(huart, clocksource);
 8002968:	4b76      	ldr	r3, [pc, #472]	; (8002b44 <UART_SetConfig+0x2ec>)
 800296a:	f8d3 3090 	ldr.w	r3, [r3, #144]	; 0x90
 800296e:	f403 7340 	and.w	r3, r3, #768	; 0x300
 8002972:	f5b3 7f80 	cmp.w	r3, #256	; 0x100
 8002976:	d06d      	beq.n	8002a54 <UART_SetConfig+0x1fc>
 8002978:	d93d      	bls.n	80029f6 <UART_SetConfig+0x19e>
 800297a:	f5b3 7f00 	cmp.w	r3, #512	; 0x200
 800297e:	f000 8085 	beq.w	8002a8c <UART_SetConfig+0x234>
 8002982:	f5b3 7f40 	cmp.w	r3, #768	; 0x300
 8002986:	d052      	beq.n	8002a2e <UART_SetConfig+0x1d6>
 8002988:	e7a6      	b.n	80028d8 <UART_SetConfig+0x80>
 800298a:	2b00      	cmp	r3, #0
 800298c:	d1a4      	bne.n	80028d8 <UART_SetConfig+0x80>
  if (huart->Init.OverSampling == UART_OVERSAMPLING_8)
 800298e:	f5b6 4f00 	cmp.w	r6, #32768	; 0x8000
 8002992:	d014      	beq.n	80029be <UART_SetConfig+0x166>
        usartdiv = (uint16_t)(UART_DIV_SAMPLING16(HAL_RCC_GetPCLK2Freq(), huart->Init.BaudRate));
 8002994:	f7fe fdda 	bl	800154c <HAL_RCC_GetPCLK2Freq>
 8002998:	6862      	ldr	r2, [r4, #4]
 800299a:	eb00 0352 	add.w	r3, r0, r2, lsr #1
 800299e:	fbb3 f3f2 	udiv	r3, r3, r2
 80029a2:	b29b      	uxth	r3, r3
    if ((usartdiv >= UART_BRR_MIN) && (usartdiv <= UART_BRR_MAX))
 80029a4:	f1a3 0110 	sub.w	r1, r3, #16
 80029a8:	f64f 72ef 	movw	r2, #65519	; 0xffef
 80029ac:	4291      	cmp	r1, r2
 80029ae:	d893      	bhi.n	80028d8 <UART_SetConfig+0x80>
      huart->Instance->BRR = usartdiv;
 80029b0:	6822      	ldr	r2, [r4, #0]
 80029b2:	2000      	movs	r0, #0
 80029b4:	60d3      	str	r3, [r2, #12]
  huart->RxISR = NULL;
 80029b6:	2300      	movs	r3, #0
  huart->TxISR = NULL;
 80029b8:	e9c4 3318 	strd	r3, r3, [r4, #96]	; 0x60
}
 80029bc:	bdf8      	pop	{r3, r4, r5, r6, r7, pc}
        usartdiv = (uint16_t)(UART_DIV_SAMPLING8(HAL_RCC_GetPCLK2Freq(), huart->Init.BaudRate));
 80029be:	f7fe fdc5 	bl	800154c <HAL_RCC_GetPCLK2Freq>
 80029c2:	6862      	ldr	r2, [r4, #4]
 80029c4:	0853      	lsrs	r3, r2, #1
 80029c6:	eb03 0340 	add.w	r3, r3, r0, lsl #1
 80029ca:	fbb3 f3f2 	udiv	r3, r3, r2
 80029ce:	b29b      	uxth	r3, r3
    if ((usartdiv >= UART_BRR_MIN) && (usartdiv <= UART_BRR_MAX))
 80029d0:	f1a3 0110 	sub.w	r1, r3, #16
 80029d4:	f64f 72ef 	movw	r2, #65519	; 0xffef
 80029d8:	4291      	cmp	r1, r2
 80029da:	f63f af7d 	bhi.w	80028d8 <UART_SetConfig+0x80>
      brrtemp = (uint16_t)(usartdiv & 0xFFF0U);
 80029de:	f023 020f 	bic.w	r2, r3, #15
      brrtemp |= (uint16_t)((usartdiv & (uint16_t)0x000FU) >> 1U);
 80029e2:	f3c3 0342 	ubfx	r3, r3, #1, #3
      huart->Instance->BRR = brrtemp;
 80029e6:	6821      	ldr	r1, [r4, #0]
 80029e8:	2000      	movs	r0, #0
 80029ea:	4313      	orrs	r3, r2
 80029ec:	60cb      	str	r3, [r1, #12]
  huart->RxISR = NULL;
 80029ee:	2300      	movs	r3, #0
  huart->TxISR = NULL;
 80029f0:	e9c4 3318 	strd	r3, r3, [r4, #96]	; 0x60
}
 80029f4:	bdf8      	pop	{r3, r4, r5, r6, r7, pc}
  UART_GETCLOCKSOURCE(huart, clocksource);
 80029f6:	2b00      	cmp	r3, #0
 80029f8:	f47f af6e 	bne.w	80028d8 <UART_SetConfig+0x80>
  if (huart->Init.OverSampling == UART_OVERSAMPLING_8)
 80029fc:	f5b6 4f00 	cmp.w	r6, #32768	; 0x8000
 8002a00:	d034      	beq.n	8002a6c <UART_SetConfig+0x214>
        usartdiv = (uint16_t)(UART_DIV_SAMPLING16(HAL_RCC_GetPCLK1Freq(), huart->Init.BaudRate));
 8002a02:	f7fe fd93 	bl	800152c <HAL_RCC_GetPCLK1Freq>
 8002a06:	6862      	ldr	r2, [r4, #4]
 8002a08:	eb00 0352 	add.w	r3, r0, r2, lsr #1
 8002a0c:	fbb3 f3f2 	udiv	r3, r3, r2
 8002a10:	b29b      	uxth	r3, r3
        break;
 8002a12:	e7c7      	b.n	80029a4 <UART_SetConfig+0x14c>
  UART_GETCLOCKSOURCE(huart, clocksource);
 8002a14:	4b4b      	ldr	r3, [pc, #300]	; (8002b44 <UART_SetConfig+0x2ec>)
 8002a16:	f8d3 3090 	ldr.w	r3, [r3, #144]	; 0x90
 8002a1a:	f003 0330 	and.w	r3, r3, #48	; 0x30
 8002a1e:	2b10      	cmp	r3, #16
 8002a20:	d018      	beq.n	8002a54 <UART_SetConfig+0x1fc>
 8002a22:	d9e8      	bls.n	80029f6 <UART_SetConfig+0x19e>
 8002a24:	2b20      	cmp	r3, #32
 8002a26:	d031      	beq.n	8002a8c <UART_SetConfig+0x234>
 8002a28:	2b30      	cmp	r3, #48	; 0x30
 8002a2a:	f47f af55 	bne.w	80028d8 <UART_SetConfig+0x80>
  if (huart->Init.OverSampling == UART_OVERSAMPLING_8)
 8002a2e:	f5b6 4f00 	cmp.w	r6, #32768	; 0x8000
 8002a32:	d036      	beq.n	8002aa2 <UART_SetConfig+0x24a>
        usartdiv = (uint16_t)(UART_DIV_SAMPLING16(LSE_VALUE, huart->Init.BaudRate));
 8002a34:	6862      	ldr	r2, [r4, #4]
 8002a36:	0853      	lsrs	r3, r2, #1
 8002a38:	f503 4300 	add.w	r3, r3, #32768	; 0x8000
 8002a3c:	fbb3 f3f2 	udiv	r3, r3, r2
 8002a40:	b29b      	uxth	r3, r3
        break;
 8002a42:	e7af      	b.n	80029a4 <UART_SetConfig+0x14c>
  UART_GETCLOCKSOURCE(huart, clocksource);
 8002a44:	4b3f      	ldr	r3, [pc, #252]	; (8002b44 <UART_SetConfig+0x2ec>)
 8002a46:	f8d3 3090 	ldr.w	r3, [r3, #144]	; 0x90
 8002a4a:	f403 6340 	and.w	r3, r3, #3072	; 0xc00
 8002a4e:	f5b3 6f80 	cmp.w	r3, #1024	; 0x400
 8002a52:	d136      	bne.n	8002ac2 <UART_SetConfig+0x26a>
  if (huart->Init.OverSampling == UART_OVERSAMPLING_8)
 8002a54:	f5b6 4f00 	cmp.w	r6, #32768	; 0x8000
 8002a58:	d00b      	beq.n	8002a72 <UART_SetConfig+0x21a>
        usartdiv = (uint16_t)(UART_DIV_SAMPLING16(HAL_RCC_GetSysClockFreq(), huart->Init.BaudRate));
 8002a5a:	f7fe fc95 	bl	8001388 <HAL_RCC_GetSysClockFreq>
 8002a5e:	6862      	ldr	r2, [r4, #4]
 8002a60:	eb00 0352 	add.w	r3, r0, r2, lsr #1
 8002a64:	fbb3 f3f2 	udiv	r3, r3, r2
 8002a68:	b29b      	uxth	r3, r3
        break;
 8002a6a:	e79b      	b.n	80029a4 <UART_SetConfig+0x14c>
        usartdiv = (uint16_t)(UART_DIV_SAMPLING8(HAL_RCC_GetPCLK1Freq(), huart->Init.BaudRate));
 8002a6c:	f7fe fd5e 	bl	800152c <HAL_RCC_GetPCLK1Freq>
 8002a70:	e7a7      	b.n	80029c2 <UART_SetConfig+0x16a>
        usartdiv = (uint16_t)(UART_DIV_SAMPLING8(HAL_RCC_GetSysClockFreq(), huart->Init.BaudRate));
 8002a72:	f7fe fc89 	bl	8001388 <HAL_RCC_GetSysClockFreq>
 8002a76:	e7a4      	b.n	80029c2 <UART_SetConfig+0x16a>
  UART_GETCLOCKSOURCE(huart, clocksource);
 8002a78:	4b32      	ldr	r3, [pc, #200]	; (8002b44 <UART_SetConfig+0x2ec>)
 8002a7a:	f8d3 3090 	ldr.w	r3, [r3, #144]	; 0x90
 8002a7e:	f003 03c0 	and.w	r3, r3, #192	; 0xc0
 8002a82:	2b40      	cmp	r3, #64	; 0x40
 8002a84:	d0e6      	beq.n	8002a54 <UART_SetConfig+0x1fc>
 8002a86:	d9b6      	bls.n	80029f6 <UART_SetConfig+0x19e>
 8002a88:	2b80      	cmp	r3, #128	; 0x80
 8002a8a:	d123      	bne.n	8002ad4 <UART_SetConfig+0x27c>
  if (huart->Init.OverSampling == UART_OVERSAMPLING_8)
 8002a8c:	f5b6 4f00 	cmp.w	r6, #32768	; 0x8000
 8002a90:	d10f      	bne.n	8002ab2 <UART_SetConfig+0x25a>
        usartdiv = (uint16_t)(UART_DIV_SAMPLING8(HSI_VALUE, huart->Init.BaudRate));
 8002a92:	6862      	ldr	r2, [r4, #4]
 8002a94:	4b2c      	ldr	r3, [pc, #176]	; (8002b48 <UART_SetConfig+0x2f0>)
 8002a96:	eb03 0352 	add.w	r3, r3, r2, lsr #1
 8002a9a:	fbb3 f3f2 	udiv	r3, r3, r2
 8002a9e:	b29b      	uxth	r3, r3
        break;
 8002aa0:	e796      	b.n	80029d0 <UART_SetConfig+0x178>
        usartdiv = (uint16_t)(UART_DIV_SAMPLING8(LSE_VALUE, huart->Init.BaudRate));
 8002aa2:	6862      	ldr	r2, [r4, #4]
 8002aa4:	0853      	lsrs	r3, r2, #1
 8002aa6:	f503 3380 	add.w	r3, r3, #65536	; 0x10000
 8002aaa:	fbb3 f3f2 	udiv	r3, r3, r2
 8002aae:	b29b      	uxth	r3, r3
        break;
 8002ab0:	e78e      	b.n	80029d0 <UART_SetConfig+0x178>
        usartdiv = (uint16_t)(UART_DIV_SAMPLING16(HSI_VALUE, huart->Init.BaudRate));
 8002ab2:	6862      	ldr	r2, [r4, #4]
 8002ab4:	4b25      	ldr	r3, [pc, #148]	; (8002b4c <UART_SetConfig+0x2f4>)
 8002ab6:	eb03 0352 	add.w	r3, r3, r2, lsr #1
 8002aba:	fbb3 f3f2 	udiv	r3, r3, r2
 8002abe:	b29b      	uxth	r3, r3
        break;
 8002ac0:	e770      	b.n	80029a4 <UART_SetConfig+0x14c>
  UART_GETCLOCKSOURCE(huart, clocksource);
 8002ac2:	f67f af62 	bls.w	800298a <UART_SetConfig+0x132>
 8002ac6:	f5b3 6f00 	cmp.w	r3, #2048	; 0x800
 8002aca:	d0df      	beq.n	8002a8c <UART_SetConfig+0x234>
 8002acc:	f5b3 6f40 	cmp.w	r3, #3072	; 0xc00
 8002ad0:	d0ad      	beq.n	8002a2e <UART_SetConfig+0x1d6>
 8002ad2:	e701      	b.n	80028d8 <UART_SetConfig+0x80>
 8002ad4:	2bc0      	cmp	r3, #192	; 0xc0
 8002ad6:	d0aa      	beq.n	8002a2e <UART_SetConfig+0x1d6>
 8002ad8:	e6fe      	b.n	80028d8 <UART_SetConfig+0x80>
 8002ada:	4b1a      	ldr	r3, [pc, #104]	; (8002b44 <UART_SetConfig+0x2ec>)
 8002adc:	f8d3 3090 	ldr.w	r3, [r3, #144]	; 0x90
 8002ae0:	f403 5340 	and.w	r3, r3, #12288	; 0x3000
 8002ae4:	f5b3 5f80 	cmp.w	r3, #4096	; 0x1000
 8002ae8:	d0b4      	beq.n	8002a54 <UART_SetConfig+0x1fc>
 8002aea:	d984      	bls.n	80029f6 <UART_SetConfig+0x19e>
 8002aec:	f5b3 5f00 	cmp.w	r3, #8192	; 0x2000
 8002af0:	d0cc      	beq.n	8002a8c <UART_SetConfig+0x234>
 8002af2:	f5b3 5f40 	cmp.w	r3, #12288	; 0x3000
 8002af6:	d09a      	beq.n	8002a2e <UART_SetConfig+0x1d6>
 8002af8:	e6ee      	b.n	80028d8 <UART_SetConfig+0x80>
 8002afa:	4b12      	ldr	r3, [pc, #72]	; (8002b44 <UART_SetConfig+0x2ec>)
 8002afc:	f8d3 3090 	ldr.w	r3, [r3, #144]	; 0x90
 8002b00:	f403 4340 	and.w	r3, r3, #49152	; 0xc000
 8002b04:	f5b3 4f80 	cmp.w	r3, #16384	; 0x4000
 8002b08:	d0a4      	beq.n	8002a54 <UART_SetConfig+0x1fc>
 8002b0a:	f67f af74 	bls.w	80029f6 <UART_SetConfig+0x19e>
 8002b0e:	f5b3 4f00 	cmp.w	r3, #32768	; 0x8000
 8002b12:	d0bb      	beq.n	8002a8c <UART_SetConfig+0x234>
 8002b14:	f5b3 4f40 	cmp.w	r3, #49152	; 0xc000
 8002b18:	d089      	beq.n	8002a2e <UART_SetConfig+0x1d6>
 8002b1a:	e6dd      	b.n	80028d8 <UART_SetConfig+0x80>
 8002b1c:	efff69f3 	.word	0xefff69f3
 8002b20:	40011000 	.word	0x40011000
 8002b24:	40004400 	.word	0x40004400
 8002b28:	40004800 	.word	0x40004800
 8002b2c:	40004c00 	.word	0x40004c00
 8002b30:	40005000 	.word	0x40005000
 8002b34:	40011400 	.word	0x40011400
 8002b38:	40007800 	.word	0x40007800
 8002b3c:	40007c00 	.word	0x40007c00
 8002b40:	08006b2c 	.word	0x08006b2c
 8002b44:	40023800 	.word	0x40023800
 8002b48:	01e84800 	.word	0x01e84800
 8002b4c:	00f42400 	.word	0x00f42400

08002b50 <UART_AdvFeatureConfig>:
  if (HAL_IS_BIT_SET(huart->AdvancedInit.AdvFeatureInit, UART_ADVFEATURE_TXINVERT_INIT))
 8002b50:	6a43      	ldr	r3, [r0, #36]	; 0x24
 8002b52:	07da      	lsls	r2, r3, #31
{
 8002b54:	b410      	push	{r4}
  if (HAL_IS_BIT_SET(huart->AdvancedInit.AdvFeatureInit, UART_ADVFEATURE_TXINVERT_INIT))
 8002b56:	d506      	bpl.n	8002b66 <UART_AdvFeatureConfig+0x16>
    MODIFY_REG(huart->Instance->CR2, USART_CR2_TXINV, huart->AdvancedInit.TxPinLevelInvert);
 8002b58:	6801      	ldr	r1, [r0, #0]
 8002b5a:	6a84      	ldr	r4, [r0, #40]	; 0x28
 8002b5c:	684a      	ldr	r2, [r1, #4]
 8002b5e:	f422 3200 	bic.w	r2, r2, #131072	; 0x20000
 8002b62:	4322      	orrs	r2, r4
 8002b64:	604a      	str	r2, [r1, #4]
  if (HAL_IS_BIT_SET(huart->AdvancedInit.AdvFeatureInit, UART_ADVFEATURE_RXINVERT_INIT))
 8002b66:	079c      	lsls	r4, r3, #30
 8002b68:	d506      	bpl.n	8002b78 <UART_AdvFeatureConfig+0x28>
    MODIFY_REG(huart->Instance->CR2, USART_CR2_RXINV, huart->AdvancedInit.RxPinLevelInvert);
 8002b6a:	6801      	ldr	r1, [r0, #0]
 8002b6c:	6ac4      	ldr	r4, [r0, #44]	; 0x2c
 8002b6e:	684a      	ldr	r2, [r1, #4]
 8002b70:	f422 3280 	bic.w	r2, r2, #65536	; 0x10000
 8002b74:	4322      	orrs	r2, r4
 8002b76:	604a      	str	r2, [r1, #4]
  if (HAL_IS_BIT_SET(huart->AdvancedInit.AdvFeatureInit, UART_ADVFEATURE_DATAINVERT_INIT))
 8002b78:	0759      	lsls	r1, r3, #29
 8002b7a:	d506      	bpl.n	8002b8a <UART_AdvFeatureConfig+0x3a>
    MODIFY_REG(huart->Instance->CR2, USART_CR2_DATAINV, huart->AdvancedInit.DataInvert);
 8002b7c:	6801      	ldr	r1, [r0, #0]
 8002b7e:	6b04      	ldr	r4, [r0, #48]	; 0x30
 8002b80:	684a      	ldr	r2, [r1, #4]
 8002b82:	f422 2280 	bic.w	r2, r2, #262144	; 0x40000
 8002b86:	4322      	orrs	r2, r4
 8002b88:	604a      	str	r2, [r1, #4]
  if (HAL_IS_BIT_SET(huart->AdvancedInit.AdvFeatureInit, UART_ADVFEATURE_SWAP_INIT))
 8002b8a:	071a      	lsls	r2, r3, #28
 8002b8c:	d506      	bpl.n	8002b9c <UART_AdvFeatureConfig+0x4c>
    MODIFY_REG(huart->Instance->CR2, USART_CR2_SWAP, huart->AdvancedInit.Swap);
 8002b8e:	6801      	ldr	r1, [r0, #0]
 8002b90:	6b44      	ldr	r4, [r0, #52]	; 0x34
 8002b92:	684a      	ldr	r2, [r1, #4]
 8002b94:	f422 4200 	bic.w	r2, r2, #32768	; 0x8000
 8002b98:	4322      	orrs	r2, r4
 8002b9a:	604a      	str	r2, [r1, #4]
  if (HAL_IS_BIT_SET(huart->AdvancedInit.AdvFeatureInit, UART_ADVFEATURE_RXOVERRUNDISABLE_INIT))
 8002b9c:	06dc      	lsls	r4, r3, #27
 8002b9e:	d506      	bpl.n	8002bae <UART_AdvFeatureConfig+0x5e>
    MODIFY_REG(huart->Instance->CR3, USART_CR3_OVRDIS, huart->AdvancedInit.OverrunDisable);
 8002ba0:	6801      	ldr	r1, [r0, #0]
 8002ba2:	6b84      	ldr	r4, [r0, #56]	; 0x38
 8002ba4:	688a      	ldr	r2, [r1, #8]
 8002ba6:	f422 5280 	bic.w	r2, r2, #4096	; 0x1000
 8002baa:	4322      	orrs	r2, r4
 8002bac:	608a      	str	r2, [r1, #8]
  if (HAL_IS_BIT_SET(huart->AdvancedInit.AdvFeatureInit, UART_ADVFEATURE_DMADISABLEONERROR_INIT))
 8002bae:	0699      	lsls	r1, r3, #26
 8002bb0:	d506      	bpl.n	8002bc0 <UART_AdvFeatureConfig+0x70>
    MODIFY_REG(huart->Instance->CR3, USART_CR3_DDRE, huart->AdvancedInit.DMADisableonRxError);
 8002bb2:	6801      	ldr	r1, [r0, #0]
 8002bb4:	6bc4      	ldr	r4, [r0, #60]	; 0x3c
 8002bb6:	688a      	ldr	r2, [r1, #8]
 8002bb8:	f422 5200 	bic.w	r2, r2, #8192	; 0x2000
 8002bbc:	4322      	orrs	r2, r4
 8002bbe:	608a      	str	r2, [r1, #8]
  if (HAL_IS_BIT_SET(huart->AdvancedInit.AdvFeatureInit, UART_ADVFEATURE_AUTOBAUDRATE_INIT))
 8002bc0:	065a      	lsls	r2, r3, #25
 8002bc2:	d50a      	bpl.n	8002bda <UART_AdvFeatureConfig+0x8a>
    MODIFY_REG(huart->Instance->CR2, USART_CR2_ABREN, huart->AdvancedInit.AutoBaudRateEnable);
 8002bc4:	6801      	ldr	r1, [r0, #0]
 8002bc6:	6c04      	ldr	r4, [r0, #64]	; 0x40
 8002bc8:	684a      	ldr	r2, [r1, #4]
    if (huart->AdvancedInit.AutoBaudRateEnable == UART_ADVFEATURE_AUTOBAUDRATE_ENABLE)
 8002bca:	f5b4 1f80 	cmp.w	r4, #1048576	; 0x100000
    MODIFY_REG(huart->Instance->CR2, USART_CR2_ABREN, huart->AdvancedInit.AutoBaudRateEnable);
 8002bce:	f422 1280 	bic.w	r2, r2, #1048576	; 0x100000
 8002bd2:	ea42 0204 	orr.w	r2, r2, r4
 8002bd6:	604a      	str	r2, [r1, #4]
    if (huart->AdvancedInit.AutoBaudRateEnable == UART_ADVFEATURE_AUTOBAUDRATE_ENABLE)
 8002bd8:	d00b      	beq.n	8002bf2 <UART_AdvFeatureConfig+0xa2>
  if (HAL_IS_BIT_SET(huart->AdvancedInit.AdvFeatureInit, UART_ADVFEATURE_MSBFIRST_INIT))
 8002bda:	061b      	lsls	r3, r3, #24
 8002bdc:	d506      	bpl.n	8002bec <UART_AdvFeatureConfig+0x9c>
    MODIFY_REG(huart->Instance->CR2, USART_CR2_MSBFIRST, huart->AdvancedInit.MSBFirst);
 8002bde:	6802      	ldr	r2, [r0, #0]
 8002be0:	6c81      	ldr	r1, [r0, #72]	; 0x48
 8002be2:	6853      	ldr	r3, [r2, #4]
 8002be4:	f423 2300 	bic.w	r3, r3, #524288	; 0x80000
 8002be8:	430b      	orrs	r3, r1
 8002bea:	6053      	str	r3, [r2, #4]
}
 8002bec:	f85d 4b04 	ldr.w	r4, [sp], #4
 8002bf0:	4770      	bx	lr
      MODIFY_REG(huart->Instance->CR2, USART_CR2_ABRMODE, huart->AdvancedInit.AutoBaudRateMode);
 8002bf2:	684a      	ldr	r2, [r1, #4]
 8002bf4:	6c44      	ldr	r4, [r0, #68]	; 0x44
 8002bf6:	f422 02c0 	bic.w	r2, r2, #6291456	; 0x600000
 8002bfa:	4322      	orrs	r2, r4
 8002bfc:	604a      	str	r2, [r1, #4]
 8002bfe:	e7ec      	b.n	8002bda <UART_AdvFeatureConfig+0x8a>

08002c00 <UART_WaitOnFlagUntilTimeout>:
{
 8002c00:	e92d 43f8 	stmdb	sp!, {r3, r4, r5, r6, r7, r8, r9, lr}
 8002c04:	9d08      	ldr	r5, [sp, #32]
 8002c06:	4680      	mov	r8, r0
 8002c08:	460f      	mov	r7, r1
 8002c0a:	4616      	mov	r6, r2
 8002c0c:	4699      	mov	r9, r3
  while ((__HAL_UART_GET_FLAG(huart, Flag) ? SET : RESET) == Status)
 8002c0e:	f8d8 4000 	ldr.w	r4, [r8]
 8002c12:	e001      	b.n	8002c18 <UART_WaitOnFlagUntilTimeout+0x18>
    if (Timeout != HAL_MAX_DELAY)
 8002c14:	1c6b      	adds	r3, r5, #1
 8002c16:	d10a      	bne.n	8002c2e <UART_WaitOnFlagUntilTimeout+0x2e>
  while ((__HAL_UART_GET_FLAG(huart, Flag) ? SET : RESET) == Status)
 8002c18:	69e0      	ldr	r0, [r4, #28]
 8002c1a:	ea37 0300 	bics.w	r3, r7, r0
 8002c1e:	bf0c      	ite	eq
 8002c20:	2001      	moveq	r0, #1
 8002c22:	2000      	movne	r0, #0
 8002c24:	42b0      	cmp	r0, r6
 8002c26:	d0f5      	beq.n	8002c14 <UART_WaitOnFlagUntilTimeout+0x14>
  return HAL_OK;
 8002c28:	2000      	movs	r0, #0
}
 8002c2a:	e8bd 83f8 	ldmia.w	sp!, {r3, r4, r5, r6, r7, r8, r9, pc}
      if (((HAL_GetTick() - Tickstart) > Timeout) || (Timeout == 0U))
 8002c2e:	f7fd fcff 	bl	8000630 <HAL_GetTick>
 8002c32:	eba0 0009 	sub.w	r0, r0, r9
 8002c36:	42a8      	cmp	r0, r5
 8002c38:	d801      	bhi.n	8002c3e <UART_WaitOnFlagUntilTimeout+0x3e>
 8002c3a:	2d00      	cmp	r5, #0
 8002c3c:	d1e7      	bne.n	8002c0e <UART_WaitOnFlagUntilTimeout+0xe>
        CLEAR_BIT(huart->Instance->CR1, (USART_CR1_RXNEIE | USART_CR1_PEIE | USART_CR1_TXEIE));
 8002c3e:	f8d8 3000 	ldr.w	r3, [r8]
        huart->gState = HAL_UART_STATE_READY;
 8002c42:	2120      	movs	r1, #32
        __HAL_UNLOCK(huart);
 8002c44:	2400      	movs	r4, #0
 8002c46:	2003      	movs	r0, #3
        CLEAR_BIT(huart->Instance->CR1, (USART_CR1_RXNEIE | USART_CR1_PEIE | USART_CR1_TXEIE));
 8002c48:	681a      	ldr	r2, [r3, #0]
 8002c4a:	f422 72d0 	bic.w	r2, r2, #416	; 0x1a0
 8002c4e:	601a      	str	r2, [r3, #0]
        CLEAR_BIT(huart->Instance->CR3, USART_CR3_EIE);
 8002c50:	689a      	ldr	r2, [r3, #8]
 8002c52:	f022 0201 	bic.w	r2, r2, #1
 8002c56:	609a      	str	r2, [r3, #8]
        huart->gState = HAL_UART_STATE_READY;
 8002c58:	f8c8 1074 	str.w	r1, [r8, #116]	; 0x74
        __HAL_UNLOCK(huart);
 8002c5c:	f888 4070 	strb.w	r4, [r8, #112]	; 0x70
        huart->RxState = HAL_UART_STATE_READY;
 8002c60:	f8c8 1078 	str.w	r1, [r8, #120]	; 0x78
 8002c64:	e7e1      	b.n	8002c2a <UART_WaitOnFlagUntilTimeout+0x2a>
 8002c66:	bf00      	nop

08002c68 <HAL_UART_Transmit>:
{
 8002c68:	e92d 41f0 	stmdb	sp!, {r4, r5, r6, r7, r8, lr}
 8002c6c:	461f      	mov	r7, r3
  if (huart->gState == HAL_UART_STATE_READY)
 8002c6e:	6f43      	ldr	r3, [r0, #116]	; 0x74
{
 8002c70:	b084      	sub	sp, #16
  if (huart->gState == HAL_UART_STATE_READY)
 8002c72:	2b20      	cmp	r3, #32
 8002c74:	d13e      	bne.n	8002cf4 <HAL_UART_Transmit+0x8c>
 8002c76:	460d      	mov	r5, r1
    if ((pData == NULL) || (Size == 0U))
 8002c78:	2900      	cmp	r1, #0
 8002c7a:	d03f      	beq.n	8002cfc <HAL_UART_Transmit+0x94>
 8002c7c:	fab2 f682 	clz	r6, r2
 8002c80:	9203      	str	r2, [sp, #12]
 8002c82:	0976      	lsrs	r6, r6, #5
 8002c84:	2e00      	cmp	r6, #0
 8002c86:	d139      	bne.n	8002cfc <HAL_UART_Transmit+0x94>
    __HAL_LOCK(huart);
 8002c88:	f890 3070 	ldrb.w	r3, [r0, #112]	; 0x70
 8002c8c:	4604      	mov	r4, r0
 8002c8e:	2b01      	cmp	r3, #1
 8002c90:	d030      	beq.n	8002cf4 <HAL_UART_Transmit+0x8c>
    huart->gState = HAL_UART_STATE_BUSY_TX;
 8002c92:	2321      	movs	r3, #33	; 0x21
    __HAL_LOCK(huart);
 8002c94:	2101      	movs	r1, #1
    huart->ErrorCode = HAL_UART_ERROR_NONE;
 8002c96:	67c6      	str	r6, [r0, #124]	; 0x7c
    __HAL_LOCK(huart);
 8002c98:	f880 1070 	strb.w	r1, [r0, #112]	; 0x70
    huart->gState = HAL_UART_STATE_BUSY_TX;
 8002c9c:	6743      	str	r3, [r0, #116]	; 0x74
    tickstart = HAL_GetTick();
 8002c9e:	f7fd fcc7 	bl	8000630 <HAL_GetTick>
    if ((huart->Init.WordLength == UART_WORDLENGTH_9B) && (huart->Init.Parity == UART_PARITY_NONE))
 8002ca2:	68a3      	ldr	r3, [r4, #8]
    huart->TxXferSize  = Size;
 8002ca4:	9a03      	ldr	r2, [sp, #12]
    tickstart = HAL_GetTick();
 8002ca6:	4680      	mov	r8, r0
    if ((huart->Init.WordLength == UART_WORDLENGTH_9B) && (huart->Init.Parity == UART_PARITY_NONE))
 8002ca8:	f5b3 5f80 	cmp.w	r3, #4096	; 0x1000
    huart->TxXferSize  = Size;
 8002cac:	f8a4 2050 	strh.w	r2, [r4, #80]	; 0x50
    huart->TxXferCount = Size;
 8002cb0:	f8a4 2052 	strh.w	r2, [r4, #82]	; 0x52
    if ((huart->Init.WordLength == UART_WORDLENGTH_9B) && (huart->Init.Parity == UART_PARITY_NONE))
 8002cb4:	d109      	bne.n	8002cca <HAL_UART_Transmit+0x62>
 8002cb6:	e036      	b.n	8002d26 <HAL_UART_Transmit+0xbe>
        huart->Instance->TDR = (uint8_t)(*pdata8bits & 0xFFU);
 8002cb8:	f815 2b01 	ldrb.w	r2, [r5], #1
 8002cbc:	629a      	str	r2, [r3, #40]	; 0x28
      huart->TxXferCount--;
 8002cbe:	f8b4 3052 	ldrh.w	r3, [r4, #82]	; 0x52
 8002cc2:	3b01      	subs	r3, #1
 8002cc4:	b29b      	uxth	r3, r3
 8002cc6:	f8a4 3052 	strh.w	r3, [r4, #82]	; 0x52
    while (huart->TxXferCount > 0U)
 8002cca:	f8b4 3052 	ldrh.w	r3, [r4, #82]	; 0x52
      if (UART_WaitOnFlagUntilTimeout(huart, UART_FLAG_TXE, RESET, tickstart, Timeout) != HAL_OK)
 8002cce:	9700      	str	r7, [sp, #0]
    while (huart->TxXferCount > 0U)
 8002cd0:	b29b      	uxth	r3, r3
 8002cd2:	b1db      	cbz	r3, 8002d0c <HAL_UART_Transmit+0xa4>
      if (UART_WaitOnFlagUntilTimeout(huart, UART_FLAG_TXE, RESET, tickstart, Timeout) != HAL_OK)
 8002cd4:	4643      	mov	r3, r8
 8002cd6:	2200      	movs	r2, #0
 8002cd8:	2180      	movs	r1, #128	; 0x80
 8002cda:	4620      	mov	r0, r4
 8002cdc:	f7ff ff90 	bl	8002c00 <UART_WaitOnFlagUntilTimeout>
 8002ce0:	b980      	cbnz	r0, 8002d04 <HAL_UART_Transmit+0x9c>
 8002ce2:	6823      	ldr	r3, [r4, #0]
      if (pdata8bits == NULL)
 8002ce4:	2d00      	cmp	r5, #0
 8002ce6:	d1e7      	bne.n	8002cb8 <HAL_UART_Transmit+0x50>
        huart->Instance->TDR = (uint16_t)(*pdata16bits & 0x01FFU);
 8002ce8:	f836 2b02 	ldrh.w	r2, [r6], #2
 8002cec:	f3c2 0208 	ubfx	r2, r2, #0, #9
 8002cf0:	629a      	str	r2, [r3, #40]	; 0x28
 8002cf2:	e7e4      	b.n	8002cbe <HAL_UART_Transmit+0x56>
    return HAL_BUSY;
 8002cf4:	2002      	movs	r0, #2
}
 8002cf6:	b004      	add	sp, #16
 8002cf8:	e8bd 81f0 	ldmia.w	sp!, {r4, r5, r6, r7, r8, pc}
      return  HAL_ERROR;
 8002cfc:	2001      	movs	r0, #1
}
 8002cfe:	b004      	add	sp, #16
 8002d00:	e8bd 81f0 	ldmia.w	sp!, {r4, r5, r6, r7, r8, pc}
        return HAL_TIMEOUT;
 8002d04:	2003      	movs	r0, #3
}
 8002d06:	b004      	add	sp, #16
 8002d08:	e8bd 81f0 	ldmia.w	sp!, {r4, r5, r6, r7, r8, pc}
    if (UART_WaitOnFlagUntilTimeout(huart, UART_FLAG_TC, RESET, tickstart, Timeout) != HAL_OK)
 8002d0c:	4643      	mov	r3, r8
 8002d0e:	2200      	movs	r2, #0
 8002d10:	2140      	movs	r1, #64	; 0x40
 8002d12:	4620      	mov	r0, r4
 8002d14:	f7ff ff74 	bl	8002c00 <UART_WaitOnFlagUntilTimeout>
 8002d18:	2800      	cmp	r0, #0
 8002d1a:	d1f3      	bne.n	8002d04 <HAL_UART_Transmit+0x9c>
    huart->gState = HAL_UART_STATE_READY;
 8002d1c:	2320      	movs	r3, #32
    __HAL_UNLOCK(huart);
 8002d1e:	f884 0070 	strb.w	r0, [r4, #112]	; 0x70
    huart->gState = HAL_UART_STATE_READY;
 8002d22:	6763      	str	r3, [r4, #116]	; 0x74
    return HAL_OK;
 8002d24:	e7e7      	b.n	8002cf6 <HAL_UART_Transmit+0x8e>
    if ((huart->Init.WordLength == UART_WORDLENGTH_9B) && (huart->Init.Parity == UART_PARITY_NONE))
 8002d26:	6923      	ldr	r3, [r4, #16]
 8002d28:	2b00      	cmp	r3, #0
 8002d2a:	d1ce      	bne.n	8002cca <HAL_UART_Transmit+0x62>
 8002d2c:	462e      	mov	r6, r5
      pdata8bits  = NULL;
 8002d2e:	461d      	mov	r5, r3
 8002d30:	e7cb      	b.n	8002cca <HAL_UART_Transmit+0x62>
 8002d32:	bf00      	nop

08002d34 <UART_CheckIdleState>:
{
 8002d34:	b570      	push	{r4, r5, r6, lr}
  huart->ErrorCode = HAL_UART_ERROR_NONE;
 8002d36:	2500      	movs	r5, #0
{
 8002d38:	4604      	mov	r4, r0
 8002d3a:	b082      	sub	sp, #8
  huart->ErrorCode = HAL_UART_ERROR_NONE;
 8002d3c:	67c5      	str	r5, [r0, #124]	; 0x7c
  tickstart = HAL_GetTick();
 8002d3e:	f7fd fc77 	bl	8000630 <HAL_GetTick>
  if ((huart->Instance->CR1 & USART_CR1_TE) == USART_CR1_TE)
 8002d42:	6822      	ldr	r2, [r4, #0]
 8002d44:	6812      	ldr	r2, [r2, #0]
 8002d46:	0713      	lsls	r3, r2, #28
 8002d48:	d408      	bmi.n	8002d5c <UART_CheckIdleState+0x28>
  __HAL_UNLOCK(huart);
 8002d4a:	2300      	movs	r3, #0
  huart->gState = HAL_UART_STATE_READY;
 8002d4c:	2220      	movs	r2, #32
  return HAL_OK;
 8002d4e:	4618      	mov	r0, r3
  huart->gState = HAL_UART_STATE_READY;
 8002d50:	6762      	str	r2, [r4, #116]	; 0x74
  __HAL_UNLOCK(huart);
 8002d52:	f884 3070 	strb.w	r3, [r4, #112]	; 0x70
  huart->RxState = HAL_UART_STATE_READY;
 8002d56:	67a2      	str	r2, [r4, #120]	; 0x78
}
 8002d58:	b002      	add	sp, #8
 8002d5a:	bd70      	pop	{r4, r5, r6, pc}
    if (UART_WaitOnFlagUntilTimeout(huart, USART_ISR_TEACK, RESET, tickstart, HAL_UART_TIMEOUT_VALUE) != HAL_OK)
 8002d5c:	f06f 467e 	mvn.w	r6, #4261412864	; 0xfe000000
 8002d60:	4603      	mov	r3, r0
 8002d62:	462a      	mov	r2, r5
 8002d64:	f44f 1100 	mov.w	r1, #2097152	; 0x200000
 8002d68:	9600      	str	r6, [sp, #0]
 8002d6a:	4620      	mov	r0, r4
 8002d6c:	f7ff ff48 	bl	8002c00 <UART_WaitOnFlagUntilTimeout>
 8002d70:	2800      	cmp	r0, #0
 8002d72:	d0ea      	beq.n	8002d4a <UART_CheckIdleState+0x16>
      return HAL_TIMEOUT;
 8002d74:	2003      	movs	r0, #3
}
 8002d76:	b002      	add	sp, #8
 8002d78:	bd70      	pop	{r4, r5, r6, pc}
 8002d7a:	bf00      	nop

08002d7c <HAL_UART_Init>:
  if (huart == NULL)
 8002d7c:	b370      	cbz	r0, 8002ddc <HAL_UART_Init+0x60>
  if (huart->gState == HAL_UART_STATE_RESET)
 8002d7e:	6f43      	ldr	r3, [r0, #116]	; 0x74
{
 8002d80:	b510      	push	{r4, lr}
 8002d82:	4604      	mov	r4, r0
  if (huart->gState == HAL_UART_STATE_RESET)
 8002d84:	b1fb      	cbz	r3, 8002dc6 <HAL_UART_Init+0x4a>
  __HAL_UART_DISABLE(huart);
 8002d86:	6822      	ldr	r2, [r4, #0]
  huart->gState = HAL_UART_STATE_BUSY;
 8002d88:	2324      	movs	r3, #36	; 0x24
  if (UART_SetConfig(huart) == HAL_ERROR)
 8002d8a:	4620      	mov	r0, r4
  huart->gState = HAL_UART_STATE_BUSY;
 8002d8c:	6763      	str	r3, [r4, #116]	; 0x74
  __HAL_UART_DISABLE(huart);
 8002d8e:	6813      	ldr	r3, [r2, #0]
 8002d90:	f023 0301 	bic.w	r3, r3, #1
 8002d94:	6013      	str	r3, [r2, #0]
  if (UART_SetConfig(huart) == HAL_ERROR)
 8002d96:	f7ff fd5f 	bl	8002858 <UART_SetConfig>
 8002d9a:	2801      	cmp	r0, #1
 8002d9c:	d018      	beq.n	8002dd0 <HAL_UART_Init+0x54>
  if (huart->AdvancedInit.AdvFeatureInit != UART_ADVFEATURE_NO_INIT)
 8002d9e:	6a63      	ldr	r3, [r4, #36]	; 0x24
 8002da0:	b9c3      	cbnz	r3, 8002dd4 <HAL_UART_Init+0x58>
  CLEAR_BIT(huart->Instance->CR2, (USART_CR2_LINEN | USART_CR2_CLKEN));
 8002da2:	6823      	ldr	r3, [r4, #0]
  return (UART_CheckIdleState(huart));
 8002da4:	4620      	mov	r0, r4
  CLEAR_BIT(huart->Instance->CR2, (USART_CR2_LINEN | USART_CR2_CLKEN));
 8002da6:	685a      	ldr	r2, [r3, #4]
 8002da8:	f422 4290 	bic.w	r2, r2, #18432	; 0x4800
 8002dac:	605a      	str	r2, [r3, #4]
  CLEAR_BIT(huart->Instance->CR3, (USART_CR3_SCEN | USART_CR3_HDSEL | USART_CR3_IREN));
 8002dae:	689a      	ldr	r2, [r3, #8]
 8002db0:	f022 022a 	bic.w	r2, r2, #42	; 0x2a
 8002db4:	609a      	str	r2, [r3, #8]
  __HAL_UART_ENABLE(huart);
 8002db6:	681a      	ldr	r2, [r3, #0]
 8002db8:	f042 0201 	orr.w	r2, r2, #1
}
 8002dbc:	e8bd 4010 	ldmia.w	sp!, {r4, lr}
  __HAL_UART_ENABLE(huart);
 8002dc0:	601a      	str	r2, [r3, #0]
  return (UART_CheckIdleState(huart));
 8002dc2:	f7ff bfb7 	b.w	8002d34 <UART_CheckIdleState>
    huart->Lock = HAL_UNLOCKED;
 8002dc6:	f880 3070 	strb.w	r3, [r0, #112]	; 0x70
    HAL_UART_MspInit(huart);
 8002dca:	f001 f819 	bl	8003e00 <HAL_UART_MspInit>
 8002dce:	e7da      	b.n	8002d86 <HAL_UART_Init+0xa>
}
 8002dd0:	2001      	movs	r0, #1
 8002dd2:	bd10      	pop	{r4, pc}
    UART_AdvFeatureConfig(huart);
 8002dd4:	4620      	mov	r0, r4
 8002dd6:	f7ff febb 	bl	8002b50 <UART_AdvFeatureConfig>
 8002dda:	e7e2      	b.n	8002da2 <HAL_UART_Init+0x26>
}
 8002ddc:	2001      	movs	r0, #1
 8002dde:	4770      	bx	lr

08002de0 <HAL_GPIO_EXTI_Callback>:
#include "platform/f7-disco-gcc/board/ButtonController.h"
#include "trace/trace.h"
#include <Inc/debug-config.h>
extern "C" void HAL_GPIO_EXTI_Callback(uint16_t GPIO_Pin)
{
    switch (GPIO_Pin)
 8002de0:	2808      	cmp	r0, #8
 8002de2:	d007      	beq.n	8002df4 <HAL_GPIO_EXTI_Callback+0x14>
 8002de4:	d904      	bls.n	8002df0 <HAL_GPIO_EXTI_Callback+0x10>
 8002de6:	2840      	cmp	r0, #64	; 0x40
 8002de8:	d004      	beq.n	8002df4 <HAL_GPIO_EXTI_Callback+0x14>
 8002dea:	2880      	cmp	r0, #128	; 0x80
 8002dec:	d002      	beq.n	8002df4 <HAL_GPIO_EXTI_Callback+0x14>
 8002dee:	4770      	bx	lr
 8002df0:	2804      	cmp	r0, #4
 8002df2:	d1fc      	bne.n	8002dee <HAL_GPIO_EXTI_Callback+0xe>
{
 8002df4:	b510      	push	{r4, lr}
    {
    case BUTTON0_Pin:
    case BUTTON1_Pin:
    case BUTTON2_Pin:
    case BUTTON3_Pin:
    ButtonController::getInstance()->onIrq();
 8002df6:	f001 fd49 	bl	800488c <_ZN16ButtonController11getInstanceEv>
 8002dfa:	6803      	ldr	r3, [r0, #0]
#endif
        break;
    default:
        break;
    }
}
 8002dfc:	e8bd 4010 	ldmia.w	sp!, {r4, lr}
    ButtonController::getInstance()->onIrq();
 8002e00:	689b      	ldr	r3, [r3, #8]
 8002e02:	4718      	bx	r3

08002e04 <SystemClock_Config>:
/**
  * @brief System Clock Configuration
  * @retval None
  */
void SystemClock_Config(void)
{
 8002e04:	b570      	push	{r4, r5, r6, lr}
 8002e06:	b0b4      	sub	sp, #208	; 0xd0
  RCC_OscInitTypeDef RCC_OscInitStruct = {0};
 8002e08:	2230      	movs	r2, #48	; 0x30
 8002e0a:	2100      	movs	r1, #0
  __HAL_RCC_PWR_CLK_ENABLE();
  __HAL_PWR_VOLTAGESCALING_CONFIG(PWR_REGULATOR_VOLTAGE_SCALE2);
  /** Initializes the CPU, AHB and APB busses clocks
  */
  RCC_OscInitStruct.OscillatorType = RCC_OSCILLATORTYPE_LSI|RCC_OSCILLATORTYPE_HSE;
  RCC_OscInitStruct.HSEState = RCC_HSE_ON;
 8002e0c:	f44f 3580 	mov.w	r5, #65536	; 0x10000
  RCC_OscInitTypeDef RCC_OscInitStruct = {0};
 8002e10:	a807      	add	r0, sp, #28
  RCC_OscInitStruct.LSIState = RCC_LSI_ON;
  RCC_OscInitStruct.PLL.PLLState = RCC_PLL_ON;
 8002e12:	2402      	movs	r4, #2
  RCC_OscInitTypeDef RCC_OscInitStruct = {0};
 8002e14:	f002 fd62 	bl	80058dc <memset>
  RCC_ClkInitTypeDef RCC_ClkInitStruct = {0};
 8002e18:	2300      	movs	r3, #0
  RCC_PeriphCLKInitTypeDef PeriphClkInitStruct = {0};
 8002e1a:	2284      	movs	r2, #132	; 0x84
 8002e1c:	a813      	add	r0, sp, #76	; 0x4c
 8002e1e:	4619      	mov	r1, r3
  RCC_ClkInitTypeDef RCC_ClkInitStruct = {0};
 8002e20:	9306      	str	r3, [sp, #24]
  RCC_OscInitStruct.OscillatorType = RCC_OSCILLATORTYPE_LSI|RCC_OSCILLATORTYPE_HSE;
 8002e22:	2609      	movs	r6, #9
  RCC_ClkInitTypeDef RCC_ClkInitStruct = {0};
 8002e24:	e9cd 3302 	strd	r3, r3, [sp, #8]
 8002e28:	e9cd 3304 	strd	r3, r3, [sp, #16]
  RCC_PeriphCLKInitTypeDef PeriphClkInitStruct = {0};
 8002e2c:	f002 fd56 	bl	80058dc <memset>
  HAL_PWR_EnableBkUpAccess();
 8002e30:	f7fe f84c 	bl	8000ecc <HAL_PWR_EnableBkUpAccess>
  __HAL_RCC_PWR_CLK_ENABLE();
 8002e34:	4b26      	ldr	r3, [pc, #152]	; (8002ed0 <SystemClock_Config+0xcc>)
  __HAL_PWR_VOLTAGESCALING_CONFIG(PWR_REGULATOR_VOLTAGE_SCALE2);
 8002e36:	4a27      	ldr	r2, [pc, #156]	; (8002ed4 <SystemClock_Config+0xd0>)
  RCC_OscInitStruct.PLL.PLLSource = RCC_PLLSOURCE_HSE;
  RCC_OscInitStruct.PLL.PLLM = 25;
  RCC_OscInitStruct.PLL.PLLN = 336;
  RCC_OscInitStruct.PLL.PLLP = RCC_PLLP_DIV2;
  RCC_OscInitStruct.PLL.PLLQ = 7;
  if (HAL_RCC_OscConfig(&RCC_OscInitStruct) != HAL_OK)
 8002e38:	a807      	add	r0, sp, #28
  __HAL_RCC_PWR_CLK_ENABLE();
 8002e3a:	6c19      	ldr	r1, [r3, #64]	; 0x40
 8002e3c:	f041 5180 	orr.w	r1, r1, #268435456	; 0x10000000
 8002e40:	6419      	str	r1, [r3, #64]	; 0x40
  RCC_OscInitStruct.LSIState = RCC_LSI_ON;
 8002e42:	2101      	movs	r1, #1
  __HAL_RCC_PWR_CLK_ENABLE();
 8002e44:	6c1b      	ldr	r3, [r3, #64]	; 0x40
 8002e46:	f003 5380 	and.w	r3, r3, #268435456	; 0x10000000
 8002e4a:	9300      	str	r3, [sp, #0]
 8002e4c:	9b00      	ldr	r3, [sp, #0]
  __HAL_PWR_VOLTAGESCALING_CONFIG(PWR_REGULATOR_VOLTAGE_SCALE2);
 8002e4e:	6813      	ldr	r3, [r2, #0]
 8002e50:	f423 4340 	bic.w	r3, r3, #49152	; 0xc000
 8002e54:	f443 4300 	orr.w	r3, r3, #32768	; 0x8000
 8002e58:	6013      	str	r3, [r2, #0]
 8002e5a:	6813      	ldr	r3, [r2, #0]
  RCC_OscInitStruct.PLL.PLLN = 336;
 8002e5c:	f44f 72a8 	mov.w	r2, #336	; 0x150
  RCC_OscInitStruct.HSEState = RCC_HSE_ON;
 8002e60:	9508      	str	r5, [sp, #32]
  RCC_OscInitStruct.PLL.PLLSource = RCC_PLLSOURCE_HSE;
 8002e62:	f44f 0580 	mov.w	r5, #4194304	; 0x400000
  __HAL_PWR_VOLTAGESCALING_CONFIG(PWR_REGULATOR_VOLTAGE_SCALE2);
 8002e66:	f403 4340 	and.w	r3, r3, #49152	; 0xc000
  RCC_OscInitStruct.LSIState = RCC_LSI_ON;
 8002e6a:	910c      	str	r1, [sp, #48]	; 0x30
  RCC_OscInitStruct.PLL.PLLM = 25;
 8002e6c:	2119      	movs	r1, #25
  RCC_OscInitStruct.OscillatorType = RCC_OSCILLATORTYPE_LSI|RCC_OSCILLATORTYPE_HSE;
 8002e6e:	9607      	str	r6, [sp, #28]
  __HAL_PWR_VOLTAGESCALING_CONFIG(PWR_REGULATOR_VOLTAGE_SCALE2);
 8002e70:	9301      	str	r3, [sp, #4]
 8002e72:	9b01      	ldr	r3, [sp, #4]
  RCC_OscInitStruct.PLL.PLLQ = 7;
 8002e74:	2307      	movs	r3, #7
  RCC_OscInitStruct.PLL.PLLState = RCC_PLL_ON;
 8002e76:	940d      	str	r4, [sp, #52]	; 0x34
  RCC_OscInitStruct.PLL.PLLP = RCC_PLLP_DIV2;
 8002e78:	9411      	str	r4, [sp, #68]	; 0x44
  RCC_OscInitStruct.PLL.PLLN = 336;
 8002e7a:	9210      	str	r2, [sp, #64]	; 0x40
  RCC_OscInitStruct.PLL.PLLQ = 7;
 8002e7c:	9312      	str	r3, [sp, #72]	; 0x48
  RCC_OscInitStruct.PLL.PLLM = 25;
 8002e7e:	e9cd 510e 	strd	r5, r1, [sp, #56]	; 0x38
  if (HAL_RCC_OscConfig(&RCC_OscInitStruct) != HAL_OK)
 8002e82:	f7fe f8b5 	bl	8000ff0 <HAL_RCC_OscConfig>
 8002e86:	b100      	cbz	r0, 8002e8a <SystemClock_Config+0x86>
 8002e88:	e7fe      	b.n	8002e88 <SystemClock_Config+0x84>
 8002e8a:	4603      	mov	r3, r0
  RCC_ClkInitStruct.ClockType = RCC_CLOCKTYPE_HCLK|RCC_CLOCKTYPE_SYSCLK
                              |RCC_CLOCKTYPE_PCLK1|RCC_CLOCKTYPE_PCLK2;
  RCC_ClkInitStruct.SYSCLKSource = RCC_SYSCLKSOURCE_PLLCLK;
  RCC_ClkInitStruct.AHBCLKDivider = RCC_SYSCLK_DIV1;
  RCC_ClkInitStruct.APB1CLKDivider = RCC_HCLK_DIV4;
  RCC_ClkInitStruct.APB2CLKDivider = RCC_HCLK_DIV2;
 8002e8c:	f44f 5280 	mov.w	r2, #4096	; 0x1000
  RCC_ClkInitStruct.ClockType = RCC_CLOCKTYPE_HCLK|RCC_CLOCKTYPE_SYSCLK
 8002e90:	260f      	movs	r6, #15
  RCC_ClkInitStruct.APB1CLKDivider = RCC_HCLK_DIV4;
 8002e92:	f44f 55a0 	mov.w	r5, #5120	; 0x1400

  if (HAL_RCC_ClockConfig(&RCC_ClkInitStruct, FLASH_LATENCY_5) != HAL_OK)
 8002e96:	a802      	add	r0, sp, #8
 8002e98:	2105      	movs	r1, #5
  RCC_ClkInitStruct.AHBCLKDivider = RCC_SYSCLK_DIV1;
 8002e9a:	9304      	str	r3, [sp, #16]
  RCC_ClkInitStruct.SYSCLKSource = RCC_SYSCLKSOURCE_PLLCLK;
 8002e9c:	9403      	str	r4, [sp, #12]
  RCC_ClkInitStruct.ClockType = RCC_CLOCKTYPE_HCLK|RCC_CLOCKTYPE_SYSCLK
 8002e9e:	9602      	str	r6, [sp, #8]
  RCC_ClkInitStruct.APB2CLKDivider = RCC_HCLK_DIV2;
 8002ea0:	e9cd 5205 	strd	r5, r2, [sp, #20]
  if (HAL_RCC_ClockConfig(&RCC_ClkInitStruct, FLASH_LATENCY_5) != HAL_OK)
 8002ea4:	f7fe faa4 	bl	80013f0 <HAL_RCC_ClockConfig>
 8002ea8:	4603      	mov	r3, r0
 8002eaa:	b100      	cbz	r0, 8002eae <SystemClock_Config+0xaa>
 8002eac:	e7fe      	b.n	8002eac <SystemClock_Config+0xa8>
  {
    Error_Handler();
  }
  PeriphClkInitStruct.PeriphClockSelection = RCC_PERIPHCLK_RTC|RCC_PERIPHCLK_USART1
 8002eae:	490a      	ldr	r1, [pc, #40]	; (8002ed8 <SystemClock_Config+0xd4>)
                              |RCC_PERIPHCLK_USART6|RCC_PERIPHCLK_I2C1
                              |RCC_PERIPHCLK_I2C3;
  PeriphClkInitStruct.RTCClockSelection = RCC_RTCCLKSOURCE_LSI;
 8002eb0:	f44f 7200 	mov.w	r2, #512	; 0x200
  PeriphClkInitStruct.Usart1ClockSelection = RCC_USART1CLKSOURCE_PCLK2;
  PeriphClkInitStruct.Usart6ClockSelection = RCC_USART6CLKSOURCE_PCLK2;
  PeriphClkInitStruct.I2c1ClockSelection = RCC_I2C1CLKSOURCE_PCLK1;
  PeriphClkInitStruct.I2c3ClockSelection = RCC_I2C3CLKSOURCE_PCLK1;
  if (HAL_RCCEx_PeriphCLKConfig(&PeriphClkInitStruct) != HAL_OK)
 8002eb4:	a813      	add	r0, sp, #76	; 0x4c
  PeriphClkInitStruct.Usart1ClockSelection = RCC_USART1CLKSOURCE_PCLK2;
 8002eb6:	9324      	str	r3, [sp, #144]	; 0x90
  PeriphClkInitStruct.Usart6ClockSelection = RCC_USART6CLKSOURCE_PCLK2;
 8002eb8:	9329      	str	r3, [sp, #164]	; 0xa4
  PeriphClkInitStruct.I2c1ClockSelection = RCC_I2C1CLKSOURCE_PCLK1;
 8002eba:	932c      	str	r3, [sp, #176]	; 0xb0
  PeriphClkInitStruct.I2c3ClockSelection = RCC_I2C3CLKSOURCE_PCLK1;
 8002ebc:	932e      	str	r3, [sp, #184]	; 0xb8
  PeriphClkInitStruct.PeriphClockSelection = RCC_PERIPHCLK_RTC|RCC_PERIPHCLK_USART1
 8002ebe:	9113      	str	r1, [sp, #76]	; 0x4c
  PeriphClkInitStruct.RTCClockSelection = RCC_RTCCLKSOURCE_LSI;
 8002ec0:	921f      	str	r2, [sp, #124]	; 0x7c
  if (HAL_RCCEx_PeriphCLKConfig(&PeriphClkInitStruct) != HAL_OK)
 8002ec2:	f7fe fb53 	bl	800156c <HAL_RCCEx_PeriphCLKConfig>
 8002ec6:	b100      	cbz	r0, 8002eca <SystemClock_Config+0xc6>
 8002ec8:	e7fe      	b.n	8002ec8 <SystemClock_Config+0xc4>
  {
    Error_Handler();
  }
}
 8002eca:	b034      	add	sp, #208	; 0xd0
 8002ecc:	bd70      	pop	{r4, r5, r6, pc}
 8002ece:	bf00      	nop
 8002ed0:	40023800 	.word	0x40023800
 8002ed4:	40007000 	.word	0x40007000
 8002ed8:	00014860 	.word	0x00014860

08002edc <main>:
{
 8002edc:	e92d 4880 	stmdb	sp!, {r7, fp, lr}
 8002ee0:	b0a1      	sub	sp, #132	; 0x84
  * @param None
  * @retval None
  */
static void MX_GPIO_Init(void)
{
  GPIO_InitTypeDef GPIO_InitStruct = {0};
 8002ee2:	2400      	movs	r4, #0
  HAL_Init();
 8002ee4:	f7fd fb8c 	bl	8000600 <HAL_Init>
  /*Configure GPIO pin Output Level */
  HAL_GPIO_WritePin(EXT_RST_GPIO_Port, EXT_RST_Pin, GPIO_PIN_RESET);

  /*Configure GPIO pin : LCD_B0_Pin */
  GPIO_InitStruct.Pin = LCD_B0_Pin;
  GPIO_InitStruct.Mode = GPIO_MODE_AF_PP;
 8002ee8:	2502      	movs	r5, #2
  SystemClock_Config();
 8002eea:	f7ff ff8b 	bl	8002e04 <SystemClock_Config>
  __HAL_RCC_GPIOE_CLK_ENABLE();
 8002eee:	4bd2      	ldr	r3, [pc, #840]	; (8003238 <main+0x35c>)
  GPIO_InitTypeDef GPIO_InitStruct = {0};
 8002ef0:	9416      	str	r4, [sp, #88]	; 0x58
  HAL_GPIO_WritePin(LED3_GPIO_Port, LED3_Pin, GPIO_PIN_RESET);
 8002ef2:	2110      	movs	r1, #16
  GPIO_InitTypeDef GPIO_InitStruct = {0};
 8002ef4:	9415      	str	r4, [sp, #84]	; 0x54
  GPIO_InitStruct.Speed = GPIO_SPEED_FREQ_LOW;
  GPIO_InitStruct.Alternate = GPIO_AF14_LTDC;
  HAL_GPIO_Init(LCD_B0_GPIO_Port, &GPIO_InitStruct);

  /*Configure GPIO pin : OTG_HS_OverCurrent_Pin */
  GPIO_InitStruct.Pin = OTG_HS_OverCurrent_Pin;
 8002ef6:	f04f 0908 	mov.w	r9, #8
  GPIO_InitTypeDef GPIO_InitStruct = {0};
 8002efa:	9417      	str	r4, [sp, #92]	; 0x5c
  HAL_GPIO_WritePin(LED3_GPIO_Port, LED3_Pin, GPIO_PIN_RESET);
 8002efc:	4622      	mov	r2, r4
  GPIO_InitTypeDef GPIO_InitStruct = {0};
 8002efe:	9418      	str	r4, [sp, #96]	; 0x60
  GPIO_InitStruct.Alternate = GPIO_AF14_LTDC;
 8002f00:	f04f 0b0e 	mov.w	fp, #14
  GPIO_InitTypeDef GPIO_InitStruct = {0};
 8002f04:	9419      	str	r4, [sp, #100]	; 0x64

  /*Configure GPIO pins : RMII_TXD1_Pin RMII_TXD0_Pin RMII_TX_EN_Pin */
  GPIO_InitStruct.Pin = RMII_TXD1_Pin|RMII_TXD0_Pin|RMII_TX_EN_Pin;
  GPIO_InitStruct.Mode = GPIO_MODE_AF_PP;
  GPIO_InitStruct.Pull = GPIO_NOPULL;
  GPIO_InitStruct.Speed = GPIO_SPEED_FREQ_VERY_HIGH;
 8002f06:	2703      	movs	r7, #3
  __HAL_RCC_GPIOE_CLK_ENABLE();
 8002f08:	6b1e      	ldr	r6, [r3, #48]	; 0x30
                          |FMC_D8_Pin|FMC_D11_Pin|FMC_D4_Pin|FMC_D7_Pin
                          |FMC_D9_Pin|FMC_D12_Pin|FMC_D10_Pin;
  GPIO_InitStruct.Mode = GPIO_MODE_AF_PP;
  GPIO_InitStruct.Pull = GPIO_NOPULL;
  GPIO_InitStruct.Speed = GPIO_SPEED_FREQ_VERY_HIGH;
  GPIO_InitStruct.Alternate = GPIO_AF12_FMC;
 8002f0a:	f04f 080c 	mov.w	r8, #12
  HAL_GPIO_WritePin(LED3_GPIO_Port, LED3_Pin, GPIO_PIN_RESET);
 8002f0e:	48cb      	ldr	r0, [pc, #812]	; (800323c <main+0x360>)
  GPIO_InitStruct.Pin = ULPI_D7_Pin|ULPI_D6_Pin|ULPI_D5_Pin|ULPI_D3_Pin
                          |ULPI_D2_Pin|ULPI_D1_Pin|ULPI_D4_Pin;
  GPIO_InitStruct.Mode = GPIO_MODE_AF_PP;
  GPIO_InitStruct.Pull = GPIO_NOPULL;
  GPIO_InitStruct.Speed = GPIO_SPEED_FREQ_VERY_HIGH;
  GPIO_InitStruct.Alternate = GPIO_AF10_OTG_HS;
 8002f10:	f04f 0a0a 	mov.w	sl, #10
  __HAL_RCC_GPIOE_CLK_ENABLE();
 8002f14:	ea46 0c01 	orr.w	ip, r6, r1
  HAL_GPIO_Init(GPIOB, &GPIO_InitStruct);

  /*Configure GPIO pin : LED3_Pin */
  GPIO_InitStruct.Pin = LED3_Pin;
  GPIO_InitStruct.Mode = GPIO_MODE_OUTPUT_PP;
 8002f18:	2601      	movs	r6, #1
  __HAL_RCC_GPIOE_CLK_ENABLE();
 8002f1a:	f8c3 c030 	str.w	ip, [r3, #48]	; 0x30
 8002f1e:	f8d3 c030 	ldr.w	ip, [r3, #48]	; 0x30
 8002f22:	ea0c 0c01 	and.w	ip, ip, r1
 8002f26:	f8cd c004 	str.w	ip, [sp, #4]
 8002f2a:	f8dd c004 	ldr.w	ip, [sp, #4]
  __HAL_RCC_GPIOG_CLK_ENABLE();
 8002f2e:	f8d3 c030 	ldr.w	ip, [r3, #48]	; 0x30
 8002f32:	f04c 0c40 	orr.w	ip, ip, #64	; 0x40
 8002f36:	f8c3 c030 	str.w	ip, [r3, #48]	; 0x30
 8002f3a:	f8d3 c030 	ldr.w	ip, [r3, #48]	; 0x30
 8002f3e:	f00c 0c40 	and.w	ip, ip, #64	; 0x40
 8002f42:	f8cd c008 	str.w	ip, [sp, #8]
 8002f46:	f8dd c008 	ldr.w	ip, [sp, #8]
  __HAL_RCC_GPIOB_CLK_ENABLE();
 8002f4a:	f8d3 c030 	ldr.w	ip, [r3, #48]	; 0x30
 8002f4e:	ea4c 0c05 	orr.w	ip, ip, r5
 8002f52:	f8c3 c030 	str.w	ip, [r3, #48]	; 0x30
 8002f56:	f8d3 c030 	ldr.w	ip, [r3, #48]	; 0x30
 8002f5a:	ea0c 0c05 	and.w	ip, ip, r5
 8002f5e:	f8cd c00c 	str.w	ip, [sp, #12]
 8002f62:	f8dd c00c 	ldr.w	ip, [sp, #12]
  __HAL_RCC_GPIOD_CLK_ENABLE();
 8002f66:	f8d3 c030 	ldr.w	ip, [r3, #48]	; 0x30
 8002f6a:	ea4c 0c09 	orr.w	ip, ip, r9
 8002f6e:	f8c3 c030 	str.w	ip, [r3, #48]	; 0x30
 8002f72:	f8d3 c030 	ldr.w	ip, [r3, #48]	; 0x30
 8002f76:	ea0c 0c09 	and.w	ip, ip, r9
 8002f7a:	f8cd c010 	str.w	ip, [sp, #16]
 8002f7e:	f8dd c010 	ldr.w	ip, [sp, #16]
  __HAL_RCC_GPIOC_CLK_ENABLE();
 8002f82:	f8d3 c030 	ldr.w	ip, [r3, #48]	; 0x30
 8002f86:	f04c 0c04 	orr.w	ip, ip, #4
 8002f8a:	f8c3 c030 	str.w	ip, [r3, #48]	; 0x30
 8002f8e:	f8d3 c030 	ldr.w	ip, [r3, #48]	; 0x30
 8002f92:	f00c 0c04 	and.w	ip, ip, #4
 8002f96:	f8cd c014 	str.w	ip, [sp, #20]
 8002f9a:	f8dd c014 	ldr.w	ip, [sp, #20]
  __HAL_RCC_GPIOA_CLK_ENABLE();
 8002f9e:	f8d3 c030 	ldr.w	ip, [r3, #48]	; 0x30
 8002fa2:	ea4c 0c06 	orr.w	ip, ip, r6
 8002fa6:	f8c3 c030 	str.w	ip, [r3, #48]	; 0x30
 8002faa:	f8d3 c030 	ldr.w	ip, [r3, #48]	; 0x30
 8002fae:	ea0c 0c06 	and.w	ip, ip, r6
 8002fb2:	f8cd c018 	str.w	ip, [sp, #24]
 8002fb6:	f8dd c018 	ldr.w	ip, [sp, #24]
  __HAL_RCC_GPIOJ_CLK_ENABLE();
 8002fba:	f8d3 c030 	ldr.w	ip, [r3, #48]	; 0x30
 8002fbe:	f44c 7c00 	orr.w	ip, ip, #512	; 0x200
 8002fc2:	f8c3 c030 	str.w	ip, [r3, #48]	; 0x30
 8002fc6:	f8d3 c030 	ldr.w	ip, [r3, #48]	; 0x30
 8002fca:	f40c 7c00 	and.w	ip, ip, #512	; 0x200
 8002fce:	f8cd c01c 	str.w	ip, [sp, #28]
 8002fd2:	f8dd c01c 	ldr.w	ip, [sp, #28]
  __HAL_RCC_GPIOI_CLK_ENABLE();
 8002fd6:	f8d3 c030 	ldr.w	ip, [r3, #48]	; 0x30
 8002fda:	f44c 7c80 	orr.w	ip, ip, #256	; 0x100
 8002fde:	f8c3 c030 	str.w	ip, [r3, #48]	; 0x30
 8002fe2:	f8d3 c030 	ldr.w	ip, [r3, #48]	; 0x30
 8002fe6:	f40c 7c80 	and.w	ip, ip, #256	; 0x100
 8002fea:	f8cd c020 	str.w	ip, [sp, #32]
 8002fee:	f8dd c020 	ldr.w	ip, [sp, #32]
  __HAL_RCC_GPIOK_CLK_ENABLE();
 8002ff2:	f8d3 c030 	ldr.w	ip, [r3, #48]	; 0x30
 8002ff6:	f44c 6c80 	orr.w	ip, ip, #1024	; 0x400
 8002ffa:	f8c3 c030 	str.w	ip, [r3, #48]	; 0x30
 8002ffe:	f8d3 c030 	ldr.w	ip, [r3, #48]	; 0x30
 8003002:	f40c 6c80 	and.w	ip, ip, #1024	; 0x400
 8003006:	f8cd c024 	str.w	ip, [sp, #36]	; 0x24
 800300a:	f8dd c024 	ldr.w	ip, [sp, #36]	; 0x24
  __HAL_RCC_GPIOF_CLK_ENABLE();
 800300e:	f8d3 c030 	ldr.w	ip, [r3, #48]	; 0x30
 8003012:	f04c 0c20 	orr.w	ip, ip, #32
 8003016:	f8c3 c030 	str.w	ip, [r3, #48]	; 0x30
 800301a:	f8d3 c030 	ldr.w	ip, [r3, #48]	; 0x30
 800301e:	f00c 0c20 	and.w	ip, ip, #32
 8003022:	f8cd c028 	str.w	ip, [sp, #40]	; 0x28
 8003026:	f8dd c028 	ldr.w	ip, [sp, #40]	; 0x28
  __HAL_RCC_GPIOH_CLK_ENABLE();
 800302a:	f8d3 c030 	ldr.w	ip, [r3, #48]	; 0x30
 800302e:	f04c 0c80 	orr.w	ip, ip, #128	; 0x80
 8003032:	f8c3 c030 	str.w	ip, [r3, #48]	; 0x30
 8003036:	6b1b      	ldr	r3, [r3, #48]	; 0x30
 8003038:	f003 0380 	and.w	r3, r3, #128	; 0x80
 800303c:	930b      	str	r3, [sp, #44]	; 0x2c
 800303e:	9b0b      	ldr	r3, [sp, #44]	; 0x2c
  HAL_GPIO_WritePin(LED3_GPIO_Port, LED3_Pin, GPIO_PIN_RESET);
 8003040:	f7fd fe8c 	bl	8000d5c <HAL_GPIO_WritePin>
  HAL_GPIO_WritePin(GPIOA, LED0_Pin|LED2_Pin, GPIO_PIN_RESET);
 8003044:	4622      	mov	r2, r4
 8003046:	f44f 4101 	mov.w	r1, #33024	; 0x8100
 800304a:	487d      	ldr	r0, [pc, #500]	; (8003240 <main+0x364>)
 800304c:	f7fd fe86 	bl	8000d5c <HAL_GPIO_WritePin>
  HAL_GPIO_WritePin(OTG_FS_PowerSwitchOn_GPIO_Port, OTG_FS_PowerSwitchOn_Pin, GPIO_PIN_SET);
 8003050:	4632      	mov	r2, r6
 8003052:	2120      	movs	r1, #32
 8003054:	487b      	ldr	r0, [pc, #492]	; (8003244 <main+0x368>)
 8003056:	f7fd fe81 	bl	8000d5c <HAL_GPIO_WritePin>
  HAL_GPIO_WritePin(LCD_BL_CTRL_GPIO_Port, LCD_BL_CTRL_Pin, GPIO_PIN_RESET);
 800305a:	4622      	mov	r2, r4
 800305c:	4649      	mov	r1, r9
 800305e:	487a      	ldr	r0, [pc, #488]	; (8003248 <main+0x36c>)
 8003060:	f7fd fe7c 	bl	8000d5c <HAL_GPIO_WritePin>
  HAL_GPIO_WritePin(LCD_DISP_GPIO_Port, LCD_DISP_Pin, GPIO_PIN_RESET);
 8003064:	4622      	mov	r2, r4
 8003066:	f44f 5180 	mov.w	r1, #4096	; 0x1000
 800306a:	4878      	ldr	r0, [pc, #480]	; (800324c <main+0x370>)
 800306c:	f7fd fe76 	bl	8000d5c <HAL_GPIO_WritePin>
  HAL_GPIO_WritePin(GPIOH, DCMI_PWR_EN_Pin|LED1_Pin, GPIO_PIN_RESET);
 8003070:	4622      	mov	r2, r4
 8003072:	f44f 5101 	mov.w	r1, #8256	; 0x2040
 8003076:	4876      	ldr	r0, [pc, #472]	; (8003250 <main+0x374>)
 8003078:	f7fd fe70 	bl	8000d5c <HAL_GPIO_WritePin>
  HAL_GPIO_WritePin(EXT_RST_GPIO_Port, EXT_RST_Pin, GPIO_PIN_RESET);
 800307c:	4622      	mov	r2, r4
 800307e:	4649      	mov	r1, r9
 8003080:	4874      	ldr	r0, [pc, #464]	; (8003254 <main+0x378>)
 8003082:	f7fd fe6b 	bl	8000d5c <HAL_GPIO_WritePin>
  GPIO_InitStruct.Pin = LCD_B0_Pin;
 8003086:	2310      	movs	r3, #16
  HAL_GPIO_Init(LCD_B0_GPIO_Port, &GPIO_InitStruct);
 8003088:	a915      	add	r1, sp, #84	; 0x54
 800308a:	4873      	ldr	r0, [pc, #460]	; (8003258 <main+0x37c>)
  GPIO_InitStruct.Alternate = GPIO_AF14_LTDC;
 800308c:	f8cd b064 	str.w	fp, [sp, #100]	; 0x64
  GPIO_InitStruct.Mode = GPIO_MODE_AF_PP;
 8003090:	e9cd 3515 	strd	r3, r5, [sp, #84]	; 0x54
  GPIO_InitStruct.Speed = GPIO_SPEED_FREQ_LOW;
 8003094:	e9cd 4417 	strd	r4, r4, [sp, #92]	; 0x5c
  HAL_GPIO_Init(LCD_B0_GPIO_Port, &GPIO_InitStruct);
 8003098:	f7fd fd3c 	bl	8000b14 <HAL_GPIO_Init>
  HAL_GPIO_Init(OTG_HS_OverCurrent_GPIO_Port, &GPIO_InitStruct);
 800309c:	a915      	add	r1, sp, #84	; 0x54
 800309e:	486e      	ldr	r0, [pc, #440]	; (8003258 <main+0x37c>)
  GPIO_InitStruct.Pin = OTG_HS_OverCurrent_Pin;
 80030a0:	f8cd 9054 	str.w	r9, [sp, #84]	; 0x54
  GPIO_InitStruct.Pull = GPIO_NOPULL;
 80030a4:	e9cd 4416 	strd	r4, r4, [sp, #88]	; 0x58
  HAL_GPIO_Init(OTG_HS_OverCurrent_GPIO_Port, &GPIO_InitStruct);
 80030a8:	f7fd fd34 	bl	8000b14 <HAL_GPIO_Init>
  GPIO_InitStruct.Pin = RMII_TXD1_Pin|RMII_TXD0_Pin|RMII_TX_EN_Pin;
 80030ac:	f44f 43d0 	mov.w	r3, #26624	; 0x6800
  HAL_GPIO_Init(GPIOG, &GPIO_InitStruct);
 80030b0:	a915      	add	r1, sp, #84	; 0x54
 80030b2:	4868      	ldr	r0, [pc, #416]	; (8003254 <main+0x378>)
  GPIO_InitStruct.Pin = RMII_TXD1_Pin|RMII_TXD0_Pin|RMII_TX_EN_Pin;
 80030b4:	9315      	str	r3, [sp, #84]	; 0x54
  GPIO_InitStruct.Alternate = GPIO_AF11_ETH;
 80030b6:	230b      	movs	r3, #11
  GPIO_InitStruct.Speed = GPIO_SPEED_FREQ_VERY_HIGH;
 80030b8:	9718      	str	r7, [sp, #96]	; 0x60
  GPIO_InitStruct.Alternate = GPIO_AF11_ETH;
 80030ba:	9319      	str	r3, [sp, #100]	; 0x64
  GPIO_InitStruct.Pull = GPIO_NOPULL;
 80030bc:	e9cd 5416 	strd	r5, r4, [sp, #88]	; 0x58
  HAL_GPIO_Init(GPIOG, &GPIO_InitStruct);
 80030c0:	f7fd fd28 	bl	8000b14 <HAL_GPIO_Init>
  GPIO_InitStruct.Pin = FMC_NBL1_Pin|FMC_NBL0_Pin|FMC_D5_Pin|FMC_D6_Pin
 80030c4:	f64f 7383 	movw	r3, #65411	; 0xff83
  HAL_GPIO_Init(GPIOE, &GPIO_InitStruct);
 80030c8:	a915      	add	r1, sp, #84	; 0x54
 80030ca:	4863      	ldr	r0, [pc, #396]	; (8003258 <main+0x37c>)
  GPIO_InitStruct.Pin = FMC_NBL1_Pin|FMC_NBL0_Pin|FMC_D5_Pin|FMC_D6_Pin
 80030cc:	9315      	str	r3, [sp, #84]	; 0x54
  GPIO_InitStruct.Speed = GPIO_SPEED_FREQ_VERY_HIGH;
 80030ce:	9718      	str	r7, [sp, #96]	; 0x60
  GPIO_InitStruct.Alternate = GPIO_AF12_FMC;
 80030d0:	f8cd 8064 	str.w	r8, [sp, #100]	; 0x64
  GPIO_InitStruct.Pull = GPIO_NOPULL;
 80030d4:	e9cd 5416 	strd	r5, r4, [sp, #88]	; 0x58
  HAL_GPIO_Init(GPIOE, &GPIO_InitStruct);
 80030d8:	f7fd fd1c 	bl	8000b14 <HAL_GPIO_Init>
  GPIO_InitStruct.Pin = ULPI_D7_Pin|ULPI_D6_Pin|ULPI_D5_Pin|ULPI_D3_Pin
 80030dc:	f643 4323 	movw	r3, #15395	; 0x3c23
  HAL_GPIO_Init(GPIOB, &GPIO_InitStruct);
 80030e0:	a915      	add	r1, sp, #84	; 0x54
 80030e2:	4856      	ldr	r0, [pc, #344]	; (800323c <main+0x360>)
  GPIO_InitStruct.Pin = ULPI_D7_Pin|ULPI_D6_Pin|ULPI_D5_Pin|ULPI_D3_Pin
 80030e4:	9315      	str	r3, [sp, #84]	; 0x54
  GPIO_InitStruct.Speed = GPIO_SPEED_FREQ_VERY_HIGH;
 80030e6:	9718      	str	r7, [sp, #96]	; 0x60
  GPIO_InitStruct.Alternate = GPIO_AF10_OTG_HS;
 80030e8:	f8cd a064 	str.w	sl, [sp, #100]	; 0x64
  GPIO_InitStruct.Pull = GPIO_NOPULL;
 80030ec:	e9cd 5416 	strd	r5, r4, [sp, #88]	; 0x58
  HAL_GPIO_Init(GPIOB, &GPIO_InitStruct);
 80030f0:	f7fd fd10 	bl	8000b14 <HAL_GPIO_Init>
  GPIO_InitStruct.Pin = LED3_Pin;
 80030f4:	2310      	movs	r3, #16
  GPIO_InitStruct.Pull = GPIO_NOPULL;
  GPIO_InitStruct.Speed = GPIO_SPEED_FREQ_LOW;
  HAL_GPIO_Init(LED3_GPIO_Port, &GPIO_InitStruct);
 80030f6:	a915      	add	r1, sp, #84	; 0x54
 80030f8:	4850      	ldr	r0, [pc, #320]	; (800323c <main+0x360>)
  GPIO_InitStruct.Pin = LED3_Pin;
 80030fa:	9315      	str	r3, [sp, #84]	; 0x54
  GPIO_InitStruct.Mode = GPIO_MODE_OUTPUT_PP;
 80030fc:	9616      	str	r6, [sp, #88]	; 0x58
  GPIO_InitStruct.Speed = GPIO_SPEED_FREQ_LOW;
 80030fe:	e9cd 4417 	strd	r4, r4, [sp, #92]	; 0x5c
  HAL_GPIO_Init(LED3_GPIO_Port, &GPIO_InitStruct);
 8003102:	f7fd fd07 	bl	8000b14 <HAL_GPIO_Init>

  /*Configure GPIO pin : SPDIF_RX0_Pin */
  GPIO_InitStruct.Pin = SPDIF_RX0_Pin;
 8003106:	2380      	movs	r3, #128	; 0x80
  GPIO_InitStruct.Mode = GPIO_MODE_AF_PP;
  GPIO_InitStruct.Pull = GPIO_NOPULL;
  GPIO_InitStruct.Speed = GPIO_SPEED_FREQ_LOW;
  GPIO_InitStruct.Alternate = GPIO_AF8_SPDIFRX;
  HAL_GPIO_Init(SPDIF_RX0_GPIO_Port, &GPIO_InitStruct);
 8003108:	a915      	add	r1, sp, #84	; 0x54
 800310a:	484e      	ldr	r0, [pc, #312]	; (8003244 <main+0x368>)
  GPIO_InitStruct.Pin = SPDIF_RX0_Pin;
 800310c:	9315      	str	r3, [sp, #84]	; 0x54
  GPIO_InitStruct.Pull = GPIO_NOPULL;
 800310e:	e9cd 5416 	strd	r5, r4, [sp, #88]	; 0x58
  GPIO_InitStruct.Alternate = GPIO_AF8_SPDIFRX;
 8003112:	e9cd 4918 	strd	r4, r9, [sp, #96]	; 0x60
  HAL_GPIO_Init(SPDIF_RX0_GPIO_Port, &GPIO_InitStruct);
 8003116:	f7fd fcfd 	bl	8000b14 <HAL_GPIO_Init>

  /*Configure GPIO pins : SDMMC_CK_Pin SDMMC_D3_Pin SDMMC_D2_Pin PC9
                           PC8 */
  GPIO_InitStruct.Pin = SDMMC_CK_Pin|SDMMC_D3_Pin|SDMMC_D2_Pin|GPIO_PIN_9
 800311a:	f44f 53f8 	mov.w	r3, #7936	; 0x1f00
                          |GPIO_PIN_8;
  GPIO_InitStruct.Mode = GPIO_MODE_AF_PP;
  GPIO_InitStruct.Pull = GPIO_NOPULL;
  GPIO_InitStruct.Speed = GPIO_SPEED_FREQ_VERY_HIGH;
  GPIO_InitStruct.Alternate = GPIO_AF12_SDMMC1;
  HAL_GPIO_Init(GPIOC, &GPIO_InitStruct);
 800311e:	a915      	add	r1, sp, #84	; 0x54
 8003120:	484e      	ldr	r0, [pc, #312]	; (800325c <main+0x380>)
  GPIO_InitStruct.Pin = SDMMC_CK_Pin|SDMMC_D3_Pin|SDMMC_D2_Pin|GPIO_PIN_9
 8003122:	9315      	str	r3, [sp, #84]	; 0x54
  GPIO_InitStruct.Pull = GPIO_NOPULL;
 8003124:	e9cd 5416 	strd	r5, r4, [sp, #88]	; 0x58
  GPIO_InitStruct.Alternate = GPIO_AF12_SDMMC1;
 8003128:	e9cd 7818 	strd	r7, r8, [sp, #96]	; 0x60
  HAL_GPIO_Init(GPIOC, &GPIO_InitStruct);
 800312c:	f7fd fcf2 	bl	8000b14 <HAL_GPIO_Init>

  /*Configure GPIO pins : LED0_Pin LED2_Pin */
  GPIO_InitStruct.Pin = LED0_Pin|LED2_Pin;
 8003130:	f44f 4301 	mov.w	r3, #33024	; 0x8100
  GPIO_InitStruct.Mode = GPIO_MODE_OUTPUT_PP;
  GPIO_InitStruct.Pull = GPIO_NOPULL;
  GPIO_InitStruct.Speed = GPIO_SPEED_FREQ_LOW;
  HAL_GPIO_Init(GPIOA, &GPIO_InitStruct);
 8003134:	a915      	add	r1, sp, #84	; 0x54
 8003136:	4842      	ldr	r0, [pc, #264]	; (8003240 <main+0x364>)
  GPIO_InitStruct.Pin = LED0_Pin|LED2_Pin;
 8003138:	9315      	str	r3, [sp, #84]	; 0x54
  GPIO_InitStruct.Speed = GPIO_SPEED_FREQ_LOW;
 800313a:	9418      	str	r4, [sp, #96]	; 0x60
  GPIO_InitStruct.Pull = GPIO_NOPULL;
 800313c:	e9cd 6416 	strd	r6, r4, [sp, #88]	; 0x58
  HAL_GPIO_Init(GPIOA, &GPIO_InitStruct);
 8003140:	f7fd fce8 	bl	8000b14 <HAL_GPIO_Init>

  /*Configure GPIO pins : FMC_SDNCAS_Pin FMC_SDCLK_Pin FMC_A11_Pin FMC_A10_Pin
                           FMC_BA1_Pin FMC_BA0_Pin */
  GPIO_InitStruct.Pin = FMC_SDNCAS_Pin|FMC_SDCLK_Pin|FMC_A11_Pin|FMC_A10_Pin
 8003144:	f248 1333 	movw	r3, #33075	; 0x8133
                          |FMC_BA1_Pin|FMC_BA0_Pin;
  GPIO_InitStruct.Mode = GPIO_MODE_AF_PP;
  GPIO_InitStruct.Pull = GPIO_NOPULL;
  GPIO_InitStruct.Speed = GPIO_SPEED_FREQ_VERY_HIGH;
  GPIO_InitStruct.Alternate = GPIO_AF12_FMC;
  HAL_GPIO_Init(GPIOG, &GPIO_InitStruct);
 8003148:	a915      	add	r1, sp, #84	; 0x54
 800314a:	4842      	ldr	r0, [pc, #264]	; (8003254 <main+0x378>)
  GPIO_InitStruct.Pin = FMC_SDNCAS_Pin|FMC_SDCLK_Pin|FMC_A11_Pin|FMC_A10_Pin
 800314c:	9315      	str	r3, [sp, #84]	; 0x54
  GPIO_InitStruct.Pull = GPIO_NOPULL;
 800314e:	e9cd 5416 	strd	r5, r4, [sp, #88]	; 0x58
  GPIO_InitStruct.Alternate = GPIO_AF12_FMC;
 8003152:	e9cd 7818 	strd	r7, r8, [sp, #96]	; 0x60
  HAL_GPIO_Init(GPIOG, &GPIO_InitStruct);
 8003156:	f7fd fcdd 	bl	8000b14 <HAL_GPIO_Init>

  /*Configure GPIO pins : LCD_B1_Pin LCD_B2_Pin LCD_B3_Pin LCD_G4_Pin
                           LCD_G1_Pin LCD_G3_Pin LCD_G0_Pin LCD_G2_Pin
                           LCD_R7_Pin LCD_R5_Pin LCD_R6_Pin LCD_R4_Pin
                           LCD_R3_Pin LCD_R1_Pin LCD_R2_Pin */
  GPIO_InitStruct.Pin = LCD_B1_Pin|LCD_B2_Pin|LCD_B3_Pin|LCD_G4_Pin
 800315a:	f64e 73ff 	movw	r3, #61439	; 0xefff
                          |LCD_R3_Pin|LCD_R1_Pin|LCD_R2_Pin;
  GPIO_InitStruct.Mode = GPIO_MODE_AF_PP;
  GPIO_InitStruct.Pull = GPIO_NOPULL;
  GPIO_InitStruct.Speed = GPIO_SPEED_FREQ_LOW;
  GPIO_InitStruct.Alternate = GPIO_AF14_LTDC;
  HAL_GPIO_Init(GPIOJ, &GPIO_InitStruct);
 800315e:	a915      	add	r1, sp, #84	; 0x54
 8003160:	483f      	ldr	r0, [pc, #252]	; (8003260 <main+0x384>)
  GPIO_InitStruct.Pin = LCD_B1_Pin|LCD_B2_Pin|LCD_B3_Pin|LCD_G4_Pin
 8003162:	9315      	str	r3, [sp, #84]	; 0x54
  GPIO_InitStruct.Pull = GPIO_NOPULL;
 8003164:	e9cd 5416 	strd	r5, r4, [sp, #88]	; 0x58
  GPIO_InitStruct.Alternate = GPIO_AF14_LTDC;
 8003168:	e9cd 4b18 	strd	r4, fp, [sp, #96]	; 0x60
  HAL_GPIO_Init(GPIOJ, &GPIO_InitStruct);
 800316c:	f7fd fcd2 	bl	8000b14 <HAL_GPIO_Init>

  /*Configure GPIO pin : OTG_FS_VBUS_Pin */
  GPIO_InitStruct.Pin = OTG_FS_VBUS_Pin;
 8003170:	f44f 5380 	mov.w	r3, #4096	; 0x1000
  GPIO_InitStruct.Mode = GPIO_MODE_INPUT;
  GPIO_InitStruct.Pull = GPIO_NOPULL;
  HAL_GPIO_Init(OTG_FS_VBUS_GPIO_Port, &GPIO_InitStruct);
 8003174:	a915      	add	r1, sp, #84	; 0x54
 8003176:	483a      	ldr	r0, [pc, #232]	; (8003260 <main+0x384>)
  GPIO_InitStruct.Pin = OTG_FS_VBUS_Pin;
 8003178:	9315      	str	r3, [sp, #84]	; 0x54
  GPIO_InitStruct.Pull = GPIO_NOPULL;
 800317a:	e9cd 4416 	strd	r4, r4, [sp, #88]	; 0x58
  HAL_GPIO_Init(OTG_FS_VBUS_GPIO_Port, &GPIO_InitStruct);
 800317e:	f7fd fcc9 	bl	8000b14 <HAL_GPIO_Init>

  /*Configure GPIO pins : FMC_D2_Pin FMC_D3_Pin FMC_D1_Pin FMC_D15_Pin
                           FMC_D0_Pin FMC_D14_Pin FMC_D13_Pin */
  GPIO_InitStruct.Pin = FMC_D2_Pin|FMC_D3_Pin|FMC_D1_Pin|FMC_D15_Pin
 8003182:	f24c 7303 	movw	r3, #50947	; 0xc703
                          |FMC_D0_Pin|FMC_D14_Pin|FMC_D13_Pin;
  GPIO_InitStruct.Mode = GPIO_MODE_AF_PP;
  GPIO_InitStruct.Pull = GPIO_NOPULL;
  GPIO_InitStruct.Speed = GPIO_SPEED_FREQ_VERY_HIGH;
  GPIO_InitStruct.Alternate = GPIO_AF12_FMC;
  HAL_GPIO_Init(GPIOD, &GPIO_InitStruct);
 8003186:	a915      	add	r1, sp, #84	; 0x54
 8003188:	482e      	ldr	r0, [pc, #184]	; (8003244 <main+0x368>)
  GPIO_InitStruct.Pin = FMC_D2_Pin|FMC_D3_Pin|FMC_D1_Pin|FMC_D15_Pin
 800318a:	9315      	str	r3, [sp, #84]	; 0x54
  GPIO_InitStruct.Pull = GPIO_NOPULL;
 800318c:	e9cd 5416 	strd	r5, r4, [sp, #88]	; 0x58
  GPIO_InitStruct.Alternate = GPIO_AF12_FMC;
 8003190:	e9cd 7818 	strd	r7, r8, [sp, #96]	; 0x60
  HAL_GPIO_Init(GPIOD, &GPIO_InitStruct);
 8003194:	f7fd fcbe 	bl	8000b14 <HAL_GPIO_Init>

  /*Configure GPIO pins : OTG_FS_P_Pin OTG_FS_N_Pin OTG_FS_ID_Pin */
  GPIO_InitStruct.Pin = OTG_FS_P_Pin|OTG_FS_N_Pin|OTG_FS_ID_Pin;
 8003198:	f44f 53e0 	mov.w	r3, #7168	; 0x1c00
  GPIO_InitStruct.Mode = GPIO_MODE_AF_PP;
  GPIO_InitStruct.Pull = GPIO_NOPULL;
  GPIO_InitStruct.Speed = GPIO_SPEED_FREQ_VERY_HIGH;
  GPIO_InitStruct.Alternate = GPIO_AF10_OTG_FS;
  HAL_GPIO_Init(GPIOA, &GPIO_InitStruct);
 800319c:	a915      	add	r1, sp, #84	; 0x54
 800319e:	4828      	ldr	r0, [pc, #160]	; (8003240 <main+0x364>)
  GPIO_InitStruct.Pin = OTG_FS_P_Pin|OTG_FS_N_Pin|OTG_FS_ID_Pin;
 80031a0:	9315      	str	r3, [sp, #84]	; 0x54
  GPIO_InitStruct.Pull = GPIO_NOPULL;
 80031a2:	e9cd 5416 	strd	r5, r4, [sp, #88]	; 0x58
  GPIO_InitStruct.Alternate = GPIO_AF10_OTG_FS;
 80031a6:	e9cd 7a18 	strd	r7, sl, [sp, #96]	; 0x60
  HAL_GPIO_Init(GPIOA, &GPIO_InitStruct);
 80031aa:	f7fd fcb3 	bl	8000b14 <HAL_GPIO_Init>

  /*Configure GPIO pins : SAI2_MCLKA_Pin SAI2_SCKA_Pin SAI2_FSA_Pin SAI2_SDA_Pin */
  GPIO_InitStruct.Pin = SAI2_MCLKA_Pin|SAI2_SCKA_Pin|SAI2_FSA_Pin|SAI2_SDA_Pin;
 80031ae:	23f0      	movs	r3, #240	; 0xf0
  GPIO_InitStruct.Mode = GPIO_MODE_AF_PP;
  GPIO_InitStruct.Pull = GPIO_NOPULL;
  GPIO_InitStruct.Speed = GPIO_SPEED_FREQ_LOW;
  GPIO_InitStruct.Alternate = GPIO_AF10_SAI2;
  HAL_GPIO_Init(GPIOI, &GPIO_InitStruct);
 80031b0:	a915      	add	r1, sp, #84	; 0x54
 80031b2:	4826      	ldr	r0, [pc, #152]	; (800324c <main+0x370>)
  GPIO_InitStruct.Pin = SAI2_MCLKA_Pin|SAI2_SCKA_Pin|SAI2_FSA_Pin|SAI2_SDA_Pin;
 80031b4:	9315      	str	r3, [sp, #84]	; 0x54
  GPIO_InitStruct.Pull = GPIO_NOPULL;
 80031b6:	e9cd 5416 	strd	r5, r4, [sp, #88]	; 0x58
  GPIO_InitStruct.Alternate = GPIO_AF10_SAI2;
 80031ba:	e9cd 4a18 	strd	r4, sl, [sp, #96]	; 0x60
  HAL_GPIO_Init(GPIOI, &GPIO_InitStruct);
 80031be:	f7fd fca9 	bl	8000b14 <HAL_GPIO_Init>

  /*Configure GPIO pins : LCD_DE_Pin LCD_B7_Pin LCD_B6_Pin LCD_B5_Pin
                           LCD_G6_Pin LCD_G7_Pin LCD_G5_Pin */
  GPIO_InitStruct.Pin = LCD_DE_Pin|LCD_B7_Pin|LCD_B6_Pin|LCD_B5_Pin
 80031c2:	23f7      	movs	r3, #247	; 0xf7
                          |LCD_G6_Pin|LCD_G7_Pin|LCD_G5_Pin;
  GPIO_InitStruct.Mode = GPIO_MODE_AF_PP;
  GPIO_InitStruct.Pull = GPIO_NOPULL;
  GPIO_InitStruct.Speed = GPIO_SPEED_FREQ_LOW;
  GPIO_InitStruct.Alternate = GPIO_AF14_LTDC;
  HAL_GPIO_Init(GPIOK, &GPIO_InitStruct);
 80031c4:	a915      	add	r1, sp, #84	; 0x54
 80031c6:	4820      	ldr	r0, [pc, #128]	; (8003248 <main+0x36c>)
  GPIO_InitStruct.Pin = LCD_DE_Pin|LCD_B7_Pin|LCD_B6_Pin|LCD_B5_Pin
 80031c8:	9315      	str	r3, [sp, #84]	; 0x54
  GPIO_InitStruct.Pull = GPIO_NOPULL;
 80031ca:	e9cd 5416 	strd	r5, r4, [sp, #88]	; 0x58
  GPIO_InitStruct.Alternate = GPIO_AF14_LTDC;
 80031ce:	e9cd 4b18 	strd	r4, fp, [sp, #96]	; 0x60
  HAL_GPIO_Init(GPIOK, &GPIO_InitStruct);
 80031d2:	f7fd fc9f 	bl	8000b14 <HAL_GPIO_Init>

  /*Configure GPIO pin : LCD_B4_Pin */
  GPIO_InitStruct.Pin = LCD_B4_Pin;
 80031d6:	f44f 5380 	mov.w	r3, #4096	; 0x1000
  GPIO_InitStruct.Mode = GPIO_MODE_AF_PP;
  GPIO_InitStruct.Pull = GPIO_NOPULL;
  GPIO_InitStruct.Speed = GPIO_SPEED_FREQ_LOW;
  GPIO_InitStruct.Alternate = GPIO_AF9_LTDC;
  HAL_GPIO_Init(LCD_B4_GPIO_Port, &GPIO_InitStruct);
 80031da:	a915      	add	r1, sp, #84	; 0x54
 80031dc:	481d      	ldr	r0, [pc, #116]	; (8003254 <main+0x378>)
  GPIO_InitStruct.Mode = GPIO_MODE_AF_PP;
 80031de:	e9cd 3515 	strd	r3, r5, [sp, #84]	; 0x54
  GPIO_InitStruct.Alternate = GPIO_AF9_LTDC;
 80031e2:	2309      	movs	r3, #9
  GPIO_InitStruct.Speed = GPIO_SPEED_FREQ_LOW;
 80031e4:	e9cd 4417 	strd	r4, r4, [sp, #92]	; 0x5c
  GPIO_InitStruct.Alternate = GPIO_AF9_LTDC;
 80031e8:	9319      	str	r3, [sp, #100]	; 0x64
  HAL_GPIO_Init(LCD_B4_GPIO_Port, &GPIO_InitStruct);
 80031ea:	f7fd fc93 	bl	8000b14 <HAL_GPIO_Init>

  /*Configure GPIO pin : SAI2_SDB_Pin */
  GPIO_InitStruct.Pin = SAI2_SDB_Pin;
 80031ee:	f44f 6380 	mov.w	r3, #1024	; 0x400
  GPIO_InitStruct.Mode = GPIO_MODE_AF_PP;
  GPIO_InitStruct.Pull = GPIO_NOPULL;
  GPIO_InitStruct.Speed = GPIO_SPEED_FREQ_LOW;
  GPIO_InitStruct.Alternate = GPIO_AF10_SAI2;
  HAL_GPIO_Init(SAI2_SDB_GPIO_Port, &GPIO_InitStruct);
 80031f2:	a915      	add	r1, sp, #84	; 0x54
 80031f4:	4817      	ldr	r0, [pc, #92]	; (8003254 <main+0x378>)
  GPIO_InitStruct.Pin = SAI2_SDB_Pin;
 80031f6:	9315      	str	r3, [sp, #84]	; 0x54
  GPIO_InitStruct.Pull = GPIO_NOPULL;
 80031f8:	e9cd 5416 	strd	r5, r4, [sp, #88]	; 0x58
  GPIO_InitStruct.Alternate = GPIO_AF10_SAI2;
 80031fc:	e9cd 4a18 	strd	r4, sl, [sp, #96]	; 0x60
  HAL_GPIO_Init(SAI2_SDB_GPIO_Port, &GPIO_InitStruct);
 8003200:	f7fd fc88 	bl	8000b14 <HAL_GPIO_Init>

  /*Configure GPIO pin : OTG_FS_PowerSwitchOn_Pin */
  GPIO_InitStruct.Pin = OTG_FS_PowerSwitchOn_Pin;
 8003204:	2320      	movs	r3, #32
  GPIO_InitStruct.Mode = GPIO_MODE_OUTPUT_PP;
  GPIO_InitStruct.Pull = GPIO_NOPULL;
  GPIO_InitStruct.Speed = GPIO_SPEED_FREQ_LOW;
  HAL_GPIO_Init(OTG_FS_PowerSwitchOn_GPIO_Port, &GPIO_InitStruct);
 8003206:	a915      	add	r1, sp, #84	; 0x54
 8003208:	480e      	ldr	r0, [pc, #56]	; (8003244 <main+0x368>)
  GPIO_InitStruct.Pin = OTG_FS_PowerSwitchOn_Pin;
 800320a:	9315      	str	r3, [sp, #84]	; 0x54
  GPIO_InitStruct.Speed = GPIO_SPEED_FREQ_LOW;
 800320c:	9418      	str	r4, [sp, #96]	; 0x60
  GPIO_InitStruct.Pull = GPIO_NOPULL;
 800320e:	e9cd 6416 	strd	r6, r4, [sp, #88]	; 0x58
  HAL_GPIO_Init(OTG_FS_PowerSwitchOn_GPIO_Port, &GPIO_InitStruct);
 8003212:	f7fd fc7f 	bl	8000b14 <HAL_GPIO_Init>

  /*Configure GPIO pins : BUTTON1_Pin BUTTON0_Pin */
  GPIO_InitStruct.Pin = BUTTON1_Pin|BUTTON0_Pin;
  GPIO_InitStruct.Mode = GPIO_MODE_IT_RISING_FALLING;
 8003216:	4b13      	ldr	r3, [pc, #76]	; (8003264 <main+0x388>)
  GPIO_InitStruct.Pull = GPIO_PULLUP;
  HAL_GPIO_Init(GPIOI, &GPIO_InitStruct);
 8003218:	a915      	add	r1, sp, #84	; 0x54
 800321a:	480c      	ldr	r0, [pc, #48]	; (800324c <main+0x370>)
  GPIO_InitStruct.Mode = GPIO_MODE_IT_RISING_FALLING;
 800321c:	9316      	str	r3, [sp, #88]	; 0x58
  GPIO_InitStruct.Pin = BUTTON1_Pin|BUTTON0_Pin;
 800321e:	f8cd 8054 	str.w	r8, [sp, #84]	; 0x54
  GPIO_InitStruct.Pull = GPIO_PULLUP;
 8003222:	9617      	str	r6, [sp, #92]	; 0x5c
  HAL_GPIO_Init(GPIOI, &GPIO_InitStruct);
 8003224:	f7fd fc76 	bl	8000b14 <HAL_GPIO_Init>

  /*Configure GPIO pin : uSD_Detect_Pin */
  GPIO_InitStruct.Pin = uSD_Detect_Pin;
 8003228:	f44f 5300 	mov.w	r3, #8192	; 0x2000
  GPIO_InitStruct.Mode = GPIO_MODE_INPUT;
  GPIO_InitStruct.Pull = GPIO_NOPULL;
  HAL_GPIO_Init(uSD_Detect_GPIO_Port, &GPIO_InitStruct);
 800322c:	a915      	add	r1, sp, #84	; 0x54
 800322e:	480b      	ldr	r0, [pc, #44]	; (800325c <main+0x380>)
  GPIO_InitStruct.Pin = uSD_Detect_Pin;
 8003230:	9315      	str	r3, [sp, #84]	; 0x54
  GPIO_InitStruct.Pull = GPIO_NOPULL;
 8003232:	e9cd 4416 	strd	r4, r4, [sp, #88]	; 0x58
 8003236:	e017      	b.n	8003268 <main+0x38c>
 8003238:	40023800 	.word	0x40023800
 800323c:	40020400 	.word	0x40020400
 8003240:	40020000 	.word	0x40020000
 8003244:	40020c00 	.word	0x40020c00
 8003248:	40022800 	.word	0x40022800
 800324c:	40022000 	.word	0x40022000
 8003250:	40021c00 	.word	0x40021c00
 8003254:	40021800 	.word	0x40021800
 8003258:	40021000 	.word	0x40021000
 800325c:	40020800 	.word	0x40020800
 8003260:	40022400 	.word	0x40022400
 8003264:	10310000 	.word	0x10310000
  HAL_GPIO_Init(uSD_Detect_GPIO_Port, &GPIO_InitStruct);
 8003268:	f7fd fc54 	bl	8000b14 <HAL_GPIO_Init>

  /*Configure GPIO pins : FMC_A0_Pin FMC_A1_Pin FMC_A2_Pin FMC_A3_Pin
                           FMC_A4_Pin FMC_A5_Pin FMC_A6_Pin FMC_A9_Pin
                           FMC_A7_Pin FMC_A8_Pin FMC_SDNRAS_Pin */
  GPIO_InitStruct.Pin = FMC_A0_Pin|FMC_A1_Pin|FMC_A2_Pin|FMC_A3_Pin
 800326c:	f64f 033f 	movw	r3, #63551	; 0xf83f
                          |FMC_A7_Pin|FMC_A8_Pin|FMC_SDNRAS_Pin;
  GPIO_InitStruct.Mode = GPIO_MODE_AF_PP;
  GPIO_InitStruct.Pull = GPIO_NOPULL;
  GPIO_InitStruct.Speed = GPIO_SPEED_FREQ_VERY_HIGH;
  GPIO_InitStruct.Alternate = GPIO_AF12_FMC;
  HAL_GPIO_Init(GPIOF, &GPIO_InitStruct);
 8003270:	a915      	add	r1, sp, #84	; 0x54
 8003272:	48ad      	ldr	r0, [pc, #692]	; (8003528 <main+0x64c>)
  GPIO_InitStruct.Pin = FMC_A0_Pin|FMC_A1_Pin|FMC_A2_Pin|FMC_A3_Pin
 8003274:	9315      	str	r3, [sp, #84]	; 0x54
  GPIO_InitStruct.Pull = GPIO_NOPULL;
 8003276:	e9cd 5416 	strd	r5, r4, [sp, #88]	; 0x58
  GPIO_InitStruct.Alternate = GPIO_AF12_FMC;
 800327a:	e9cd 7818 	strd	r7, r8, [sp, #96]	; 0x60
  HAL_GPIO_Init(GPIOF, &GPIO_InitStruct);
 800327e:	f7fd fc49 	bl	8000b14 <HAL_GPIO_Init>

  /*Configure GPIO pins : LCD_HSYNC_Pin LCD_VSYNC_Pin LCD_R0_Pin LCD_CLK_Pin */
  GPIO_InitStruct.Pin = LCD_HSYNC_Pin|LCD_VSYNC_Pin|LCD_R0_Pin|LCD_CLK_Pin;
 8003282:	f44f 4346 	mov.w	r3, #50688	; 0xc600
  GPIO_InitStruct.Mode = GPIO_MODE_AF_PP;
  GPIO_InitStruct.Pull = GPIO_NOPULL;
  GPIO_InitStruct.Speed = GPIO_SPEED_FREQ_LOW;
  GPIO_InitStruct.Alternate = GPIO_AF14_LTDC;
  HAL_GPIO_Init(GPIOI, &GPIO_InitStruct);
 8003286:	a915      	add	r1, sp, #84	; 0x54
 8003288:	48a8      	ldr	r0, [pc, #672]	; (800352c <main+0x650>)
  GPIO_InitStruct.Pin = LCD_HSYNC_Pin|LCD_VSYNC_Pin|LCD_R0_Pin|LCD_CLK_Pin;
 800328a:	9315      	str	r3, [sp, #84]	; 0x54
  GPIO_InitStruct.Alternate = GPIO_AF14_LTDC;
 800328c:	f8cd b064 	str.w	fp, [sp, #100]	; 0x64
  GPIO_InitStruct.Speed = GPIO_SPEED_FREQ_VERY_HIGH;
  GPIO_InitStruct.Alternate = GPIO_AF10_OTG_HS;
  HAL_GPIO_Init(ULPI_NXT_GPIO_Port, &GPIO_InitStruct);

  /*Configure GPIO pins : FMC_SDNME_Pin FMC_SDNE0_Pin */
  GPIO_InitStruct.Pin = FMC_SDNME_Pin|FMC_SDNE0_Pin;
 8003290:	f04f 0b28 	mov.w	fp, #40	; 0x28
  GPIO_InitStruct.Speed = GPIO_SPEED_FREQ_LOW;
 8003294:	9418      	str	r4, [sp, #96]	; 0x60
  GPIO_InitStruct.Pull = GPIO_NOPULL;
 8003296:	e9cd 5416 	strd	r5, r4, [sp, #88]	; 0x58
  HAL_GPIO_Init(GPIOI, &GPIO_InitStruct);
 800329a:	f7fd fc3b 	bl	8000b14 <HAL_GPIO_Init>
  HAL_GPIO_Init(LCD_BL_CTRL_GPIO_Port, &GPIO_InitStruct);
 800329e:	a915      	add	r1, sp, #84	; 0x54
 80032a0:	48a3      	ldr	r0, [pc, #652]	; (8003530 <main+0x654>)
  GPIO_InitStruct.Pin = LCD_BL_CTRL_Pin;
 80032a2:	f8cd 9054 	str.w	r9, [sp, #84]	; 0x54
  GPIO_InitStruct.Speed = GPIO_SPEED_FREQ_LOW;
 80032a6:	9418      	str	r4, [sp, #96]	; 0x60
  GPIO_InitStruct.Pull = GPIO_NOPULL;
 80032a8:	e9cd 6416 	strd	r6, r4, [sp, #88]	; 0x58
  HAL_GPIO_Init(LCD_BL_CTRL_GPIO_Port, &GPIO_InitStruct);
 80032ac:	f7fd fc32 	bl	8000b14 <HAL_GPIO_Init>
  GPIO_InitStruct.Pin = OTG_FS_OverCurrent_Pin;
 80032b0:	2310      	movs	r3, #16
  HAL_GPIO_Init(OTG_FS_OverCurrent_GPIO_Port, &GPIO_InitStruct);
 80032b2:	a915      	add	r1, sp, #84	; 0x54
 80032b4:	489f      	ldr	r0, [pc, #636]	; (8003534 <main+0x658>)
  GPIO_InitStruct.Pull = GPIO_NOPULL;
 80032b6:	9417      	str	r4, [sp, #92]	; 0x5c
  GPIO_InitStruct.Mode = GPIO_MODE_INPUT;
 80032b8:	e9cd 3415 	strd	r3, r4, [sp, #84]	; 0x54
  HAL_GPIO_Init(OTG_FS_OverCurrent_GPIO_Port, &GPIO_InitStruct);
 80032bc:	f7fd fc2a 	bl	8000b14 <HAL_GPIO_Init>
  GPIO_InitStruct.Pin = SDMMC_CMD_Pin;
 80032c0:	2304      	movs	r3, #4
  HAL_GPIO_Init(SDMMC_CMD_GPIO_Port, &GPIO_InitStruct);
 80032c2:	a915      	add	r1, sp, #84	; 0x54
 80032c4:	489b      	ldr	r0, [pc, #620]	; (8003534 <main+0x658>)
  GPIO_InitStruct.Pin = SDMMC_CMD_Pin;
 80032c6:	9315      	str	r3, [sp, #84]	; 0x54
  GPIO_InitStruct.Pull = GPIO_NOPULL;
 80032c8:	e9cd 5416 	strd	r5, r4, [sp, #88]	; 0x58
  GPIO_InitStruct.Alternate = GPIO_AF12_SDMMC1;
 80032cc:	e9cd 7818 	strd	r7, r8, [sp, #96]	; 0x60
  HAL_GPIO_Init(SDMMC_CMD_GPIO_Port, &GPIO_InitStruct);
 80032d0:	f7fd fc20 	bl	8000b14 <HAL_GPIO_Init>
  GPIO_InitStruct.Pin = TP3_Pin|NC2_Pin;
 80032d4:	f248 0304 	movw	r3, #32772	; 0x8004
  HAL_GPIO_Init(GPIOH, &GPIO_InitStruct);
 80032d8:	a915      	add	r1, sp, #84	; 0x54
 80032da:	4897      	ldr	r0, [pc, #604]	; (8003538 <main+0x65c>)
  GPIO_InitStruct.Pin = TP3_Pin|NC2_Pin;
 80032dc:	9315      	str	r3, [sp, #84]	; 0x54
  GPIO_InitStruct.Pull = GPIO_NOPULL;
 80032de:	e9cd 4416 	strd	r4, r4, [sp, #88]	; 0x58
  HAL_GPIO_Init(GPIOH, &GPIO_InitStruct);
 80032e2:	f7fd fc17 	bl	8000b14 <HAL_GPIO_Init>
  GPIO_InitStruct.Pin = LCD_DISP_Pin;
 80032e6:	f44f 5380 	mov.w	r3, #4096	; 0x1000
  HAL_GPIO_Init(LCD_DISP_GPIO_Port, &GPIO_InitStruct);
 80032ea:	a915      	add	r1, sp, #84	; 0x54
 80032ec:	488f      	ldr	r0, [pc, #572]	; (800352c <main+0x650>)
  GPIO_InitStruct.Mode = GPIO_MODE_OUTPUT_PP;
 80032ee:	e9cd 3615 	strd	r3, r6, [sp, #84]	; 0x54
  GPIO_InitStruct.Speed = GPIO_SPEED_FREQ_LOW;
 80032f2:	e9cd 4417 	strd	r4, r4, [sp, #92]	; 0x5c
  HAL_GPIO_Init(LCD_DISP_GPIO_Port, &GPIO_InitStruct);
 80032f6:	f7fd fc0d 	bl	8000b14 <HAL_GPIO_Init>
  GPIO_InitStruct.Pin = DCMI_PWR_EN_Pin|LED1_Pin;
 80032fa:	f44f 5301 	mov.w	r3, #8256	; 0x2040
  HAL_GPIO_Init(GPIOH, &GPIO_InitStruct);
 80032fe:	a915      	add	r1, sp, #84	; 0x54
 8003300:	488d      	ldr	r0, [pc, #564]	; (8003538 <main+0x65c>)
  GPIO_InitStruct.Pin = DCMI_PWR_EN_Pin|LED1_Pin;
 8003302:	9315      	str	r3, [sp, #84]	; 0x54
  GPIO_InitStruct.Speed = GPIO_SPEED_FREQ_LOW;
 8003304:	9418      	str	r4, [sp, #96]	; 0x60
  GPIO_InitStruct.Pull = GPIO_NOPULL;
 8003306:	e9cd 6416 	strd	r6, r4, [sp, #88]	; 0x58
  HAL_GPIO_Init(GPIOH, &GPIO_InitStruct);
 800330a:	f7fd fc03 	bl	8000b14 <HAL_GPIO_Init>
  GPIO_InitStruct.Pin = LCD_INT_Pin;
 800330e:	f44f 5200 	mov.w	r2, #8192	; 0x2000
  GPIO_InitStruct.Mode = GPIO_MODE_EVT_RISING;
 8003312:	4b8a      	ldr	r3, [pc, #552]	; (800353c <main+0x660>)
  HAL_GPIO_Init(LCD_INT_GPIO_Port, &GPIO_InitStruct);
 8003314:	a915      	add	r1, sp, #84	; 0x54
 8003316:	4885      	ldr	r0, [pc, #532]	; (800352c <main+0x650>)
  GPIO_InitStruct.Pin = LCD_INT_Pin;
 8003318:	9215      	str	r2, [sp, #84]	; 0x54
  GPIO_InitStruct.Mode = GPIO_MODE_EVT_RISING;
 800331a:	e9cd 3416 	strd	r3, r4, [sp, #88]	; 0x58
  HAL_GPIO_Init(LCD_INT_GPIO_Port, &GPIO_InitStruct);
 800331e:	f7fd fbf9 	bl	8000b14 <HAL_GPIO_Init>
  GPIO_InitStruct.Pin = ULPI_NXT_Pin;
 8003322:	2310      	movs	r3, #16
  HAL_GPIO_Init(ULPI_NXT_GPIO_Port, &GPIO_InitStruct);
 8003324:	a915      	add	r1, sp, #84	; 0x54
 8003326:	4884      	ldr	r0, [pc, #528]	; (8003538 <main+0x65c>)
  GPIO_InitStruct.Alternate = GPIO_AF10_OTG_HS;
 8003328:	f8cd a064 	str.w	sl, [sp, #100]	; 0x64
  GPIO_InitStruct.Mode = GPIO_MODE_AF_PP;
 800332c:	e9cd 3515 	strd	r3, r5, [sp, #84]	; 0x54
  GPIO_InitStruct.Speed = GPIO_SPEED_FREQ_VERY_HIGH;
 8003330:	e9cd 4717 	strd	r4, r7, [sp, #92]	; 0x5c
  HAL_GPIO_Init(ULPI_NXT_GPIO_Port, &GPIO_InitStruct);
 8003334:	f7fd fbee 	bl	8000b14 <HAL_GPIO_Init>
  GPIO_InitStruct.Mode = GPIO_MODE_AF_PP;
  GPIO_InitStruct.Pull = GPIO_NOPULL;
  GPIO_InitStruct.Speed = GPIO_SPEED_FREQ_VERY_HIGH;
  GPIO_InitStruct.Alternate = GPIO_AF12_FMC;
  HAL_GPIO_Init(GPIOH, &GPIO_InitStruct);
 8003338:	a915      	add	r1, sp, #84	; 0x54
 800333a:	487f      	ldr	r0, [pc, #508]	; (8003538 <main+0x65c>)
  GPIO_InitStruct.Pin = FMC_SDNME_Pin|FMC_SDNE0_Pin;
 800333c:	f8cd b054 	str.w	fp, [sp, #84]	; 0x54
  GPIO_InitStruct.Pull = GPIO_NOPULL;
 8003340:	e9cd 5416 	strd	r5, r4, [sp, #88]	; 0x58
  GPIO_InitStruct.Alternate = GPIO_AF12_FMC;
 8003344:	e9cd 7818 	strd	r7, r8, [sp, #96]	; 0x60
  HAL_GPIO_Init(GPIOH, &GPIO_InitStruct);
 8003348:	f7fd fbe4 	bl	8000b14 <HAL_GPIO_Init>

  /*Configure GPIO pins : BUTTON2_Pin BUTTON3_Pin */
  GPIO_InitStruct.Pin = BUTTON2_Pin|BUTTON3_Pin;
  GPIO_InitStruct.Mode = GPIO_MODE_IT_RISING_FALLING;
 800334c:	4a7c      	ldr	r2, [pc, #496]	; (8003540 <main+0x664>)
  GPIO_InitStruct.Pin = BUTTON2_Pin|BUTTON3_Pin;
 800334e:	23c0      	movs	r3, #192	; 0xc0
  GPIO_InitStruct.Pull = GPIO_PULLUP;
  HAL_GPIO_Init(GPIOG, &GPIO_InitStruct);
 8003350:	a915      	add	r1, sp, #84	; 0x54
 8003352:	487c      	ldr	r0, [pc, #496]	; (8003544 <main+0x668>)
  GPIO_InitStruct.Pin = BUTTON2_Pin|BUTTON3_Pin;
 8003354:	9315      	str	r3, [sp, #84]	; 0x54
  GPIO_InitStruct.Pull = GPIO_PULLUP;
 8003356:	e9cd 2616 	strd	r2, r6, [sp, #88]	; 0x58
  HAL_GPIO_Init(GPIOG, &GPIO_InitStruct);
 800335a:	f7fd fbdb 	bl	8000b14 <HAL_GPIO_Init>
  GPIO_InitStruct.Pin = FMC_SDCKE0_Pin;
  GPIO_InitStruct.Mode = GPIO_MODE_AF_PP;
  GPIO_InitStruct.Pull = GPIO_NOPULL;
  GPIO_InitStruct.Speed = GPIO_SPEED_FREQ_VERY_HIGH;
  GPIO_InitStruct.Alternate = GPIO_AF12_FMC;
  HAL_GPIO_Init(FMC_SDCKE0_GPIO_Port, &GPIO_InitStruct);
 800335e:	a915      	add	r1, sp, #84	; 0x54
 8003360:	4879      	ldr	r0, [pc, #484]	; (8003548 <main+0x66c>)
  GPIO_InitStruct.Alternate = GPIO_AF12_FMC;
 8003362:	f8cd 8064 	str.w	r8, [sp, #100]	; 0x64
  GPIO_InitStruct.Mode = GPIO_MODE_AF_PP;
 8003366:	e9cd 9515 	strd	r9, r5, [sp, #84]	; 0x54
  GPIO_InitStruct.Speed = GPIO_SPEED_FREQ_VERY_HIGH;
 800336a:	e9cd 4717 	strd	r4, r7, [sp, #92]	; 0x5c
  HAL_GPIO_Init(FMC_SDCKE0_GPIO_Port, &GPIO_InitStruct);
 800336e:	f7fd fbd1 	bl	8000b14 <HAL_GPIO_Init>

  /*Configure GPIO pins : ULPI_STP_Pin ULPI_DIR_Pin */
  GPIO_InitStruct.Pin = ULPI_STP_Pin|ULPI_DIR_Pin;
 8003372:	2305      	movs	r3, #5
  GPIO_InitStruct.Mode = GPIO_MODE_AF_PP;
  GPIO_InitStruct.Pull = GPIO_NOPULL;
  GPIO_InitStruct.Speed = GPIO_SPEED_FREQ_VERY_HIGH;
  GPIO_InitStruct.Alternate = GPIO_AF10_OTG_HS;
  HAL_GPIO_Init(GPIOC, &GPIO_InitStruct);
 8003374:	a915      	add	r1, sp, #84	; 0x54
 8003376:	4874      	ldr	r0, [pc, #464]	; (8003548 <main+0x66c>)
  GPIO_InitStruct.Pin = ULPI_STP_Pin|ULPI_DIR_Pin;
 8003378:	9315      	str	r3, [sp, #84]	; 0x54
  GPIO_InitStruct.Pull = GPIO_NOPULL;
 800337a:	e9cd 5416 	strd	r5, r4, [sp, #88]	; 0x58
  GPIO_InitStruct.Alternate = GPIO_AF10_OTG_HS;
 800337e:	e9cd 7a18 	strd	r7, sl, [sp, #96]	; 0x60
  HAL_GPIO_Init(GPIOC, &GPIO_InitStruct);
 8003382:	f7fd fbc7 	bl	8000b14 <HAL_GPIO_Init>
  /*Configure GPIO pins : RMII_MDC_Pin RMII_RXD0_Pin RMII_RXD1_Pin */
  GPIO_InitStruct.Pin = RMII_MDC_Pin|RMII_RXD0_Pin|RMII_RXD1_Pin;
  GPIO_InitStruct.Mode = GPIO_MODE_AF_PP;
  GPIO_InitStruct.Pull = GPIO_NOPULL;
  GPIO_InitStruct.Speed = GPIO_SPEED_FREQ_VERY_HIGH;
  GPIO_InitStruct.Alternate = GPIO_AF11_ETH;
 8003386:	220b      	movs	r2, #11
  GPIO_InitStruct.Pin = RMII_MDC_Pin|RMII_RXD0_Pin|RMII_RXD1_Pin;
 8003388:	2332      	movs	r3, #50	; 0x32
  HAL_GPIO_Init(GPIOC, &GPIO_InitStruct);
 800338a:	a915      	add	r1, sp, #84	; 0x54
 800338c:	486e      	ldr	r0, [pc, #440]	; (8003548 <main+0x66c>)
  GPIO_InitStruct.Alternate = GPIO_AF11_ETH;
 800338e:	9219      	str	r2, [sp, #100]	; 0x64
  GPIO_InitStruct.Pin = RMII_MDC_Pin|RMII_RXD0_Pin|RMII_RXD1_Pin;
 8003390:	9315      	str	r3, [sp, #84]	; 0x54
  GPIO_InitStruct.Speed = GPIO_SPEED_FREQ_VERY_HIGH;
 8003392:	9718      	str	r7, [sp, #96]	; 0x60
  GPIO_InitStruct.Pull = GPIO_NOPULL;
 8003394:	e9cd 5416 	strd	r5, r4, [sp, #88]	; 0x58
  HAL_GPIO_Init(GPIOC, &GPIO_InitStruct);
 8003398:	f7fd fbbc 	bl	8000b14 <HAL_GPIO_Init>
  /*Configure GPIO pin : EXT_RST_Pin */
  GPIO_InitStruct.Pin = EXT_RST_Pin;
  GPIO_InitStruct.Mode = GPIO_MODE_OUTPUT_PP;
  GPIO_InitStruct.Pull = GPIO_NOPULL;
  GPIO_InitStruct.Speed = GPIO_SPEED_FREQ_LOW;
  HAL_GPIO_Init(EXT_RST_GPIO_Port, &GPIO_InitStruct);
 800339c:	a915      	add	r1, sp, #84	; 0x54
 800339e:	4869      	ldr	r0, [pc, #420]	; (8003544 <main+0x668>)
  GPIO_InitStruct.Mode = GPIO_MODE_OUTPUT_PP;
 80033a0:	e9cd 9615 	strd	r9, r6, [sp, #84]	; 0x54
  GPIO_InitStruct.Speed = GPIO_SPEED_FREQ_LOW;
 80033a4:	e9cd 4417 	strd	r4, r4, [sp, #92]	; 0x5c
  HAL_GPIO_Init(EXT_RST_GPIO_Port, &GPIO_InitStruct);
 80033a8:	f7fd fbb4 	bl	8000b14 <HAL_GPIO_Init>

  /*Configure GPIO pin : RMII_RXER_Pin */
  GPIO_InitStruct.Pin = RMII_RXER_Pin;
 80033ac:	2304      	movs	r3, #4
  GPIO_InitStruct.Mode = GPIO_MODE_INPUT;
  GPIO_InitStruct.Pull = GPIO_NOPULL;
  HAL_GPIO_Init(RMII_RXER_GPIO_Port, &GPIO_InitStruct);
 80033ae:	a915      	add	r1, sp, #84	; 0x54
 80033b0:	4864      	ldr	r0, [pc, #400]	; (8003544 <main+0x668>)
  GPIO_InitStruct.Pull = GPIO_NOPULL;
 80033b2:	9417      	str	r4, [sp, #92]	; 0x5c
  GPIO_InitStruct.Mode = GPIO_MODE_INPUT;
 80033b4:	e9cd 3415 	strd	r3, r4, [sp, #84]	; 0x54
  HAL_GPIO_Init(RMII_RXER_GPIO_Port, &GPIO_InitStruct);
 80033b8:	f7fd fbac 	bl	8000b14 <HAL_GPIO_Init>

  /*Configure GPIO pins : RMII_REF_CLK_Pin RMII_MDIO_Pin RMII_CRS_DV_Pin */
  GPIO_InitStruct.Pin = RMII_REF_CLK_Pin|RMII_MDIO_Pin|RMII_CRS_DV_Pin;
 80033bc:	2386      	movs	r3, #134	; 0x86
  GPIO_InitStruct.Mode = GPIO_MODE_AF_PP;
  GPIO_InitStruct.Pull = GPIO_NOPULL;
  GPIO_InitStruct.Speed = GPIO_SPEED_FREQ_VERY_HIGH;
  GPIO_InitStruct.Alternate = GPIO_AF11_ETH;
 80033be:	220b      	movs	r2, #11
  HAL_GPIO_Init(GPIOA, &GPIO_InitStruct);
 80033c0:	a915      	add	r1, sp, #84	; 0x54
 80033c2:	4862      	ldr	r0, [pc, #392]	; (800354c <main+0x670>)
  GPIO_InitStruct.Pin = RMII_REF_CLK_Pin|RMII_MDIO_Pin|RMII_CRS_DV_Pin;
 80033c4:	9315      	str	r3, [sp, #84]	; 0x54
  GPIO_InitStruct.Alternate = GPIO_AF11_ETH;
 80033c6:	9219      	str	r2, [sp, #100]	; 0x64
  GPIO_InitStruct.Speed = GPIO_SPEED_FREQ_VERY_HIGH;
 80033c8:	9718      	str	r7, [sp, #96]	; 0x60
  GPIO_InitStruct.Pull = GPIO_NOPULL;
 80033ca:	e9cd 5416 	strd	r5, r4, [sp, #88]	; 0x58
  HAL_GPIO_Init(GPIOA, &GPIO_InitStruct);
 80033ce:	f7fd fba1 	bl	8000b14 <HAL_GPIO_Init>
  GPIO_InitStruct.Pin = ULPI_CLK_Pin|ULPI_D0_Pin;
  GPIO_InitStruct.Mode = GPIO_MODE_AF_PP;
  GPIO_InitStruct.Pull = GPIO_NOPULL;
  GPIO_InitStruct.Speed = GPIO_SPEED_FREQ_VERY_HIGH;
  GPIO_InitStruct.Alternate = GPIO_AF10_OTG_HS;
  HAL_GPIO_Init(GPIOA, &GPIO_InitStruct);
 80033d2:	485e      	ldr	r0, [pc, #376]	; (800354c <main+0x670>)
 80033d4:	a915      	add	r1, sp, #84	; 0x54
  GPIO_InitStruct.Alternate = GPIO_AF10_OTG_HS;
 80033d6:	f8cd a064 	str.w	sl, [sp, #100]	; 0x64
  GPIO_InitStruct.Mode = GPIO_MODE_AF_PP;
 80033da:	e9cd b515 	strd	fp, r5, [sp, #84]	; 0x54
  GPIO_InitStruct.Speed = GPIO_SPEED_FREQ_VERY_HIGH;
 80033de:	e9cd 4717 	strd	r4, r7, [sp, #92]	; 0x5c
  HAL_GPIO_Init(GPIOA, &GPIO_InitStruct);
 80033e2:	f7fd fb97 	bl	8000b14 <HAL_GPIO_Init>

  /* EXTI interrupt init*/
  HAL_NVIC_SetPriority(EXTI2_IRQn, 0, 0);
 80033e6:	4622      	mov	r2, r4
 80033e8:	4621      	mov	r1, r4
 80033ea:	4648      	mov	r0, r9
 80033ec:	f7fd faa4 	bl	8000938 <HAL_NVIC_SetPriority>
  HAL_NVIC_EnableIRQ(EXTI2_IRQn);
 80033f0:	4648      	mov	r0, r9
 80033f2:	f7fd fad7 	bl	80009a4 <HAL_NVIC_EnableIRQ>

  HAL_NVIC_SetPriority(EXTI3_IRQn, 0, 0);
 80033f6:	4622      	mov	r2, r4
 80033f8:	4621      	mov	r1, r4
 80033fa:	2009      	movs	r0, #9
 80033fc:	f7fd fa9c 	bl	8000938 <HAL_NVIC_SetPriority>
  HAL_NVIC_EnableIRQ(EXTI3_IRQn);
 8003400:	2009      	movs	r0, #9
 8003402:	f7fd facf 	bl	80009a4 <HAL_NVIC_EnableIRQ>

  HAL_NVIC_SetPriority(EXTI9_5_IRQn, 0, 0);
 8003406:	4622      	mov	r2, r4
 8003408:	4621      	mov	r1, r4
 800340a:	2017      	movs	r0, #23
  hadc3.Instance = ADC3;
 800340c:	4d50      	ldr	r5, [pc, #320]	; (8003550 <main+0x674>)
  HAL_NVIC_SetPriority(EXTI9_5_IRQn, 0, 0);
 800340e:	f7fd fa93 	bl	8000938 <HAL_NVIC_SetPriority>
  HAL_NVIC_EnableIRQ(EXTI9_5_IRQn);
 8003412:	2017      	movs	r0, #23
 8003414:	f7fd fac6 	bl	80009a4 <HAL_NVIC_EnableIRQ>
  hadc3.Instance = ADC3;
 8003418:	494e      	ldr	r1, [pc, #312]	; (8003554 <main+0x678>)
  hadc3.Init.ClockPrescaler = ADC_CLOCK_SYNC_PCLK_DIV4;
 800341a:	f44f 3280 	mov.w	r2, #65536	; 0x10000
  hadc3.Init.ExternalTrigConv = ADC_SOFTWARE_START;
 800341e:	4b4e      	ldr	r3, [pc, #312]	; (8003558 <main+0x67c>)
  if (HAL_ADC_Init(&hadc3) != HAL_OK)
 8003420:	4628      	mov	r0, r5
  hadc3.Init.NbrOfConversion = 1;
 8003422:	61ee      	str	r6, [r5, #28]
  hadc3.Init.EOCSelection = ADC_EOC_SINGLE_CONV;
 8003424:	616e      	str	r6, [r5, #20]
  hadc3.Init.Resolution = ADC_RESOLUTION_12B;
 8003426:	60ac      	str	r4, [r5, #8]
  hadc3.Init.ScanConvMode = DISABLE;
 8003428:	612c      	str	r4, [r5, #16]
  hadc3.Init.ContinuousConvMode = DISABLE;
 800342a:	61ac      	str	r4, [r5, #24]
  hadc3.Init.DiscontinuousConvMode = DISABLE;
 800342c:	f885 4020 	strb.w	r4, [r5, #32]
  hadc3.Init.ExternalTrigConvEdge = ADC_EXTERNALTRIGCONVEDGE_NONE;
 8003430:	62ec      	str	r4, [r5, #44]	; 0x2c
  hadc3.Init.DataAlign = ADC_DATAALIGN_RIGHT;
 8003432:	60ec      	str	r4, [r5, #12]
  hadc3.Init.DMAContinuousRequests = DISABLE;
 8003434:	f885 4030 	strb.w	r4, [r5, #48]	; 0x30
  hadc3.Init.ExternalTrigConv = ADC_SOFTWARE_START;
 8003438:	62ab      	str	r3, [r5, #40]	; 0x28
  ADC_ChannelConfTypeDef sConfig = {0};
 800343a:	e9cd 4415 	strd	r4, r4, [sp, #84]	; 0x54
 800343e:	e9cd 4417 	strd	r4, r4, [sp, #92]	; 0x5c
  hadc3.Init.ClockPrescaler = ADC_CLOCK_SYNC_PCLK_DIV4;
 8003442:	e9c5 1200 	strd	r1, r2, [r5]
  if (HAL_ADC_Init(&hadc3) != HAL_OK)
 8003446:	f7fd f8f9 	bl	800063c <HAL_ADC_Init>
 800344a:	b100      	cbz	r0, 800344e <main+0x572>
 800344c:	e7fe      	b.n	800344c <main+0x570>
 800344e:	4603      	mov	r3, r0
  sConfig.Channel = ADC_CHANNEL_4;
 8003450:	2204      	movs	r2, #4
  if (HAL_ADC_ConfigChannel(&hadc3, &sConfig) != HAL_OK)
 8003452:	4628      	mov	r0, r5
 8003454:	a915      	add	r1, sp, #84	; 0x54
  sConfig.SamplingTime = ADC_SAMPLETIME_3CYCLES;
 8003456:	9317      	str	r3, [sp, #92]	; 0x5c
  sConfig.Rank = ADC_REGULAR_RANK_1;
 8003458:	e9cd 2615 	strd	r2, r6, [sp, #84]	; 0x54
  if (HAL_ADC_ConfigChannel(&hadc3, &sConfig) != HAL_OK)
 800345c:	f7fd f9a4 	bl	80007a8 <HAL_ADC_ConfigChannel>
 8003460:	4602      	mov	r2, r0
 8003462:	b100      	cbz	r0, 8003466 <main+0x58a>
 8003464:	e7fe      	b.n	8003464 <main+0x588>
  hdcmi.Instance = DCMI;
 8003466:	4b3d      	ldr	r3, [pc, #244]	; (800355c <main+0x680>)
 8003468:	493d      	ldr	r1, [pc, #244]	; (8003560 <main+0x684>)
  if (HAL_DCMI_Init(&hdcmi) != HAL_OK)
 800346a:	4618      	mov	r0, r3
  hdcmi.Init.LineSelectStart = DCMI_OELS_ODD;
 800346c:	631a      	str	r2, [r3, #48]	; 0x30
  hdcmi.Instance = DCMI;
 800346e:	6019      	str	r1, [r3, #0]
  hdcmi.Init.PCKPolarity = DCMI_PCKPOLARITY_FALLING;
 8003470:	e9c3 2201 	strd	r2, r2, [r3, #4]
  hdcmi.Init.HSPolarity = DCMI_HSPOLARITY_LOW;
 8003474:	e9c3 2203 	strd	r2, r2, [r3, #12]
  hdcmi.Init.ExtendedDataMode = DCMI_EXTEND_DATA_8B;
 8003478:	e9c3 2205 	strd	r2, r2, [r3, #20]
  hdcmi.Init.ByteSelectMode = DCMI_BSM_ALL;
 800347c:	e9c3 2208 	strd	r2, r2, [r3, #32]
  hdcmi.Init.LineSelectMode = DCMI_LSM_ALL;
 8003480:	e9c3 220a 	strd	r2, r2, [r3, #40]	; 0x28
  if (HAL_DCMI_Init(&hdcmi) != HAL_OK)
 8003484:	f7fd fab4 	bl	80009f0 <HAL_DCMI_Init>
 8003488:	4603      	mov	r3, r0
 800348a:	b100      	cbz	r0, 800348e <main+0x5b2>
 800348c:	e7fe      	b.n	800348c <main+0x5b0>
  hi2c1.Instance = I2C1;
 800348e:	4c35      	ldr	r4, [pc, #212]	; (8003564 <main+0x688>)
 8003490:	4a35      	ldr	r2, [pc, #212]	; (8003568 <main+0x68c>)
  hi2c1.Init.Timing = 0x00A0A3F7;
 8003492:	4d36      	ldr	r5, [pc, #216]	; (800356c <main+0x690>)
  if (HAL_I2C_Init(&hi2c1) != HAL_OK)
 8003494:	4620      	mov	r0, r4
  hi2c1.Init.NoStretchMode = I2C_NOSTRETCH_DISABLE;
 8003496:	6223      	str	r3, [r4, #32]
  hi2c1.Init.AddressingMode = I2C_ADDRESSINGMODE_7BIT;
 8003498:	e9c4 3602 	strd	r3, r6, [r4, #8]
  hi2c1.Init.OwnAddress2 = 0;
 800349c:	e9c4 3304 	strd	r3, r3, [r4, #16]
  hi2c1.Init.GeneralCallMode = I2C_GENERALCALL_DISABLE;
 80034a0:	e9c4 3306 	strd	r3, r3, [r4, #24]
  hi2c1.Init.Timing = 0x00A0A3F7;
 80034a4:	e9c4 2500 	strd	r2, r5, [r4]
  if (HAL_I2C_Init(&hi2c1) != HAL_OK)
 80034a8:	f7fd fc68 	bl	8000d7c <HAL_I2C_Init>
 80034ac:	4601      	mov	r1, r0
 80034ae:	b100      	cbz	r0, 80034b2 <main+0x5d6>
 80034b0:	e7fe      	b.n	80034b0 <main+0x5d4>
  if (HAL_I2CEx_ConfigAnalogFilter(&hi2c1, I2C_ANALOGFILTER_ENABLE) != HAL_OK)
 80034b2:	4620      	mov	r0, r4
 80034b4:	f7fd fcb6 	bl	8000e24 <HAL_I2CEx_ConfigAnalogFilter>
 80034b8:	4601      	mov	r1, r0
 80034ba:	b100      	cbz	r0, 80034be <main+0x5e2>
 80034bc:	e7fe      	b.n	80034bc <main+0x5e0>
  if (HAL_I2CEx_ConfigDigitalFilter(&hi2c1, 0) != HAL_OK)
 80034be:	4620      	mov	r0, r4
 80034c0:	f7fd fcda 	bl	8000e78 <HAL_I2CEx_ConfigDigitalFilter>
 80034c4:	4603      	mov	r3, r0
 80034c6:	b100      	cbz	r0, 80034ca <main+0x5ee>
 80034c8:	e7fe      	b.n	80034c8 <main+0x5ec>
  hi2c3.Instance = I2C3;
 80034ca:	4c29      	ldr	r4, [pc, #164]	; (8003570 <main+0x694>)
 80034cc:	4a29      	ldr	r2, [pc, #164]	; (8003574 <main+0x698>)
  if (HAL_I2C_Init(&hi2c3) != HAL_OK)
 80034ce:	4620      	mov	r0, r4
  hi2c3.Init.Timing = 0x00A0A3F7;
 80034d0:	6065      	str	r5, [r4, #4]
  hi2c3.Init.NoStretchMode = I2C_NOSTRETCH_DISABLE;
 80034d2:	6223      	str	r3, [r4, #32]
  hi2c3.Instance = I2C3;
 80034d4:	6022      	str	r2, [r4, #0]
  hi2c3.Init.AddressingMode = I2C_ADDRESSINGMODE_7BIT;
 80034d6:	e9c4 3602 	strd	r3, r6, [r4, #8]
  hi2c3.Init.OwnAddress2 = 0;
 80034da:	e9c4 3304 	strd	r3, r3, [r4, #16]
  hi2c3.Init.GeneralCallMode = I2C_GENERALCALL_DISABLE;
 80034de:	e9c4 3306 	strd	r3, r3, [r4, #24]
  if (HAL_I2C_Init(&hi2c3) != HAL_OK)
 80034e2:	f7fd fc4b 	bl	8000d7c <HAL_I2C_Init>
 80034e6:	4601      	mov	r1, r0
 80034e8:	b100      	cbz	r0, 80034ec <main+0x610>
 80034ea:	e7fe      	b.n	80034ea <main+0x60e>
  if (HAL_I2CEx_ConfigAnalogFilter(&hi2c3, I2C_ANALOGFILTER_ENABLE) != HAL_OK)
 80034ec:	4620      	mov	r0, r4
 80034ee:	f7fd fc99 	bl	8000e24 <HAL_I2CEx_ConfigAnalogFilter>
 80034f2:	4601      	mov	r1, r0
 80034f4:	b100      	cbz	r0, 80034f8 <main+0x61c>
 80034f6:	e7fe      	b.n	80034f6 <main+0x61a>
  if (HAL_I2CEx_ConfigDigitalFilter(&hi2c3, 0) != HAL_OK)
 80034f8:	4620      	mov	r0, r4
 80034fa:	f7fd fcbd 	bl	8000e78 <HAL_I2CEx_ConfigDigitalFilter>
 80034fe:	4602      	mov	r2, r0
 8003500:	b100      	cbz	r0, 8003504 <main+0x628>
 8003502:	e7fe      	b.n	8003502 <main+0x626>
  hqspi.Instance = QUADSPI;
 8003504:	4b1c      	ldr	r3, [pc, #112]	; (8003578 <main+0x69c>)
  hqspi.Init.ClockPrescaler = 255;
 8003506:	21ff      	movs	r1, #255	; 0xff
  hqspi.Instance = QUADSPI;
 8003508:	4c1c      	ldr	r4, [pc, #112]	; (800357c <main+0x6a0>)
  if (HAL_QSPI_Init(&hqspi) != HAL_OK)
 800350a:	4618      	mov	r0, r3
  hqspi.Init.FifoThreshold = 1;
 800350c:	609e      	str	r6, [r3, #8]
  hqspi.Init.FlashSize = 1;
 800350e:	e9c3 2603 	strd	r2, r6, [r3, #12]
  hqspi.Init.ClockMode = QSPI_CLOCK_MODE_0;
 8003512:	e9c3 2205 	strd	r2, r2, [r3, #20]
  hqspi.Init.DualFlash = QSPI_DUALFLASH_DISABLE;
 8003516:	e9c3 2207 	strd	r2, r2, [r3, #28]
  hqspi.Init.ClockPrescaler = 255;
 800351a:	e9c3 4100 	strd	r4, r1, [r3]
  if (HAL_QSPI_Init(&hqspi) != HAL_OK)
 800351e:	f7fd fd05 	bl	8000f2c <HAL_QSPI_Init>
 8003522:	b368      	cbz	r0, 8003580 <main+0x6a4>
 8003524:	e7fe      	b.n	8003524 <main+0x648>
 8003526:	bf00      	nop
 8003528:	40021400 	.word	0x40021400
 800352c:	40022000 	.word	0x40022000
 8003530:	40022800 	.word	0x40022800
 8003534:	40020c00 	.word	0x40020c00
 8003538:	40021c00 	.word	0x40021c00
 800353c:	10120000 	.word	0x10120000
 8003540:	10310000 	.word	0x10310000
 8003544:	40021800 	.word	0x40021800
 8003548:	40020800 	.word	0x40020800
 800354c:	40020000 	.word	0x40020000
 8003550:	20000534 	.word	0x20000534
 8003554:	40012200 	.word	0x40012200
 8003558:	0f000001 	.word	0x0f000001
 800355c:	2000057c 	.word	0x2000057c
 8003560:	50050000 	.word	0x50050000
 8003564:	20000468 	.word	0x20000468
 8003568:	40005400 	.word	0x40005400
 800356c:	00a0a3f7 	.word	0x00a0a3f7
 8003570:	20000378 	.word	0x20000378
 8003574:	40005c00 	.word	0x40005c00
 8003578:	2000076c 	.word	0x2000076c
 800357c:	a0001000 	.word	0xa0001000
  RTC_TimeTypeDef sTime = {0};
 8003580:	2500      	movs	r5, #0
  hrtc.Instance = RTC;
 8003582:	4ca4      	ldr	r4, [pc, #656]	; (8003814 <main+0x938>)
  RTC_AlarmTypeDef sAlarm = {0};
 8003584:	222c      	movs	r2, #44	; 0x2c
 8003586:	a815      	add	r0, sp, #84	; 0x54
 8003588:	4629      	mov	r1, r5
  RTC_TimeTypeDef sTime = {0};
 800358a:	950f      	str	r5, [sp, #60]	; 0x3c
  RTC_DateTypeDef sDate = {0};
 800358c:	950c      	str	r5, [sp, #48]	; 0x30
  RTC_TimeTypeDef sTime = {0};
 800358e:	9514      	str	r5, [sp, #80]	; 0x50
 8003590:	e9cd 5510 	strd	r5, r5, [sp, #64]	; 0x40
 8003594:	e9cd 5512 	strd	r5, r5, [sp, #72]	; 0x48
  RTC_AlarmTypeDef sAlarm = {0};
 8003598:	f002 f9a0 	bl	80058dc <memset>
  hrtc.Init.SynchPrediv = 255;
 800359c:	23ff      	movs	r3, #255	; 0xff
  hrtc.Instance = RTC;
 800359e:	499e      	ldr	r1, [pc, #632]	; (8003818 <main+0x93c>)
  hrtc.Init.AsynchPrediv = 127;
 80035a0:	227f      	movs	r2, #127	; 0x7f
  if (HAL_RTC_Init(&hrtc) != HAL_OK)
 80035a2:	4620      	mov	r0, r4
  hrtc.Init.HourFormat = RTC_HOURFORMAT_24;
 80035a4:	6065      	str	r5, [r4, #4]
  hrtc.Init.OutPut = RTC_OUTPUT_DISABLE;
 80035a6:	6125      	str	r5, [r4, #16]
  hrtc.Instance = RTC;
 80035a8:	6021      	str	r1, [r4, #0]
  hrtc.Init.SynchPrediv = 255;
 80035aa:	e9c4 2302 	strd	r2, r3, [r4, #8]
  hrtc.Init.OutPutType = RTC_OUTPUT_TYPE_OPENDRAIN;
 80035ae:	e9c4 5505 	strd	r5, r5, [r4, #20]
  if (HAL_RTC_Init(&hrtc) != HAL_OK)
 80035b2:	f7fe fb91 	bl	8001cd8 <HAL_RTC_Init>
 80035b6:	4603      	mov	r3, r0
 80035b8:	b100      	cbz	r0, 80035bc <main+0x6e0>
 80035ba:	e7fe      	b.n	80035ba <main+0x6de>
  if (HAL_RTC_SetTime(&hrtc, &sTime, RTC_FORMAT_BCD) != HAL_OK)
 80035bc:	2201      	movs	r2, #1
 80035be:	a90f      	add	r1, sp, #60	; 0x3c
 80035c0:	4620      	mov	r0, r4
  sTime.Hours = 0x0;
 80035c2:	f8ad 303c 	strh.w	r3, [sp, #60]	; 0x3c
  sTime.Minutes = 0x0;
 80035c6:	f88d 303e 	strb.w	r3, [sp, #62]	; 0x3e
  sTime.StoreOperation = RTC_STOREOPERATION_RESET;
 80035ca:	e9cd 3313 	strd	r3, r3, [sp, #76]	; 0x4c
  if (HAL_RTC_SetTime(&hrtc, &sTime, RTC_FORMAT_BCD) != HAL_OK)
 80035ce:	f7fe fbcb 	bl	8001d68 <HAL_RTC_SetTime>
 80035d2:	b100      	cbz	r0, 80035d6 <main+0x6fa>
 80035d4:	e7fe      	b.n	80035d4 <main+0x6f8>
  sDate.WeekDay = RTC_WEEKDAY_MONDAY;
 80035d6:	4b91      	ldr	r3, [pc, #580]	; (800381c <main+0x940>)
 80035d8:	ad20      	add	r5, sp, #128	; 0x80
  if (HAL_RTC_SetDate(&hrtc, &sDate, RTC_FORMAT_BCD) != HAL_OK)
 80035da:	2201      	movs	r2, #1
 80035dc:	4620      	mov	r0, r4
  sDate.WeekDay = RTC_WEEKDAY_MONDAY;
 80035de:	f845 3d50 	str.w	r3, [r5, #-80]!
  if (HAL_RTC_SetDate(&hrtc, &sDate, RTC_FORMAT_BCD) != HAL_OK)
 80035e2:	4629      	mov	r1, r5
 80035e4:	f7fe fc56 	bl	8001e94 <HAL_RTC_SetDate>
 80035e8:	4603      	mov	r3, r0
 80035ea:	b100      	cbz	r0, 80035ee <main+0x712>
 80035ec:	e7fe      	b.n	80035ec <main+0x710>
  sAlarm.AlarmDateWeekDay = 0x1;
 80035ee:	2601      	movs	r6, #1
  sAlarm.Alarm = RTC_ALARM_A;
 80035f0:	f44f 7780 	mov.w	r7, #256	; 0x100
  if (HAL_RTC_SetAlarm(&hrtc, &sAlarm, RTC_FORMAT_BCD) != HAL_OK)
 80035f4:	a915      	add	r1, sp, #84	; 0x54
 80035f6:	4620      	mov	r0, r4
 80035f8:	4632      	mov	r2, r6
  sAlarm.AlarmTime.Hours = 0x0;
 80035fa:	f8ad 3054 	strh.w	r3, [sp, #84]	; 0x54
  sAlarm.AlarmTime.Minutes = 0x0;
 80035fe:	f88d 3056 	strb.w	r3, [sp, #86]	; 0x56
  sAlarm.AlarmTime.SubSeconds = 0x0;
 8003602:	9316      	str	r3, [sp, #88]	; 0x58
  sAlarm.AlarmDateWeekDaySel = RTC_ALARMDATEWEEKDAYSEL_DATE;
 8003604:	931d      	str	r3, [sp, #116]	; 0x74
  sAlarm.AlarmDateWeekDay = 0x1;
 8003606:	f88d 6078 	strb.w	r6, [sp, #120]	; 0x78
  sAlarm.Alarm = RTC_ALARM_A;
 800360a:	971f      	str	r7, [sp, #124]	; 0x7c
  sAlarm.AlarmTime.StoreOperation = RTC_STOREOPERATION_RESET;
 800360c:	e9cd 3319 	strd	r3, r3, [sp, #100]	; 0x64
  sAlarm.AlarmSubSecondMask = RTC_ALARMSUBSECONDMASK_ALL;
 8003610:	e9cd 331b 	strd	r3, r3, [sp, #108]	; 0x6c
  if (HAL_RTC_SetAlarm(&hrtc, &sAlarm, RTC_FORMAT_BCD) != HAL_OK)
 8003614:	f7fe fa4a 	bl	8001aac <HAL_RTC_SetAlarm>
 8003618:	b100      	cbz	r0, 800361c <main+0x740>
 800361a:	e7fe      	b.n	800361a <main+0x73e>
  sAlarm.Alarm = RTC_ALARM_B;
 800361c:	f44f 7700 	mov.w	r7, #512	; 0x200
  if (HAL_RTC_SetAlarm(&hrtc, &sAlarm, RTC_FORMAT_BCD) != HAL_OK)
 8003620:	a915      	add	r1, sp, #84	; 0x54
 8003622:	4632      	mov	r2, r6
 8003624:	4620      	mov	r0, r4
  sAlarm.AlarmDateWeekDay = 0x1;
 8003626:	f88d 6078 	strb.w	r6, [sp, #120]	; 0x78
  sAlarm.Alarm = RTC_ALARM_B;
 800362a:	971f      	str	r7, [sp, #124]	; 0x7c
  if (HAL_RTC_SetAlarm(&hrtc, &sAlarm, RTC_FORMAT_BCD) != HAL_OK)
 800362c:	f7fe fa3e 	bl	8001aac <HAL_RTC_SetAlarm>
 8003630:	4601      	mov	r1, r0
 8003632:	b100      	cbz	r0, 8003636 <main+0x75a>
 8003634:	e7fe      	b.n	8003634 <main+0x758>
  if (HAL_RTCEx_SetTimeStamp(&hrtc, RTC_TIMESTAMPEDGE_RISING, RTC_TIMESTAMPPIN_POS1) != HAL_OK)
 8003636:	4620      	mov	r0, r4
 8003638:	2202      	movs	r2, #2
 800363a:	f7fe fcaf 	bl	8001f9c <HAL_RTCEx_SetTimeStamp>
 800363e:	b100      	cbz	r0, 8003642 <main+0x766>
 8003640:	e7fe      	b.n	8003640 <main+0x764>
  hspi2.Instance = SPI2;
 8003642:	4b77      	ldr	r3, [pc, #476]	; (8003820 <main+0x944>)
  hspi2.Init.CRCPolynomial = 7;
 8003644:	2107      	movs	r1, #7
  hspi2.Instance = SPI2;
 8003646:	f8df c200 	ldr.w	ip, [pc, #512]	; 8003848 <main+0x96c>
  hspi2.Init.NSSPMode = SPI_NSS_PULSE_ENABLE;
 800364a:	2208      	movs	r2, #8
  hspi2.Init.Mode = SPI_MODE_MASTER;
 800364c:	f44f 7682 	mov.w	r6, #260	; 0x104
  hspi2.Init.DataSize = SPI_DATASIZE_4BIT;
 8003650:	f44f 7440 	mov.w	r4, #768	; 0x300
  hspi2.Init.Direction = SPI_DIRECTION_2LINES;
 8003654:	6098      	str	r0, [r3, #8]
  hspi2.Init.CRCLength = SPI_CRC_LENGTH_DATASIZE;
 8003656:	6318      	str	r0, [r3, #48]	; 0x30
  hspi2.Init.NSS = SPI_NSS_SOFT;
 8003658:	619f      	str	r7, [r3, #24]
  hspi2.Init.DataSize = SPI_DATASIZE_4BIT;
 800365a:	60dc      	str	r4, [r3, #12]
  hspi2.Init.CRCPolynomial = 7;
 800365c:	62d9      	str	r1, [r3, #44]	; 0x2c
  hspi2.Init.NSSPMode = SPI_NSS_PULSE_ENABLE;
 800365e:	635a      	str	r2, [r3, #52]	; 0x34
  hspi2.Init.CLKPhase = SPI_PHASE_1EDGE;
 8003660:	e9c3 0004 	strd	r0, r0, [r3, #16]
  hspi2.Init.FirstBit = SPI_FIRSTBIT_MSB;
 8003664:	e9c3 0007 	strd	r0, r0, [r3, #28]
  hspi2.Init.CRCCalculation = SPI_CRCCALCULATION_DISABLE;
 8003668:	e9c3 0009 	strd	r0, r0, [r3, #36]	; 0x24
  if (HAL_SPI_Init(&hspi2) != HAL_OK)
 800366c:	4618      	mov	r0, r3
  hspi2.Init.Mode = SPI_MODE_MASTER;
 800366e:	e9c3 c600 	strd	ip, r6, [r3]
  if (HAL_SPI_Init(&hspi2) != HAL_OK)
 8003672:	f7fe fcbd 	bl	8001ff0 <HAL_SPI_Init>
 8003676:	4603      	mov	r3, r0
 8003678:	b100      	cbz	r0, 800367c <main+0x7a0>
 800367a:	e7fe      	b.n	800367a <main+0x79e>
  htim1.Instance = TIM1;
 800367c:	4c69      	ldr	r4, [pc, #420]	; (8003824 <main+0x948>)
 800367e:	4a6a      	ldr	r2, [pc, #424]	; (8003828 <main+0x94c>)
  TIM_ClockConfigTypeDef sClockSourceConfig = {0};
 8003680:	9015      	str	r0, [sp, #84]	; 0x54
  if (HAL_TIM_Base_Init(&htim1) != HAL_OK)
 8003682:	4620      	mov	r0, r4
  TIM_ClockConfigTypeDef sClockSourceConfig = {0};
 8003684:	9318      	str	r3, [sp, #96]	; 0x60
  TIM_MasterConfigTypeDef sMasterConfig = {0};
 8003686:	9311      	str	r3, [sp, #68]	; 0x44
  htim1.Instance = TIM1;
 8003688:	6022      	str	r2, [r4, #0]
  TIM_ClockConfigTypeDef sClockSourceConfig = {0};
 800368a:	e9cd 3316 	strd	r3, r3, [sp, #88]	; 0x58
  TIM_MasterConfigTypeDef sMasterConfig = {0};
 800368e:	e9cd 330f 	strd	r3, r3, [sp, #60]	; 0x3c
  htim1.Init.CounterMode = TIM_COUNTERMODE_UP;
 8003692:	e9c4 3301 	strd	r3, r3, [r4, #4]
  htim1.Init.ClockDivision = TIM_CLOCKDIVISION_DIV1;
 8003696:	e9c4 3303 	strd	r3, r3, [r4, #12]
  htim1.Init.AutoReloadPreload = TIM_AUTORELOAD_PRELOAD_DISABLE;
 800369a:	e9c4 3305 	strd	r3, r3, [r4, #20]
  if (HAL_TIM_Base_Init(&htim1) != HAL_OK)
 800369e:	f7fe ff05 	bl	80024ac <HAL_TIM_Base_Init>
 80036a2:	b100      	cbz	r0, 80036a6 <main+0x7ca>
 80036a4:	e7fe      	b.n	80036a4 <main+0x7c8>
  sClockSourceConfig.ClockSource = TIM_CLOCKSOURCE_INTERNAL;
 80036a6:	f44f 5380 	mov.w	r3, #4096	; 0x1000
  if (HAL_TIM_ConfigClockSource(&htim1, &sClockSourceConfig) != HAL_OK)
 80036aa:	a915      	add	r1, sp, #84	; 0x54
 80036ac:	4620      	mov	r0, r4
  sClockSourceConfig.ClockSource = TIM_CLOCKSOURCE_INTERNAL;
 80036ae:	9315      	str	r3, [sp, #84]	; 0x54
  if (HAL_TIM_ConfigClockSource(&htim1, &sClockSourceConfig) != HAL_OK)
 80036b0:	f7fe fde4 	bl	800227c <HAL_TIM_ConfigClockSource>
 80036b4:	4603      	mov	r3, r0
 80036b6:	b100      	cbz	r0, 80036ba <main+0x7de>
 80036b8:	e7fe      	b.n	80036b8 <main+0x7dc>
  if (HAL_TIMEx_MasterConfigSynchronization(&htim1, &sMasterConfig) != HAL_OK)
 80036ba:	4620      	mov	r0, r4
 80036bc:	a90f      	add	r1, sp, #60	; 0x3c
  sMasterConfig.MasterSlaveMode = TIM_MASTERSLAVEMODE_DISABLE;
 80036be:	9311      	str	r3, [sp, #68]	; 0x44
  sMasterConfig.MasterOutputTrigger2 = TIM_TRGO2_RESET;
 80036c0:	e9cd 330f 	strd	r3, r3, [sp, #60]	; 0x3c
  if (HAL_TIMEx_MasterConfigSynchronization(&htim1, &sMasterConfig) != HAL_OK)
 80036c4:	f7fe fff4 	bl	80026b0 <HAL_TIMEx_MasterConfigSynchronization>
 80036c8:	b100      	cbz	r0, 80036cc <main+0x7f0>
 80036ca:	e7fe      	b.n	80036ca <main+0x7ee>
  htim2.Instance = TIM2;
 80036cc:	4c57      	ldr	r4, [pc, #348]	; (800382c <main+0x950>)
  TIM_ClockConfigTypeDef sClockSourceConfig = {0};
 80036ce:	2300      	movs	r3, #0
  htim2.Instance = TIM2;
 80036d0:	f04f 4280 	mov.w	r2, #1073741824	; 0x40000000
  if (HAL_TIM_Base_Init(&htim2) != HAL_OK)
 80036d4:	4620      	mov	r0, r4
  TIM_MasterConfigTypeDef sMasterConfig = {0};
 80036d6:	9311      	str	r3, [sp, #68]	; 0x44
  htim2.Init.ClockDivision = TIM_CLOCKDIVISION_DIV1;
 80036d8:	6123      	str	r3, [r4, #16]
  htim2.Init.AutoReloadPreload = TIM_AUTORELOAD_PRELOAD_DISABLE;
 80036da:	61a3      	str	r3, [r4, #24]
  htim2.Init.Prescaler = 0;
 80036dc:	e9c4 2300 	strd	r2, r3, [r4]
  TIM_ClockConfigTypeDef sClockSourceConfig = {0};
 80036e0:	e9cd 3315 	strd	r3, r3, [sp, #84]	; 0x54
 80036e4:	e9cd 3317 	strd	r3, r3, [sp, #92]	; 0x5c
  TIM_MasterConfigTypeDef sMasterConfig = {0};
 80036e8:	e9cd 330f 	strd	r3, r3, [sp, #60]	; 0x3c
  htim2.Init.Period = 0;
 80036ec:	e9c4 3302 	strd	r3, r3, [r4, #8]
  if (HAL_TIM_Base_Init(&htim2) != HAL_OK)
 80036f0:	f7fe fedc 	bl	80024ac <HAL_TIM_Base_Init>
 80036f4:	b100      	cbz	r0, 80036f8 <main+0x81c>
 80036f6:	e7fe      	b.n	80036f6 <main+0x81a>
  sClockSourceConfig.ClockSource = TIM_CLOCKSOURCE_INTERNAL;
 80036f8:	f44f 5680 	mov.w	r6, #4096	; 0x1000
  if (HAL_TIM_ConfigClockSource(&htim2, &sClockSourceConfig) != HAL_OK)
 80036fc:	a915      	add	r1, sp, #84	; 0x54
 80036fe:	4620      	mov	r0, r4
  sClockSourceConfig.ClockSource = TIM_CLOCKSOURCE_INTERNAL;
 8003700:	9615      	str	r6, [sp, #84]	; 0x54
  if (HAL_TIM_ConfigClockSource(&htim2, &sClockSourceConfig) != HAL_OK)
 8003702:	f7fe fdbb 	bl	800227c <HAL_TIM_ConfigClockSource>
 8003706:	4603      	mov	r3, r0
 8003708:	b100      	cbz	r0, 800370c <main+0x830>
 800370a:	e7fe      	b.n	800370a <main+0x82e>
  if (HAL_TIMEx_MasterConfigSynchronization(&htim2, &sMasterConfig) != HAL_OK)
 800370c:	4620      	mov	r0, r4
 800370e:	a90f      	add	r1, sp, #60	; 0x3c
  sMasterConfig.MasterOutputTrigger = TIM_TRGO_RESET;
 8003710:	930f      	str	r3, [sp, #60]	; 0x3c
  sMasterConfig.MasterSlaveMode = TIM_MASTERSLAVEMODE_DISABLE;
 8003712:	9311      	str	r3, [sp, #68]	; 0x44
  if (HAL_TIMEx_MasterConfigSynchronization(&htim2, &sMasterConfig) != HAL_OK)
 8003714:	f7fe ffcc 	bl	80026b0 <HAL_TIMEx_MasterConfigSynchronization>
 8003718:	4603      	mov	r3, r0
 800371a:	b100      	cbz	r0, 800371e <main+0x842>
 800371c:	e7fe      	b.n	800371c <main+0x840>
  htim3.Instance = TIM3;
 800371e:	4c44      	ldr	r4, [pc, #272]	; (8003830 <main+0x954>)
 8003720:	4a44      	ldr	r2, [pc, #272]	; (8003834 <main+0x958>)
  TIM_ClockConfigTypeDef sClockSourceConfig = {0};
 8003722:	9015      	str	r0, [sp, #84]	; 0x54
  if (HAL_TIM_Base_Init(&htim3) != HAL_OK)
 8003724:	4620      	mov	r0, r4
  TIM_ClockConfigTypeDef sClockSourceConfig = {0};
 8003726:	9318      	str	r3, [sp, #96]	; 0x60
  TIM_MasterConfigTypeDef sMasterConfig = {0};
 8003728:	9311      	str	r3, [sp, #68]	; 0x44
  htim3.Init.AutoReloadPreload = TIM_AUTORELOAD_PRELOAD_DISABLE;
 800372a:	61a3      	str	r3, [r4, #24]
  htim3.Instance = TIM3;
 800372c:	6022      	str	r2, [r4, #0]
  TIM_ClockConfigTypeDef sClockSourceConfig = {0};
 800372e:	e9cd 3316 	strd	r3, r3, [sp, #88]	; 0x58
  TIM_MasterConfigTypeDef sMasterConfig = {0};
 8003732:	e9cd 330f 	strd	r3, r3, [sp, #60]	; 0x3c
  htim3.Init.CounterMode = TIM_COUNTERMODE_UP;
 8003736:	e9c4 3301 	strd	r3, r3, [r4, #4]
  htim3.Init.ClockDivision = TIM_CLOCKDIVISION_DIV1;
 800373a:	e9c4 3303 	strd	r3, r3, [r4, #12]
  if (HAL_TIM_Base_Init(&htim3) != HAL_OK)
 800373e:	f7fe feb5 	bl	80024ac <HAL_TIM_Base_Init>
 8003742:	b100      	cbz	r0, 8003746 <main+0x86a>
 8003744:	e7fe      	b.n	8003744 <main+0x868>
  if (HAL_TIM_ConfigClockSource(&htim3, &sClockSourceConfig) != HAL_OK)
 8003746:	a915      	add	r1, sp, #84	; 0x54
 8003748:	4620      	mov	r0, r4
  sClockSourceConfig.ClockSource = TIM_CLOCKSOURCE_INTERNAL;
 800374a:	9615      	str	r6, [sp, #84]	; 0x54
  if (HAL_TIM_ConfigClockSource(&htim3, &sClockSourceConfig) != HAL_OK)
 800374c:	f7fe fd96 	bl	800227c <HAL_TIM_ConfigClockSource>
 8003750:	4603      	mov	r3, r0
 8003752:	b100      	cbz	r0, 8003756 <main+0x87a>
 8003754:	e7fe      	b.n	8003754 <main+0x878>
  if (HAL_TIMEx_MasterConfigSynchronization(&htim3, &sMasterConfig) != HAL_OK)
 8003756:	4620      	mov	r0, r4
 8003758:	a90f      	add	r1, sp, #60	; 0x3c
  sMasterConfig.MasterOutputTrigger = TIM_TRGO_RESET;
 800375a:	930f      	str	r3, [sp, #60]	; 0x3c
  sMasterConfig.MasterSlaveMode = TIM_MASTERSLAVEMODE_DISABLE;
 800375c:	9311      	str	r3, [sp, #68]	; 0x44
  if (HAL_TIMEx_MasterConfigSynchronization(&htim3, &sMasterConfig) != HAL_OK)
 800375e:	f7fe ffa7 	bl	80026b0 <HAL_TIMEx_MasterConfigSynchronization>
 8003762:	4603      	mov	r3, r0
 8003764:	b100      	cbz	r0, 8003768 <main+0x88c>
 8003766:	e7fe      	b.n	8003766 <main+0x88a>
  htim5.Instance = TIM5;
 8003768:	4c33      	ldr	r4, [pc, #204]	; (8003838 <main+0x95c>)
 800376a:	4a34      	ldr	r2, [pc, #208]	; (800383c <main+0x960>)
  TIM_ClockConfigTypeDef sClockSourceConfig = {0};
 800376c:	900f      	str	r0, [sp, #60]	; 0x3c
  if (HAL_TIM_Base_Init(&htim5) != HAL_OK)
 800376e:	4620      	mov	r0, r4
  TIM_ClockConfigTypeDef sClockSourceConfig = {0};
 8003770:	9312      	str	r3, [sp, #72]	; 0x48
  TIM_MasterConfigTypeDef sMasterConfig = {0};
 8003772:	930c      	str	r3, [sp, #48]	; 0x30
  TIM_OC_InitTypeDef sConfigOC = {0};
 8003774:	931b      	str	r3, [sp, #108]	; 0x6c
  htim5.Init.AutoReloadPreload = TIM_AUTORELOAD_PRELOAD_DISABLE;
 8003776:	61a3      	str	r3, [r4, #24]
  htim5.Instance = TIM5;
 8003778:	6022      	str	r2, [r4, #0]
  TIM_ClockConfigTypeDef sClockSourceConfig = {0};
 800377a:	e9cd 3310 	strd	r3, r3, [sp, #64]	; 0x40
  TIM_MasterConfigTypeDef sMasterConfig = {0};
 800377e:	e9c5 3301 	strd	r3, r3, [r5, #4]
  TIM_OC_InitTypeDef sConfigOC = {0};
 8003782:	e9cd 3315 	strd	r3, r3, [sp, #84]	; 0x54
 8003786:	e9cd 3317 	strd	r3, r3, [sp, #92]	; 0x5c
 800378a:	e9cd 3319 	strd	r3, r3, [sp, #100]	; 0x64
  htim5.Init.CounterMode = TIM_COUNTERMODE_UP;
 800378e:	e9c4 3301 	strd	r3, r3, [r4, #4]
  htim5.Init.ClockDivision = TIM_CLOCKDIVISION_DIV1;
 8003792:	e9c4 3303 	strd	r3, r3, [r4, #12]
  if (HAL_TIM_Base_Init(&htim5) != HAL_OK)
 8003796:	f7fe fe89 	bl	80024ac <HAL_TIM_Base_Init>
 800379a:	b100      	cbz	r0, 800379e <main+0x8c2>
 800379c:	e7fe      	b.n	800379c <main+0x8c0>
  if (HAL_TIM_ConfigClockSource(&htim5, &sClockSourceConfig) != HAL_OK)
 800379e:	a90f      	add	r1, sp, #60	; 0x3c
 80037a0:	4620      	mov	r0, r4
  sClockSourceConfig.ClockSource = TIM_CLOCKSOURCE_INTERNAL;
 80037a2:	960f      	str	r6, [sp, #60]	; 0x3c
  if (HAL_TIM_ConfigClockSource(&htim5, &sClockSourceConfig) != HAL_OK)
 80037a4:	f7fe fd6a 	bl	800227c <HAL_TIM_ConfigClockSource>
 80037a8:	b100      	cbz	r0, 80037ac <main+0x8d0>
 80037aa:	e7fe      	b.n	80037aa <main+0x8ce>
  if (HAL_TIM_PWM_Init(&htim5) != HAL_OK)
 80037ac:	4620      	mov	r0, r4
 80037ae:	f7fe fe99 	bl	80024e4 <HAL_TIM_PWM_Init>
 80037b2:	4603      	mov	r3, r0
 80037b4:	b100      	cbz	r0, 80037b8 <main+0x8dc>
 80037b6:	e7fe      	b.n	80037b6 <main+0x8da>
  if (HAL_TIMEx_MasterConfigSynchronization(&htim5, &sMasterConfig) != HAL_OK)
 80037b8:	4629      	mov	r1, r5
 80037ba:	4620      	mov	r0, r4
  sMasterConfig.MasterOutputTrigger = TIM_TRGO_RESET;
 80037bc:	930c      	str	r3, [sp, #48]	; 0x30
  sMasterConfig.MasterSlaveMode = TIM_MASTERSLAVEMODE_DISABLE;
 80037be:	930e      	str	r3, [sp, #56]	; 0x38
  if (HAL_TIMEx_MasterConfigSynchronization(&htim5, &sMasterConfig) != HAL_OK)
 80037c0:	f7fe ff76 	bl	80026b0 <HAL_TIMEx_MasterConfigSynchronization>
 80037c4:	b100      	cbz	r0, 80037c8 <main+0x8ec>
 80037c6:	e7fe      	b.n	80037c6 <main+0x8ea>
  sConfigOC.OCMode = TIM_OCMODE_PWM1;
 80037c8:	2060      	movs	r0, #96	; 0x60
  sConfigOC.Pulse = 0;
 80037ca:	2300      	movs	r3, #0
  if (HAL_TIM_PWM_ConfigChannel(&htim5, &sConfigOC, TIM_CHANNEL_4) != HAL_OK)
 80037cc:	220c      	movs	r2, #12
 80037ce:	a915      	add	r1, sp, #84	; 0x54
  sConfigOC.OCMode = TIM_OCMODE_PWM1;
 80037d0:	9015      	str	r0, [sp, #84]	; 0x54
  if (HAL_TIM_PWM_ConfigChannel(&htim5, &sConfigOC, TIM_CHANNEL_4) != HAL_OK)
 80037d2:	4819      	ldr	r0, [pc, #100]	; (8003838 <main+0x95c>)
  sConfigOC.OCFastMode = TIM_OCFAST_DISABLE;
 80037d4:	9319      	str	r3, [sp, #100]	; 0x64
  sConfigOC.OCPolarity = TIM_OCPOLARITY_HIGH;
 80037d6:	e9cd 3316 	strd	r3, r3, [sp, #88]	; 0x58
  if (HAL_TIM_PWM_ConfigChannel(&htim5, &sConfigOC, TIM_CHANNEL_4) != HAL_OK)
 80037da:	f7fe fed3 	bl	8002584 <HAL_TIM_PWM_ConfigChannel>
 80037de:	4604      	mov	r4, r0
 80037e0:	b100      	cbz	r0, 80037e4 <main+0x908>
 80037e2:	e7fe      	b.n	80037e2 <main+0x906>
  htim8.Instance = TIM8;
 80037e4:	4d16      	ldr	r5, [pc, #88]	; (8003840 <main+0x964>)
  HAL_TIM_MspPostInit(&htim5);
 80037e6:	4814      	ldr	r0, [pc, #80]	; (8003838 <main+0x95c>)
 80037e8:	f000 fae0 	bl	8003dac <HAL_TIM_MspPostInit>
  htim8.Instance = TIM8;
 80037ec:	4b15      	ldr	r3, [pc, #84]	; (8003844 <main+0x968>)
  if (HAL_TIM_Base_Init(&htim8) != HAL_OK)
 80037ee:	4628      	mov	r0, r5
  TIM_MasterConfigTypeDef sMasterConfig = {0};
 80037f0:	9411      	str	r4, [sp, #68]	; 0x44
  htim8.Instance = TIM8;
 80037f2:	602b      	str	r3, [r5, #0]
  TIM_ClockConfigTypeDef sClockSourceConfig = {0};
 80037f4:	e9cd 4415 	strd	r4, r4, [sp, #84]	; 0x54
 80037f8:	e9cd 4417 	strd	r4, r4, [sp, #92]	; 0x5c
  TIM_MasterConfigTypeDef sMasterConfig = {0};
 80037fc:	e9cd 440f 	strd	r4, r4, [sp, #60]	; 0x3c
  htim8.Init.CounterMode = TIM_COUNTERMODE_UP;
 8003800:	e9c5 4401 	strd	r4, r4, [r5, #4]
  htim8.Init.ClockDivision = TIM_CLOCKDIVISION_DIV1;
 8003804:	e9c5 4403 	strd	r4, r4, [r5, #12]
  htim8.Init.AutoReloadPreload = TIM_AUTORELOAD_PRELOAD_DISABLE;
 8003808:	e9c5 4405 	strd	r4, r4, [r5, #20]
  if (HAL_TIM_Base_Init(&htim8) != HAL_OK)
 800380c:	f7fe fe4e 	bl	80024ac <HAL_TIM_Base_Init>
 8003810:	b1e0      	cbz	r0, 800384c <main+0x970>
 8003812:	e7fe      	b.n	8003812 <main+0x936>
 8003814:	2000064c 	.word	0x2000064c
 8003818:	40002800 	.word	0x40002800
 800381c:	00010101 	.word	0x00010101
 8003820:	200003c4 	.word	0x200003c4
 8003824:	2000066c 	.word	0x2000066c
 8003828:	40010000 	.word	0x40010000
 800382c:	2000072c 	.word	0x2000072c
 8003830:	200004f4 	.word	0x200004f4
 8003834:	40000400 	.word	0x40000400
 8003838:	200004b4 	.word	0x200004b4
 800383c:	40000c00 	.word	0x40000c00
 8003840:	20000428 	.word	0x20000428
 8003844:	40010400 	.word	0x40010400
 8003848:	40003800 	.word	0x40003800
  sClockSourceConfig.ClockSource = TIM_CLOCKSOURCE_INTERNAL;
 800384c:	f44f 5380 	mov.w	r3, #4096	; 0x1000
  if (HAL_TIM_ConfigClockSource(&htim8, &sClockSourceConfig) != HAL_OK)
 8003850:	a915      	add	r1, sp, #84	; 0x54
 8003852:	4628      	mov	r0, r5
  sClockSourceConfig.ClockSource = TIM_CLOCKSOURCE_INTERNAL;
 8003854:	9315      	str	r3, [sp, #84]	; 0x54
  if (HAL_TIM_ConfigClockSource(&htim8, &sClockSourceConfig) != HAL_OK)
 8003856:	f7fe fd11 	bl	800227c <HAL_TIM_ConfigClockSource>
 800385a:	4603      	mov	r3, r0
 800385c:	b100      	cbz	r0, 8003860 <main+0x984>
 800385e:	e7fe      	b.n	800385e <main+0x982>
  if (HAL_TIMEx_MasterConfigSynchronization(&htim8, &sMasterConfig) != HAL_OK)
 8003860:	a90f      	add	r1, sp, #60	; 0x3c
 8003862:	4628      	mov	r0, r5
  sMasterConfig.MasterSlaveMode = TIM_MASTERSLAVEMODE_DISABLE;
 8003864:	9311      	str	r3, [sp, #68]	; 0x44
  sMasterConfig.MasterOutputTrigger2 = TIM_TRGO2_RESET;
 8003866:	e9cd 330f 	strd	r3, r3, [sp, #60]	; 0x3c
  if (HAL_TIMEx_MasterConfigSynchronization(&htim8, &sMasterConfig) != HAL_OK)
 800386a:	f7fe ff21 	bl	80026b0 <HAL_TIMEx_MasterConfigSynchronization>
 800386e:	4602      	mov	r2, r0
 8003870:	b100      	cbz	r0, 8003874 <main+0x998>
 8003872:	e7fe      	b.n	8003872 <main+0x996>
  huart1.Instance = USART1;
 8003874:	4b17      	ldr	r3, [pc, #92]	; (80038d4 <main+0x9f8>)
  huart1.Init.BaudRate = 115200;
 8003876:	f44f 35e1 	mov.w	r5, #115200	; 0x1c200
  huart1.Instance = USART1;
 800387a:	4917      	ldr	r1, [pc, #92]	; (80038d8 <main+0x9fc>)
  huart1.Init.Mode = UART_MODE_TX_RX;
 800387c:	240c      	movs	r4, #12
  if (HAL_UART_Init(&huart1) != HAL_OK)
 800387e:	4618      	mov	r0, r3
  huart1.Init.Parity = UART_PARITY_NONE;
 8003880:	611a      	str	r2, [r3, #16]
  huart1.Init.Mode = UART_MODE_TX_RX;
 8003882:	615c      	str	r4, [r3, #20]
  huart1.Init.StopBits = UART_STOPBITS_1;
 8003884:	e9c3 2202 	strd	r2, r2, [r3, #8]
  huart1.Init.OverSampling = UART_OVERSAMPLING_16;
 8003888:	e9c3 2206 	strd	r2, r2, [r3, #24]
  huart1.AdvancedInit.AdvFeatureInit = UART_ADVFEATURE_NO_INIT;
 800388c:	e9c3 2208 	strd	r2, r2, [r3, #32]
  huart1.Init.BaudRate = 115200;
 8003890:	e9c3 1500 	strd	r1, r5, [r3]
  if (HAL_UART_Init(&huart1) != HAL_OK)
 8003894:	f7ff fa72 	bl	8002d7c <HAL_UART_Init>
 8003898:	4602      	mov	r2, r0
 800389a:	b100      	cbz	r0, 800389e <main+0x9c2>
 800389c:	e7fe      	b.n	800389c <main+0x9c0>
  huart6.Instance = USART6;
 800389e:	4b0f      	ldr	r3, [pc, #60]	; (80038dc <main+0xa00>)
 80038a0:	490f      	ldr	r1, [pc, #60]	; (80038e0 <main+0xa04>)
  if (HAL_UART_Init(&huart6) != HAL_OK)
 80038a2:	4618      	mov	r0, r3
  huart6.AdvancedInit.AdvFeatureInit = UART_ADVFEATURE_NO_INIT;
 80038a4:	625a      	str	r2, [r3, #36]	; 0x24
  huart6.Instance = USART6;
 80038a6:	6019      	str	r1, [r3, #0]
  huart6.Init.WordLength = UART_WORDLENGTH_8B;
 80038a8:	e9c3 5201 	strd	r5, r2, [r3, #4]
  huart6.Init.Parity = UART_PARITY_NONE;
 80038ac:	e9c3 2203 	strd	r2, r2, [r3, #12]
  huart6.Init.HwFlowCtl = UART_HWCONTROL_NONE;
 80038b0:	e9c3 4205 	strd	r4, r2, [r3, #20]
  huart6.Init.OneBitSampling = UART_ONE_BIT_SAMPLE_DISABLE;
 80038b4:	e9c3 2207 	strd	r2, r2, [r3, #28]
  if (HAL_UART_Init(&huart6) != HAL_OK)
 80038b8:	f7ff fa60 	bl	8002d7c <HAL_UART_Init>
 80038bc:	b100      	cbz	r0, 80038c0 <main+0x9e4>
 80038be:	e7fe      	b.n	80038be <main+0x9e2>
  XF_initialize(10);
 80038c0:	200a      	movs	r0, #10
 80038c2:	f001 fce1 	bl	8005288 <XF_initialize>
  Factory_initialize();
 80038c6:	f000 fc03 	bl	80040d0 <Factory_initialize>
  Factory_build();
 80038ca:	f000 fc03 	bl	80040d4 <Factory_build>
  XF_exec();
 80038ce:	f001 fd07 	bl	80052e0 <XF_exec>
 80038d2:	e7fe      	b.n	80038d2 <main+0x9f6>
 80038d4:	200005cc 	.word	0x200005cc
 80038d8:	40011000 	.word	0x40011000
 80038dc:	200006ac 	.word	0x200006ac
 80038e0:	40011400 	.word	0x40011400

080038e4 <HAL_MspInit>:
{
  /* USER CODE BEGIN MspInit 0 */

  /* USER CODE END MspInit 0 */

  __HAL_RCC_PWR_CLK_ENABLE();
 80038e4:	4b0a      	ldr	r3, [pc, #40]	; (8003910 <HAL_MspInit+0x2c>)
{
 80038e6:	b082      	sub	sp, #8
  __HAL_RCC_PWR_CLK_ENABLE();
 80038e8:	6c1a      	ldr	r2, [r3, #64]	; 0x40
 80038ea:	f042 5280 	orr.w	r2, r2, #268435456	; 0x10000000
 80038ee:	641a      	str	r2, [r3, #64]	; 0x40
 80038f0:	6c1a      	ldr	r2, [r3, #64]	; 0x40
 80038f2:	f002 5280 	and.w	r2, r2, #268435456	; 0x10000000
 80038f6:	9200      	str	r2, [sp, #0]
 80038f8:	9a00      	ldr	r2, [sp, #0]
  __HAL_RCC_SYSCFG_CLK_ENABLE();
 80038fa:	6c5a      	ldr	r2, [r3, #68]	; 0x44
 80038fc:	f442 4280 	orr.w	r2, r2, #16384	; 0x4000
 8003900:	645a      	str	r2, [r3, #68]	; 0x44
 8003902:	6c5b      	ldr	r3, [r3, #68]	; 0x44
 8003904:	f403 4380 	and.w	r3, r3, #16384	; 0x4000
 8003908:	9301      	str	r3, [sp, #4]
 800390a:	9b01      	ldr	r3, [sp, #4]
  /* System interrupt init*/

  /* USER CODE BEGIN MspInit 1 */

  /* USER CODE END MspInit 1 */
}
 800390c:	b002      	add	sp, #8
 800390e:	4770      	bx	lr
 8003910:	40023800 	.word	0x40023800

08003914 <HAL_ADC_MspInit>:
* @retval None
*/
void HAL_ADC_MspInit(ADC_HandleTypeDef* hadc)
{
  GPIO_InitTypeDef GPIO_InitStruct = {0};
  if(hadc->Instance==ADC3)
 8003914:	6802      	ldr	r2, [r0, #0]
 8003916:	4b1f      	ldr	r3, [pc, #124]	; (8003994 <HAL_ADC_MspInit+0x80>)
{
 8003918:	b530      	push	{r4, r5, lr}
  if(hadc->Instance==ADC3)
 800391a:	429a      	cmp	r2, r3
{
 800391c:	b089      	sub	sp, #36	; 0x24
  GPIO_InitTypeDef GPIO_InitStruct = {0};
 800391e:	f04f 0400 	mov.w	r4, #0
 8003922:	e9cd 4403 	strd	r4, r4, [sp, #12]
 8003926:	e9cd 4405 	strd	r4, r4, [sp, #20]
 800392a:	9407      	str	r4, [sp, #28]
  if(hadc->Instance==ADC3)
 800392c:	d001      	beq.n	8003932 <HAL_ADC_MspInit+0x1e>
  /* USER CODE BEGIN ADC3_MspInit 1 */

  /* USER CODE END ADC3_MspInit 1 */
  }

}
 800392e:	b009      	add	sp, #36	; 0x24
 8003930:	bd30      	pop	{r4, r5, pc}
    __HAL_RCC_ADC3_CLK_ENABLE();
 8003932:	f503 338b 	add.w	r3, r3, #71168	; 0x11600
    GPIO_InitStruct.Pin = ARDUINO_A4_Pin|ARDUINO_A5_Pin|ARDUINO_A1_Pin|ARDUINO_A2_Pin
 8003936:	f44f 60f8 	mov.w	r0, #1984	; 0x7c0
    GPIO_InitStruct.Mode = GPIO_MODE_ANALOG;
 800393a:	2503      	movs	r5, #3
    HAL_GPIO_Init(GPIOF, &GPIO_InitStruct);
 800393c:	a903      	add	r1, sp, #12
    __HAL_RCC_ADC3_CLK_ENABLE();
 800393e:	6c5a      	ldr	r2, [r3, #68]	; 0x44
 8003940:	f442 6280 	orr.w	r2, r2, #1024	; 0x400
 8003944:	645a      	str	r2, [r3, #68]	; 0x44
 8003946:	6c5a      	ldr	r2, [r3, #68]	; 0x44
 8003948:	f402 6280 	and.w	r2, r2, #1024	; 0x400
 800394c:	9200      	str	r2, [sp, #0]
 800394e:	9a00      	ldr	r2, [sp, #0]
    __HAL_RCC_GPIOF_CLK_ENABLE();
 8003950:	6b1a      	ldr	r2, [r3, #48]	; 0x30
 8003952:	f042 0220 	orr.w	r2, r2, #32
 8003956:	631a      	str	r2, [r3, #48]	; 0x30
 8003958:	6b1a      	ldr	r2, [r3, #48]	; 0x30
 800395a:	f002 0220 	and.w	r2, r2, #32
 800395e:	9201      	str	r2, [sp, #4]
 8003960:	9a01      	ldr	r2, [sp, #4]
    __HAL_RCC_GPIOA_CLK_ENABLE();
 8003962:	6b1a      	ldr	r2, [r3, #48]	; 0x30
 8003964:	f042 0201 	orr.w	r2, r2, #1
 8003968:	631a      	str	r2, [r3, #48]	; 0x30
 800396a:	6b1b      	ldr	r3, [r3, #48]	; 0x30
    GPIO_InitStruct.Pin = ARDUINO_A4_Pin|ARDUINO_A5_Pin|ARDUINO_A1_Pin|ARDUINO_A2_Pin
 800396c:	9003      	str	r0, [sp, #12]
    __HAL_RCC_GPIOA_CLK_ENABLE();
 800396e:	f003 0301 	and.w	r3, r3, #1
    HAL_GPIO_Init(GPIOF, &GPIO_InitStruct);
 8003972:	4809      	ldr	r0, [pc, #36]	; (8003998 <HAL_ADC_MspInit+0x84>)
    GPIO_InitStruct.Mode = GPIO_MODE_ANALOG;
 8003974:	9504      	str	r5, [sp, #16]
    __HAL_RCC_GPIOA_CLK_ENABLE();
 8003976:	9302      	str	r3, [sp, #8]
 8003978:	9b02      	ldr	r3, [sp, #8]
    HAL_GPIO_Init(GPIOF, &GPIO_InitStruct);
 800397a:	f7fd f8cb 	bl	8000b14 <HAL_GPIO_Init>
    GPIO_InitStruct.Pin = ARDUINO_A0_Pin;
 800397e:	2301      	movs	r3, #1
    HAL_GPIO_Init(ARDUINO_A0_GPIO_Port, &GPIO_InitStruct);
 8003980:	a903      	add	r1, sp, #12
 8003982:	4806      	ldr	r0, [pc, #24]	; (800399c <HAL_ADC_MspInit+0x88>)
    GPIO_InitStruct.Pin = ARDUINO_A0_Pin;
 8003984:	9303      	str	r3, [sp, #12]
    GPIO_InitStruct.Pull = GPIO_NOPULL;
 8003986:	e9cd 5404 	strd	r5, r4, [sp, #16]
    HAL_GPIO_Init(ARDUINO_A0_GPIO_Port, &GPIO_InitStruct);
 800398a:	f7fd f8c3 	bl	8000b14 <HAL_GPIO_Init>
}
 800398e:	b009      	add	sp, #36	; 0x24
 8003990:	bd30      	pop	{r4, r5, pc}
 8003992:	bf00      	nop
 8003994:	40012200 	.word	0x40012200
 8003998:	40021400 	.word	0x40021400
 800399c:	40020000 	.word	0x40020000

080039a0 <HAL_DCMI_MspInit>:
* @retval None
*/
void HAL_DCMI_MspInit(DCMI_HandleTypeDef* hdcmi)
{
  GPIO_InitTypeDef GPIO_InitStruct = {0};
  if(hdcmi->Instance==DCMI)
 80039a0:	6802      	ldr	r2, [r0, #0]
 80039a2:	4b3d      	ldr	r3, [pc, #244]	; (8003a98 <HAL_DCMI_MspInit+0xf8>)
{
 80039a4:	b570      	push	{r4, r5, r6, lr}
  if(hdcmi->Instance==DCMI)
 80039a6:	429a      	cmp	r2, r3
{
 80039a8:	b08c      	sub	sp, #48	; 0x30
  GPIO_InitTypeDef GPIO_InitStruct = {0};
 80039aa:	f04f 0400 	mov.w	r4, #0
 80039ae:	e9cd 4407 	strd	r4, r4, [sp, #28]
 80039b2:	e9cd 4409 	strd	r4, r4, [sp, #36]	; 0x24
 80039b6:	940b      	str	r4, [sp, #44]	; 0x2c
  if(hdcmi->Instance==DCMI)
 80039b8:	d001      	beq.n	80039be <HAL_DCMI_MspInit+0x1e>
  /* USER CODE BEGIN DCMI_MspInit 1 */

  /* USER CODE END DCMI_MspInit 1 */
  }

}
 80039ba:	b00c      	add	sp, #48	; 0x30
 80039bc:	bd70      	pop	{r4, r5, r6, pc}
    __HAL_RCC_DCMI_CLK_ENABLE();
 80039be:	4b37      	ldr	r3, [pc, #220]	; (8003a9c <HAL_DCMI_MspInit+0xfc>)
    GPIO_InitStruct.Pin = DCMI_D6_Pin|DCMI_D7_Pin;
 80039c0:	2060      	movs	r0, #96	; 0x60
    GPIO_InitStruct.Mode = GPIO_MODE_AF_PP;
 80039c2:	2602      	movs	r6, #2
    GPIO_InitStruct.Alternate = GPIO_AF13_DCMI;
 80039c4:	250d      	movs	r5, #13
    __HAL_RCC_DCMI_CLK_ENABLE();
 80039c6:	6b5a      	ldr	r2, [r3, #52]	; 0x34
    HAL_GPIO_Init(GPIOE, &GPIO_InitStruct);
 80039c8:	a907      	add	r1, sp, #28
    __HAL_RCC_DCMI_CLK_ENABLE();
 80039ca:	f042 0201 	orr.w	r2, r2, #1
 80039ce:	635a      	str	r2, [r3, #52]	; 0x34
 80039d0:	6b5a      	ldr	r2, [r3, #52]	; 0x34
 80039d2:	f002 0201 	and.w	r2, r2, #1
 80039d6:	9201      	str	r2, [sp, #4]
 80039d8:	9a01      	ldr	r2, [sp, #4]
    __HAL_RCC_GPIOE_CLK_ENABLE();
 80039da:	6b1a      	ldr	r2, [r3, #48]	; 0x30
 80039dc:	f042 0210 	orr.w	r2, r2, #16
 80039e0:	631a      	str	r2, [r3, #48]	; 0x30
 80039e2:	6b1a      	ldr	r2, [r3, #48]	; 0x30
 80039e4:	f002 0210 	and.w	r2, r2, #16
 80039e8:	9202      	str	r2, [sp, #8]
 80039ea:	9a02      	ldr	r2, [sp, #8]
    __HAL_RCC_GPIOD_CLK_ENABLE();
 80039ec:	6b1a      	ldr	r2, [r3, #48]	; 0x30
 80039ee:	f042 0208 	orr.w	r2, r2, #8
 80039f2:	631a      	str	r2, [r3, #48]	; 0x30
 80039f4:	6b1a      	ldr	r2, [r3, #48]	; 0x30
 80039f6:	f002 0208 	and.w	r2, r2, #8
 80039fa:	9203      	str	r2, [sp, #12]
 80039fc:	9a03      	ldr	r2, [sp, #12]
    __HAL_RCC_GPIOG_CLK_ENABLE();
 80039fe:	6b1a      	ldr	r2, [r3, #48]	; 0x30
 8003a00:	f042 0240 	orr.w	r2, r2, #64	; 0x40
 8003a04:	631a      	str	r2, [r3, #48]	; 0x30
 8003a06:	6b1a      	ldr	r2, [r3, #48]	; 0x30
 8003a08:	f002 0240 	and.w	r2, r2, #64	; 0x40
 8003a0c:	9204      	str	r2, [sp, #16]
 8003a0e:	9a04      	ldr	r2, [sp, #16]
    __HAL_RCC_GPIOH_CLK_ENABLE();
 8003a10:	6b1a      	ldr	r2, [r3, #48]	; 0x30
 8003a12:	f042 0280 	orr.w	r2, r2, #128	; 0x80
 8003a16:	631a      	str	r2, [r3, #48]	; 0x30
 8003a18:	6b1a      	ldr	r2, [r3, #48]	; 0x30
 8003a1a:	f002 0280 	and.w	r2, r2, #128	; 0x80
 8003a1e:	9205      	str	r2, [sp, #20]
 8003a20:	9a05      	ldr	r2, [sp, #20]
    __HAL_RCC_GPIOA_CLK_ENABLE();
 8003a22:	6b1a      	ldr	r2, [r3, #48]	; 0x30
 8003a24:	f042 0201 	orr.w	r2, r2, #1
 8003a28:	631a      	str	r2, [r3, #48]	; 0x30
 8003a2a:	6b1b      	ldr	r3, [r3, #48]	; 0x30
    GPIO_InitStruct.Pin = DCMI_D6_Pin|DCMI_D7_Pin;
 8003a2c:	9007      	str	r0, [sp, #28]
    __HAL_RCC_GPIOA_CLK_ENABLE();
 8003a2e:	f003 0301 	and.w	r3, r3, #1
    HAL_GPIO_Init(GPIOE, &GPIO_InitStruct);
 8003a32:	481b      	ldr	r0, [pc, #108]	; (8003aa0 <HAL_DCMI_MspInit+0x100>)
    GPIO_InitStruct.Mode = GPIO_MODE_AF_PP;
 8003a34:	9608      	str	r6, [sp, #32]
    __HAL_RCC_GPIOA_CLK_ENABLE();
 8003a36:	9306      	str	r3, [sp, #24]
 8003a38:	9b06      	ldr	r3, [sp, #24]
    GPIO_InitStruct.Alternate = GPIO_AF13_DCMI;
 8003a3a:	950b      	str	r5, [sp, #44]	; 0x2c
    HAL_GPIO_Init(GPIOE, &GPIO_InitStruct);
 8003a3c:	f7fd f86a 	bl	8000b14 <HAL_GPIO_Init>
    GPIO_InitStruct.Pin = DCMI_D5_Pin;
 8003a40:	2308      	movs	r3, #8
    HAL_GPIO_Init(DCMI_D5_GPIO_Port, &GPIO_InitStruct);
 8003a42:	a907      	add	r1, sp, #28
 8003a44:	4817      	ldr	r0, [pc, #92]	; (8003aa4 <HAL_DCMI_MspInit+0x104>)
    GPIO_InitStruct.Pin = DCMI_D5_Pin;
 8003a46:	9307      	str	r3, [sp, #28]
    GPIO_InitStruct.Mode = GPIO_MODE_AF_PP;
 8003a48:	9608      	str	r6, [sp, #32]
    GPIO_InitStruct.Alternate = GPIO_AF13_DCMI;
 8003a4a:	950b      	str	r5, [sp, #44]	; 0x2c
    GPIO_InitStruct.Speed = GPIO_SPEED_FREQ_LOW;
 8003a4c:	e9cd 4409 	strd	r4, r4, [sp, #36]	; 0x24
    HAL_GPIO_Init(DCMI_D5_GPIO_Port, &GPIO_InitStruct);
 8003a50:	f7fd f860 	bl	8000b14 <HAL_GPIO_Init>
    GPIO_InitStruct.Pin = DCMI_VSYNC_Pin;
 8003a54:	f44f 7300 	mov.w	r3, #512	; 0x200
    HAL_GPIO_Init(DCMI_VSYNC_GPIO_Port, &GPIO_InitStruct);
 8003a58:	a907      	add	r1, sp, #28
 8003a5a:	4813      	ldr	r0, [pc, #76]	; (8003aa8 <HAL_DCMI_MspInit+0x108>)
    GPIO_InitStruct.Pin = DCMI_VSYNC_Pin;
 8003a5c:	9307      	str	r3, [sp, #28]
    GPIO_InitStruct.Mode = GPIO_MODE_AF_PP;
 8003a5e:	9608      	str	r6, [sp, #32]
    GPIO_InitStruct.Alternate = GPIO_AF13_DCMI;
 8003a60:	950b      	str	r5, [sp, #44]	; 0x2c
    GPIO_InitStruct.Speed = GPIO_SPEED_FREQ_LOW;
 8003a62:	e9cd 4409 	strd	r4, r4, [sp, #36]	; 0x24
    HAL_GPIO_Init(DCMI_VSYNC_GPIO_Port, &GPIO_InitStruct);
 8003a66:	f7fd f855 	bl	8000b14 <HAL_GPIO_Init>
    GPIO_InitStruct.Pin = DCMI_D4_Pin|DCMI_D3_Pin|DCMI_D0_Pin|DCMI_D2_Pin
 8003a6a:	f44f 43bc 	mov.w	r3, #24064	; 0x5e00
    HAL_GPIO_Init(GPIOH, &GPIO_InitStruct);
 8003a6e:	a907      	add	r1, sp, #28
 8003a70:	480e      	ldr	r0, [pc, #56]	; (8003aac <HAL_DCMI_MspInit+0x10c>)
    GPIO_InitStruct.Pin = DCMI_D4_Pin|DCMI_D3_Pin|DCMI_D0_Pin|DCMI_D2_Pin
 8003a72:	9307      	str	r3, [sp, #28]
    GPIO_InitStruct.Mode = GPIO_MODE_AF_PP;
 8003a74:	9608      	str	r6, [sp, #32]
    GPIO_InitStruct.Alternate = GPIO_AF13_DCMI;
 8003a76:	950b      	str	r5, [sp, #44]	; 0x2c
    GPIO_InitStruct.Speed = GPIO_SPEED_FREQ_LOW;
 8003a78:	e9cd 4409 	strd	r4, r4, [sp, #36]	; 0x24
    HAL_GPIO_Init(GPIOH, &GPIO_InitStruct);
 8003a7c:	f7fd f84a 	bl	8000b14 <HAL_GPIO_Init>
    GPIO_InitStruct.Pin = DCMI_HSYNC_Pin|GPIO_PIN_6;
 8003a80:	2350      	movs	r3, #80	; 0x50
    HAL_GPIO_Init(GPIOA, &GPIO_InitStruct);
 8003a82:	a907      	add	r1, sp, #28
 8003a84:	480a      	ldr	r0, [pc, #40]	; (8003ab0 <HAL_DCMI_MspInit+0x110>)
    GPIO_InitStruct.Mode = GPIO_MODE_AF_PP;
 8003a86:	9608      	str	r6, [sp, #32]
    GPIO_InitStruct.Alternate = GPIO_AF13_DCMI;
 8003a88:	950b      	str	r5, [sp, #44]	; 0x2c
    GPIO_InitStruct.Pin = DCMI_HSYNC_Pin|GPIO_PIN_6;
 8003a8a:	9307      	str	r3, [sp, #28]
    GPIO_InitStruct.Speed = GPIO_SPEED_FREQ_LOW;
 8003a8c:	e9cd 4409 	strd	r4, r4, [sp, #36]	; 0x24
    HAL_GPIO_Init(GPIOA, &GPIO_InitStruct);
 8003a90:	f7fd f840 	bl	8000b14 <HAL_GPIO_Init>
}
 8003a94:	b00c      	add	sp, #48	; 0x30
 8003a96:	bd70      	pop	{r4, r5, r6, pc}
 8003a98:	50050000 	.word	0x50050000
 8003a9c:	40023800 	.word	0x40023800
 8003aa0:	40021000 	.word	0x40021000
 8003aa4:	40020c00 	.word	0x40020c00
 8003aa8:	40021800 	.word	0x40021800
 8003aac:	40021c00 	.word	0x40021c00
 8003ab0:	40020000 	.word	0x40020000

08003ab4 <HAL_I2C_MspInit>:
* @retval None
*/
void HAL_I2C_MspInit(I2C_HandleTypeDef* hi2c)
{
  GPIO_InitTypeDef GPIO_InitStruct = {0};
  if(hi2c->Instance==I2C1)
 8003ab4:	6802      	ldr	r2, [r0, #0]
  GPIO_InitTypeDef GPIO_InitStruct = {0};
 8003ab6:	2300      	movs	r3, #0
  if(hi2c->Instance==I2C1)
 8003ab8:	492a      	ldr	r1, [pc, #168]	; (8003b64 <HAL_I2C_MspInit+0xb0>)
{
 8003aba:	b570      	push	{r4, r5, r6, lr}
  if(hi2c->Instance==I2C1)
 8003abc:	428a      	cmp	r2, r1
{
 8003abe:	b08a      	sub	sp, #40	; 0x28
  GPIO_InitTypeDef GPIO_InitStruct = {0};
 8003ac0:	e9cd 3305 	strd	r3, r3, [sp, #20]
 8003ac4:	e9cd 3307 	strd	r3, r3, [sp, #28]
 8003ac8:	9309      	str	r3, [sp, #36]	; 0x24
  if(hi2c->Instance==I2C1)
 8003aca:	d028      	beq.n	8003b1e <HAL_I2C_MspInit+0x6a>
    __HAL_RCC_I2C1_CLK_ENABLE();
  /* USER CODE BEGIN I2C1_MspInit 1 */

  /* USER CODE END I2C1_MspInit 1 */
  }
  else if(hi2c->Instance==I2C3)
 8003acc:	4b26      	ldr	r3, [pc, #152]	; (8003b68 <HAL_I2C_MspInit+0xb4>)
 8003ace:	429a      	cmp	r2, r3
 8003ad0:	d001      	beq.n	8003ad6 <HAL_I2C_MspInit+0x22>
  /* USER CODE BEGIN I2C3_MspInit 1 */

  /* USER CODE END I2C3_MspInit 1 */
  }

}
 8003ad2:	b00a      	add	sp, #40	; 0x28
 8003ad4:	bd70      	pop	{r4, r5, r6, pc}
    __HAL_RCC_GPIOH_CLK_ENABLE();
 8003ad6:	4c25      	ldr	r4, [pc, #148]	; (8003b6c <HAL_I2C_MspInit+0xb8>)
    GPIO_InitStruct.Mode = GPIO_MODE_AF_OD;
 8003ad8:	2212      	movs	r2, #18
    GPIO_InitStruct.Pull = GPIO_PULLUP;
 8003ada:	2001      	movs	r0, #1
    GPIO_InitStruct.Pin = LCD_SCL_Pin|LCD_SDA_Pin;
 8003adc:	f44f 76c0 	mov.w	r6, #384	; 0x180
    __HAL_RCC_GPIOH_CLK_ENABLE();
 8003ae0:	6b23      	ldr	r3, [r4, #48]	; 0x30
    GPIO_InitStruct.Speed = GPIO_SPEED_FREQ_VERY_HIGH;
 8003ae2:	2503      	movs	r5, #3
    HAL_GPIO_Init(GPIOH, &GPIO_InitStruct);
 8003ae4:	a905      	add	r1, sp, #20
    __HAL_RCC_GPIOH_CLK_ENABLE();
 8003ae6:	f043 0380 	orr.w	r3, r3, #128	; 0x80
 8003aea:	6323      	str	r3, [r4, #48]	; 0x30
 8003aec:	6b23      	ldr	r3, [r4, #48]	; 0x30
    GPIO_InitStruct.Mode = GPIO_MODE_AF_OD;
 8003aee:	9206      	str	r2, [sp, #24]
    GPIO_InitStruct.Alternate = GPIO_AF4_I2C3;
 8003af0:	2204      	movs	r2, #4
    __HAL_RCC_GPIOH_CLK_ENABLE();
 8003af2:	f003 0380 	and.w	r3, r3, #128	; 0x80
    GPIO_InitStruct.Pull = GPIO_PULLUP;
 8003af6:	9007      	str	r0, [sp, #28]
    HAL_GPIO_Init(GPIOH, &GPIO_InitStruct);
 8003af8:	481d      	ldr	r0, [pc, #116]	; (8003b70 <HAL_I2C_MspInit+0xbc>)
    __HAL_RCC_GPIOH_CLK_ENABLE();
 8003afa:	9303      	str	r3, [sp, #12]
 8003afc:	9b03      	ldr	r3, [sp, #12]
    GPIO_InitStruct.Pin = LCD_SCL_Pin|LCD_SDA_Pin;
 8003afe:	9605      	str	r6, [sp, #20]
    GPIO_InitStruct.Alternate = GPIO_AF4_I2C3;
 8003b00:	e9cd 5208 	strd	r5, r2, [sp, #32]
    HAL_GPIO_Init(GPIOH, &GPIO_InitStruct);
 8003b04:	f7fd f806 	bl	8000b14 <HAL_GPIO_Init>
    __HAL_RCC_I2C3_CLK_ENABLE();
 8003b08:	6c23      	ldr	r3, [r4, #64]	; 0x40
 8003b0a:	f443 0300 	orr.w	r3, r3, #8388608	; 0x800000
 8003b0e:	6423      	str	r3, [r4, #64]	; 0x40
 8003b10:	6c23      	ldr	r3, [r4, #64]	; 0x40
 8003b12:	f403 0300 	and.w	r3, r3, #8388608	; 0x800000
 8003b16:	9304      	str	r3, [sp, #16]
 8003b18:	9b04      	ldr	r3, [sp, #16]
}
 8003b1a:	b00a      	add	sp, #40	; 0x28
 8003b1c:	bd70      	pop	{r4, r5, r6, pc}
    __HAL_RCC_GPIOB_CLK_ENABLE();
 8003b1e:	4c13      	ldr	r4, [pc, #76]	; (8003b6c <HAL_I2C_MspInit+0xb8>)
    GPIO_InitStruct.Mode = GPIO_MODE_AF_OD;
 8003b20:	2012      	movs	r0, #18
    GPIO_InitStruct.Alternate = GPIO_AF4_I2C1;
 8003b22:	2204      	movs	r2, #4
    GPIO_InitStruct.Pin = ARDUINO_SCL_D15_Pin|ARDUINO_SDA_D14_Pin;
 8003b24:	f44f 7640 	mov.w	r6, #768	; 0x300
    __HAL_RCC_GPIOB_CLK_ENABLE();
 8003b28:	6b23      	ldr	r3, [r4, #48]	; 0x30
    GPIO_InitStruct.Pull = GPIO_PULLUP;
 8003b2a:	2501      	movs	r5, #1
    HAL_GPIO_Init(GPIOB, &GPIO_InitStruct);
 8003b2c:	a905      	add	r1, sp, #20
    __HAL_RCC_GPIOB_CLK_ENABLE();
 8003b2e:	f043 0302 	orr.w	r3, r3, #2
 8003b32:	6323      	str	r3, [r4, #48]	; 0x30
 8003b34:	6b23      	ldr	r3, [r4, #48]	; 0x30
    GPIO_InitStruct.Mode = GPIO_MODE_AF_OD;
 8003b36:	9006      	str	r0, [sp, #24]
    __HAL_RCC_GPIOB_CLK_ENABLE();
 8003b38:	f003 0302 	and.w	r3, r3, #2
    HAL_GPIO_Init(GPIOB, &GPIO_InitStruct);
 8003b3c:	480d      	ldr	r0, [pc, #52]	; (8003b74 <HAL_I2C_MspInit+0xc0>)
    GPIO_InitStruct.Pin = ARDUINO_SCL_D15_Pin|ARDUINO_SDA_D14_Pin;
 8003b3e:	9605      	str	r6, [sp, #20]
    __HAL_RCC_GPIOB_CLK_ENABLE();
 8003b40:	9301      	str	r3, [sp, #4]
 8003b42:	9b01      	ldr	r3, [sp, #4]
    GPIO_InitStruct.Pull = GPIO_PULLUP;
 8003b44:	9507      	str	r5, [sp, #28]
    GPIO_InitStruct.Alternate = GPIO_AF4_I2C1;
 8003b46:	9209      	str	r2, [sp, #36]	; 0x24
    HAL_GPIO_Init(GPIOB, &GPIO_InitStruct);
 8003b48:	f7fc ffe4 	bl	8000b14 <HAL_GPIO_Init>
    __HAL_RCC_I2C1_CLK_ENABLE();
 8003b4c:	6c23      	ldr	r3, [r4, #64]	; 0x40
 8003b4e:	f443 1300 	orr.w	r3, r3, #2097152	; 0x200000
 8003b52:	6423      	str	r3, [r4, #64]	; 0x40
 8003b54:	6c23      	ldr	r3, [r4, #64]	; 0x40
 8003b56:	f403 1300 	and.w	r3, r3, #2097152	; 0x200000
 8003b5a:	9302      	str	r3, [sp, #8]
 8003b5c:	9b02      	ldr	r3, [sp, #8]
}
 8003b5e:	b00a      	add	sp, #40	; 0x28
 8003b60:	bd70      	pop	{r4, r5, r6, pc}
 8003b62:	bf00      	nop
 8003b64:	40005400 	.word	0x40005400
 8003b68:	40005c00 	.word	0x40005c00
 8003b6c:	40023800 	.word	0x40023800
 8003b70:	40021c00 	.word	0x40021c00
 8003b74:	40020400 	.word	0x40020400

08003b78 <HAL_QSPI_MspInit>:
* @retval None
*/
void HAL_QSPI_MspInit(QSPI_HandleTypeDef* hqspi)
{
  GPIO_InitTypeDef GPIO_InitStruct = {0};
  if(hqspi->Instance==QUADSPI)
 8003b78:	6802      	ldr	r2, [r0, #0]
 8003b7a:	4b30      	ldr	r3, [pc, #192]	; (8003c3c <HAL_QSPI_MspInit+0xc4>)
{
 8003b7c:	e92d 41f0 	stmdb	sp!, {r4, r5, r6, r7, r8, lr}
  if(hqspi->Instance==QUADSPI)
 8003b80:	429a      	cmp	r2, r3
{
 8003b82:	b08a      	sub	sp, #40	; 0x28
  GPIO_InitTypeDef GPIO_InitStruct = {0};
 8003b84:	f04f 0400 	mov.w	r4, #0
 8003b88:	e9cd 4405 	strd	r4, r4, [sp, #20]
 8003b8c:	e9cd 4407 	strd	r4, r4, [sp, #28]
 8003b90:	9409      	str	r4, [sp, #36]	; 0x24
  if(hqspi->Instance==QUADSPI)
 8003b92:	d002      	beq.n	8003b9a <HAL_QSPI_MspInit+0x22>
  /* USER CODE BEGIN QUADSPI_MspInit 1 */

  /* USER CODE END QUADSPI_MspInit 1 */
  }

}
 8003b94:	b00a      	add	sp, #40	; 0x28
 8003b96:	e8bd 81f0 	ldmia.w	sp!, {r4, r5, r6, r7, r8, pc}
    __HAL_RCC_QSPI_CLK_ENABLE();
 8003b9a:	4b29      	ldr	r3, [pc, #164]	; (8003c40 <HAL_QSPI_MspInit+0xc8>)
    GPIO_InitStruct.Mode = GPIO_MODE_AF_PP;
 8003b9c:	2602      	movs	r6, #2
    GPIO_InitStruct.Speed = GPIO_SPEED_FREQ_VERY_HIGH;
 8003b9e:	2503      	movs	r5, #3
    GPIO_InitStruct.Alternate = GPIO_AF9_QUADSPI;
 8003ba0:	2709      	movs	r7, #9
    __HAL_RCC_QSPI_CLK_ENABLE();
 8003ba2:	6b9a      	ldr	r2, [r3, #56]	; 0x38
    GPIO_InitStruct.Pin = QSPI_D2_Pin;
 8003ba4:	f04f 0804 	mov.w	r8, #4
    HAL_GPIO_Init(QSPI_D2_GPIO_Port, &GPIO_InitStruct);
 8003ba8:	a905      	add	r1, sp, #20
 8003baa:	4826      	ldr	r0, [pc, #152]	; (8003c44 <HAL_QSPI_MspInit+0xcc>)
    __HAL_RCC_QSPI_CLK_ENABLE();
 8003bac:	4332      	orrs	r2, r6
 8003bae:	639a      	str	r2, [r3, #56]	; 0x38
 8003bb0:	6b9a      	ldr	r2, [r3, #56]	; 0x38
 8003bb2:	4032      	ands	r2, r6
 8003bb4:	9201      	str	r2, [sp, #4]
 8003bb6:	9a01      	ldr	r2, [sp, #4]
    __HAL_RCC_GPIOE_CLK_ENABLE();
 8003bb8:	6b1a      	ldr	r2, [r3, #48]	; 0x30
 8003bba:	f042 0210 	orr.w	r2, r2, #16
 8003bbe:	631a      	str	r2, [r3, #48]	; 0x30
 8003bc0:	6b1a      	ldr	r2, [r3, #48]	; 0x30
 8003bc2:	f002 0210 	and.w	r2, r2, #16
 8003bc6:	9202      	str	r2, [sp, #8]
 8003bc8:	9a02      	ldr	r2, [sp, #8]
    __HAL_RCC_GPIOB_CLK_ENABLE();
 8003bca:	6b1a      	ldr	r2, [r3, #48]	; 0x30
 8003bcc:	4332      	orrs	r2, r6
 8003bce:	631a      	str	r2, [r3, #48]	; 0x30
 8003bd0:	6b1a      	ldr	r2, [r3, #48]	; 0x30
 8003bd2:	4032      	ands	r2, r6
 8003bd4:	9203      	str	r2, [sp, #12]
 8003bd6:	9a03      	ldr	r2, [sp, #12]
    __HAL_RCC_GPIOD_CLK_ENABLE();
 8003bd8:	6b1a      	ldr	r2, [r3, #48]	; 0x30
 8003bda:	f042 0208 	orr.w	r2, r2, #8
 8003bde:	631a      	str	r2, [r3, #48]	; 0x30
 8003be0:	6b1b      	ldr	r3, [r3, #48]	; 0x30
    GPIO_InitStruct.Pin = QSPI_D2_Pin;
 8003be2:	f8cd 8014 	str.w	r8, [sp, #20]
    __HAL_RCC_GPIOD_CLK_ENABLE();
 8003be6:	f003 0308 	and.w	r3, r3, #8
    GPIO_InitStruct.Mode = GPIO_MODE_AF_PP;
 8003bea:	9606      	str	r6, [sp, #24]
    GPIO_InitStruct.Speed = GPIO_SPEED_FREQ_VERY_HIGH;
 8003bec:	9508      	str	r5, [sp, #32]
    __HAL_RCC_GPIOD_CLK_ENABLE();
 8003bee:	9304      	str	r3, [sp, #16]
 8003bf0:	9b04      	ldr	r3, [sp, #16]
    GPIO_InitStruct.Alternate = GPIO_AF9_QUADSPI;
 8003bf2:	9709      	str	r7, [sp, #36]	; 0x24
    HAL_GPIO_Init(QSPI_D2_GPIO_Port, &GPIO_InitStruct);
 8003bf4:	f7fc ff8e 	bl	8000b14 <HAL_GPIO_Init>
    GPIO_InitStruct.Pin = QSPI_NCS_Pin;
 8003bf8:	2240      	movs	r2, #64	; 0x40
    GPIO_InitStruct.Alternate = GPIO_AF10_QUADSPI;
 8003bfa:	230a      	movs	r3, #10
    HAL_GPIO_Init(QSPI_NCS_GPIO_Port, &GPIO_InitStruct);
 8003bfc:	a905      	add	r1, sp, #20
 8003bfe:	4812      	ldr	r0, [pc, #72]	; (8003c48 <HAL_QSPI_MspInit+0xd0>)
    GPIO_InitStruct.Pin = QSPI_NCS_Pin;
 8003c00:	9205      	str	r2, [sp, #20]
    GPIO_InitStruct.Alternate = GPIO_AF10_QUADSPI;
 8003c02:	9309      	str	r3, [sp, #36]	; 0x24
    GPIO_InitStruct.Mode = GPIO_MODE_AF_PP;
 8003c04:	9606      	str	r6, [sp, #24]
    GPIO_InitStruct.Pull = GPIO_NOPULL;
 8003c06:	e9cd 4507 	strd	r4, r5, [sp, #28]
    HAL_GPIO_Init(QSPI_NCS_GPIO_Port, &GPIO_InitStruct);
 8003c0a:	f7fc ff83 	bl	8000b14 <HAL_GPIO_Init>
    HAL_GPIO_Init(GPIOB, &GPIO_InitStruct);
 8003c0e:	a905      	add	r1, sp, #20
 8003c10:	480d      	ldr	r0, [pc, #52]	; (8003c48 <HAL_QSPI_MspInit+0xd0>)
    GPIO_InitStruct.Pull = GPIO_NOPULL;
 8003c12:	9407      	str	r4, [sp, #28]
    GPIO_InitStruct.Mode = GPIO_MODE_AF_PP;
 8003c14:	e9cd 8605 	strd	r8, r6, [sp, #20]
    GPIO_InitStruct.Alternate = GPIO_AF9_QUADSPI;
 8003c18:	e9cd 5708 	strd	r5, r7, [sp, #32]
    HAL_GPIO_Init(GPIOB, &GPIO_InitStruct);
 8003c1c:	f7fc ff7a 	bl	8000b14 <HAL_GPIO_Init>
    GPIO_InitStruct.Pin = QSPI_D1_Pin|QSPI_D3_Pin|QSPI_D0_Pin;
 8003c20:	f44f 5360 	mov.w	r3, #14336	; 0x3800
    HAL_GPIO_Init(GPIOD, &GPIO_InitStruct);
 8003c24:	a905      	add	r1, sp, #20
 8003c26:	4809      	ldr	r0, [pc, #36]	; (8003c4c <HAL_QSPI_MspInit+0xd4>)
    GPIO_InitStruct.Mode = GPIO_MODE_AF_PP;
 8003c28:	9606      	str	r6, [sp, #24]
    GPIO_InitStruct.Pull = GPIO_NOPULL;
 8003c2a:	9407      	str	r4, [sp, #28]
    GPIO_InitStruct.Pin = QSPI_D1_Pin|QSPI_D3_Pin|QSPI_D0_Pin;
 8003c2c:	9305      	str	r3, [sp, #20]
    GPIO_InitStruct.Alternate = GPIO_AF9_QUADSPI;
 8003c2e:	e9cd 5708 	strd	r5, r7, [sp, #32]
    HAL_GPIO_Init(GPIOD, &GPIO_InitStruct);
 8003c32:	f7fc ff6f 	bl	8000b14 <HAL_GPIO_Init>
}
 8003c36:	b00a      	add	sp, #40	; 0x28
 8003c38:	e8bd 81f0 	ldmia.w	sp!, {r4, r5, r6, r7, r8, pc}
 8003c3c:	a0001000 	.word	0xa0001000
 8003c40:	40023800 	.word	0x40023800
 8003c44:	40021000 	.word	0x40021000
 8003c48:	40020400 	.word	0x40020400
 8003c4c:	40020c00 	.word	0x40020c00

08003c50 <HAL_RTC_MspInit>:
* @param hrtc: RTC handle pointer
* @retval None
*/
void HAL_RTC_MspInit(RTC_HandleTypeDef* hrtc)
{
  if(hrtc->Instance==RTC)
 8003c50:	6802      	ldr	r2, [r0, #0]
 8003c52:	4b04      	ldr	r3, [pc, #16]	; (8003c64 <HAL_RTC_MspInit+0x14>)
 8003c54:	429a      	cmp	r2, r3
 8003c56:	d104      	bne.n	8003c62 <HAL_RTC_MspInit+0x12>
  {
  /* USER CODE BEGIN RTC_MspInit 0 */

  /* USER CODE END RTC_MspInit 0 */
    /* Peripheral clock enable */
    __HAL_RCC_RTC_ENABLE();
 8003c58:	4a03      	ldr	r2, [pc, #12]	; (8003c68 <HAL_RTC_MspInit+0x18>)
 8003c5a:	6f13      	ldr	r3, [r2, #112]	; 0x70
 8003c5c:	f443 4300 	orr.w	r3, r3, #32768	; 0x8000
 8003c60:	6713      	str	r3, [r2, #112]	; 0x70
  /* USER CODE BEGIN RTC_MspInit 1 */

  /* USER CODE END RTC_MspInit 1 */
  }

}
 8003c62:	4770      	bx	lr
 8003c64:	40002800 	.word	0x40002800
 8003c68:	40023800 	.word	0x40023800

08003c6c <HAL_SPI_MspInit>:
* @retval None
*/
void HAL_SPI_MspInit(SPI_HandleTypeDef* hspi)
{
  GPIO_InitTypeDef GPIO_InitStruct = {0};
  if(hspi->Instance==SPI2)
 8003c6c:	6802      	ldr	r2, [r0, #0]
 8003c6e:	4b1f      	ldr	r3, [pc, #124]	; (8003cec <HAL_SPI_MspInit+0x80>)
{
 8003c70:	b570      	push	{r4, r5, r6, lr}
  if(hspi->Instance==SPI2)
 8003c72:	429a      	cmp	r2, r3
{
 8003c74:	b088      	sub	sp, #32
  GPIO_InitTypeDef GPIO_InitStruct = {0};
 8003c76:	f04f 0400 	mov.w	r4, #0
 8003c7a:	e9cd 4403 	strd	r4, r4, [sp, #12]
 8003c7e:	e9cd 4405 	strd	r4, r4, [sp, #20]
 8003c82:	9407      	str	r4, [sp, #28]
  if(hspi->Instance==SPI2)
 8003c84:	d001      	beq.n	8003c8a <HAL_SPI_MspInit+0x1e>
  /* USER CODE BEGIN SPI2_MspInit 1 */

  /* USER CODE END SPI2_MspInit 1 */
  }

}
 8003c86:	b008      	add	sp, #32
 8003c88:	bd70      	pop	{r4, r5, r6, pc}
    __HAL_RCC_SPI2_CLK_ENABLE();
 8003c8a:	f503 3300 	add.w	r3, r3, #131072	; 0x20000
    GPIO_InitStruct.Pin = ARDUINO_SCK_D13_Pin;
 8003c8e:	2502      	movs	r5, #2
    GPIO_InitStruct.Alternate = GPIO_AF5_SPI2;
 8003c90:	2605      	movs	r6, #5
    HAL_GPIO_Init(ARDUINO_SCK_D13_GPIO_Port, &GPIO_InitStruct);
 8003c92:	a903      	add	r1, sp, #12
    __HAL_RCC_SPI2_CLK_ENABLE();
 8003c94:	6c1a      	ldr	r2, [r3, #64]	; 0x40
    HAL_GPIO_Init(ARDUINO_SCK_D13_GPIO_Port, &GPIO_InitStruct);
 8003c96:	4816      	ldr	r0, [pc, #88]	; (8003cf0 <HAL_SPI_MspInit+0x84>)
    __HAL_RCC_SPI2_CLK_ENABLE();
 8003c98:	f442 4280 	orr.w	r2, r2, #16384	; 0x4000
 8003c9c:	641a      	str	r2, [r3, #64]	; 0x40
 8003c9e:	6c1a      	ldr	r2, [r3, #64]	; 0x40
 8003ca0:	f402 4280 	and.w	r2, r2, #16384	; 0x4000
 8003ca4:	9200      	str	r2, [sp, #0]
 8003ca6:	9a00      	ldr	r2, [sp, #0]
    __HAL_RCC_GPIOI_CLK_ENABLE();
 8003ca8:	6b1a      	ldr	r2, [r3, #48]	; 0x30
 8003caa:	f442 7280 	orr.w	r2, r2, #256	; 0x100
 8003cae:	631a      	str	r2, [r3, #48]	; 0x30
 8003cb0:	6b1a      	ldr	r2, [r3, #48]	; 0x30
 8003cb2:	f402 7280 	and.w	r2, r2, #256	; 0x100
 8003cb6:	9201      	str	r2, [sp, #4]
 8003cb8:	9a01      	ldr	r2, [sp, #4]
    __HAL_RCC_GPIOB_CLK_ENABLE();
 8003cba:	6b1a      	ldr	r2, [r3, #48]	; 0x30
 8003cbc:	432a      	orrs	r2, r5
 8003cbe:	631a      	str	r2, [r3, #48]	; 0x30
 8003cc0:	6b1b      	ldr	r3, [r3, #48]	; 0x30
    GPIO_InitStruct.Pin = ARDUINO_SCK_D13_Pin;
 8003cc2:	9503      	str	r5, [sp, #12]
    __HAL_RCC_GPIOB_CLK_ENABLE();
 8003cc4:	402b      	ands	r3, r5
    GPIO_InitStruct.Mode = GPIO_MODE_AF_PP;
 8003cc6:	9504      	str	r5, [sp, #16]
    GPIO_InitStruct.Alternate = GPIO_AF5_SPI2;
 8003cc8:	9607      	str	r6, [sp, #28]
    __HAL_RCC_GPIOB_CLK_ENABLE();
 8003cca:	9302      	str	r3, [sp, #8]
 8003ccc:	9b02      	ldr	r3, [sp, #8]
    HAL_GPIO_Init(ARDUINO_SCK_D13_GPIO_Port, &GPIO_InitStruct);
 8003cce:	f7fc ff21 	bl	8000b14 <HAL_GPIO_Init>
    GPIO_InitStruct.Pin = ARDUINO_MISO_D12_Pin|ARDUINO_MOSI_PWM_D11_Pin;
 8003cd2:	f44f 4340 	mov.w	r3, #49152	; 0xc000
    HAL_GPIO_Init(GPIOB, &GPIO_InitStruct);
 8003cd6:	a903      	add	r1, sp, #12
 8003cd8:	4806      	ldr	r0, [pc, #24]	; (8003cf4 <HAL_SPI_MspInit+0x88>)
    GPIO_InitStruct.Mode = GPIO_MODE_AF_PP;
 8003cda:	9504      	str	r5, [sp, #16]
    GPIO_InitStruct.Alternate = GPIO_AF5_SPI2;
 8003cdc:	9607      	str	r6, [sp, #28]
    GPIO_InitStruct.Pin = ARDUINO_MISO_D12_Pin|ARDUINO_MOSI_PWM_D11_Pin;
 8003cde:	9303      	str	r3, [sp, #12]
    GPIO_InitStruct.Speed = GPIO_SPEED_FREQ_LOW;
 8003ce0:	e9cd 4405 	strd	r4, r4, [sp, #20]
    HAL_GPIO_Init(GPIOB, &GPIO_InitStruct);
 8003ce4:	f7fc ff16 	bl	8000b14 <HAL_GPIO_Init>
}
 8003ce8:	b008      	add	sp, #32
 8003cea:	bd70      	pop	{r4, r5, r6, pc}
 8003cec:	40003800 	.word	0x40003800
 8003cf0:	40022000 	.word	0x40022000
 8003cf4:	40020400 	.word	0x40020400

08003cf8 <HAL_TIM_Base_MspInit>:
* @param htim_base: TIM_Base handle pointer
* @retval None
*/
void HAL_TIM_Base_MspInit(TIM_HandleTypeDef* htim_base)
{
  if(htim_base->Instance==TIM1)
 8003cf8:	6803      	ldr	r3, [r0, #0]
{
 8003cfa:	b086      	sub	sp, #24
  if(htim_base->Instance==TIM1)
 8003cfc:	4a26      	ldr	r2, [pc, #152]	; (8003d98 <HAL_TIM_Base_MspInit+0xa0>)
 8003cfe:	4293      	cmp	r3, r2
 8003d00:	d00d      	beq.n	8003d1e <HAL_TIM_Base_MspInit+0x26>
    __HAL_RCC_TIM1_CLK_ENABLE();
  /* USER CODE BEGIN TIM1_MspInit 1 */

  /* USER CODE END TIM1_MspInit 1 */
  }
  else if(htim_base->Instance==TIM2)
 8003d02:	f1b3 4f80 	cmp.w	r3, #1073741824	; 0x40000000
 8003d06:	d02d      	beq.n	8003d64 <HAL_TIM_Base_MspInit+0x6c>
    __HAL_RCC_TIM2_CLK_ENABLE();
  /* USER CODE BEGIN TIM2_MspInit 1 */

  /* USER CODE END TIM2_MspInit 1 */
  }
  else if(htim_base->Instance==TIM3)
 8003d08:	4a24      	ldr	r2, [pc, #144]	; (8003d9c <HAL_TIM_Base_MspInit+0xa4>)
 8003d0a:	4293      	cmp	r3, r2
 8003d0c:	d013      	beq.n	8003d36 <HAL_TIM_Base_MspInit+0x3e>
    __HAL_RCC_TIM3_CLK_ENABLE();
  /* USER CODE BEGIN TIM3_MspInit 1 */

  /* USER CODE END TIM3_MspInit 1 */
  }
  else if(htim_base->Instance==TIM5)
 8003d0e:	4a24      	ldr	r2, [pc, #144]	; (8003da0 <HAL_TIM_Base_MspInit+0xa8>)
 8003d10:	4293      	cmp	r3, r2
 8003d12:	d034      	beq.n	8003d7e <HAL_TIM_Base_MspInit+0x86>
    __HAL_RCC_TIM5_CLK_ENABLE();
  /* USER CODE BEGIN TIM5_MspInit 1 */

  /* USER CODE END TIM5_MspInit 1 */
  }
  else if(htim_base->Instance==TIM8)
 8003d14:	4a23      	ldr	r2, [pc, #140]	; (8003da4 <HAL_TIM_Base_MspInit+0xac>)
 8003d16:	4293      	cmp	r3, r2
 8003d18:	d019      	beq.n	8003d4e <HAL_TIM_Base_MspInit+0x56>
  /* USER CODE BEGIN TIM8_MspInit 1 */

  /* USER CODE END TIM8_MspInit 1 */
  }

}
 8003d1a:	b006      	add	sp, #24
 8003d1c:	4770      	bx	lr
    __HAL_RCC_TIM1_CLK_ENABLE();
 8003d1e:	4b22      	ldr	r3, [pc, #136]	; (8003da8 <HAL_TIM_Base_MspInit+0xb0>)
 8003d20:	6c5a      	ldr	r2, [r3, #68]	; 0x44
 8003d22:	f042 0201 	orr.w	r2, r2, #1
 8003d26:	645a      	str	r2, [r3, #68]	; 0x44
 8003d28:	6c5b      	ldr	r3, [r3, #68]	; 0x44
 8003d2a:	f003 0301 	and.w	r3, r3, #1
 8003d2e:	9301      	str	r3, [sp, #4]
 8003d30:	9b01      	ldr	r3, [sp, #4]
}
 8003d32:	b006      	add	sp, #24
 8003d34:	4770      	bx	lr
    __HAL_RCC_TIM3_CLK_ENABLE();
 8003d36:	4b1c      	ldr	r3, [pc, #112]	; (8003da8 <HAL_TIM_Base_MspInit+0xb0>)
 8003d38:	6c1a      	ldr	r2, [r3, #64]	; 0x40
 8003d3a:	f042 0202 	orr.w	r2, r2, #2
 8003d3e:	641a      	str	r2, [r3, #64]	; 0x40
 8003d40:	6c1b      	ldr	r3, [r3, #64]	; 0x40
 8003d42:	f003 0302 	and.w	r3, r3, #2
 8003d46:	9303      	str	r3, [sp, #12]
 8003d48:	9b03      	ldr	r3, [sp, #12]
}
 8003d4a:	b006      	add	sp, #24
 8003d4c:	4770      	bx	lr
    __HAL_RCC_TIM8_CLK_ENABLE();
 8003d4e:	4b16      	ldr	r3, [pc, #88]	; (8003da8 <HAL_TIM_Base_MspInit+0xb0>)
 8003d50:	6c5a      	ldr	r2, [r3, #68]	; 0x44
 8003d52:	f042 0202 	orr.w	r2, r2, #2
 8003d56:	645a      	str	r2, [r3, #68]	; 0x44
 8003d58:	6c5b      	ldr	r3, [r3, #68]	; 0x44
 8003d5a:	f003 0302 	and.w	r3, r3, #2
 8003d5e:	9305      	str	r3, [sp, #20]
 8003d60:	9b05      	ldr	r3, [sp, #20]
}
 8003d62:	e7da      	b.n	8003d1a <HAL_TIM_Base_MspInit+0x22>
    __HAL_RCC_TIM2_CLK_ENABLE();
 8003d64:	f503 330e 	add.w	r3, r3, #145408	; 0x23800
 8003d68:	6c1a      	ldr	r2, [r3, #64]	; 0x40
 8003d6a:	f042 0201 	orr.w	r2, r2, #1
 8003d6e:	641a      	str	r2, [r3, #64]	; 0x40
 8003d70:	6c1b      	ldr	r3, [r3, #64]	; 0x40
 8003d72:	f003 0301 	and.w	r3, r3, #1
 8003d76:	9302      	str	r3, [sp, #8]
 8003d78:	9b02      	ldr	r3, [sp, #8]
}
 8003d7a:	b006      	add	sp, #24
 8003d7c:	4770      	bx	lr
    __HAL_RCC_TIM5_CLK_ENABLE();
 8003d7e:	4b0a      	ldr	r3, [pc, #40]	; (8003da8 <HAL_TIM_Base_MspInit+0xb0>)
 8003d80:	6c1a      	ldr	r2, [r3, #64]	; 0x40
 8003d82:	f042 0208 	orr.w	r2, r2, #8
 8003d86:	641a      	str	r2, [r3, #64]	; 0x40
 8003d88:	6c1b      	ldr	r3, [r3, #64]	; 0x40
 8003d8a:	f003 0308 	and.w	r3, r3, #8
 8003d8e:	9304      	str	r3, [sp, #16]
 8003d90:	9b04      	ldr	r3, [sp, #16]
}
 8003d92:	b006      	add	sp, #24
 8003d94:	4770      	bx	lr
 8003d96:	bf00      	nop
 8003d98:	40010000 	.word	0x40010000
 8003d9c:	40000400 	.word	0x40000400
 8003da0:	40000c00 	.word	0x40000c00
 8003da4:	40010400 	.word	0x40010400
 8003da8:	40023800 	.word	0x40023800

08003dac <HAL_TIM_MspPostInit>:

void HAL_TIM_MspPostInit(TIM_HandleTypeDef* htim)
{
  GPIO_InitTypeDef GPIO_InitStruct = {0};
  if(htim->Instance==TIM5)
 8003dac:	6801      	ldr	r1, [r0, #0]
  GPIO_InitTypeDef GPIO_InitStruct = {0};
 8003dae:	2300      	movs	r3, #0
  if(htim->Instance==TIM5)
 8003db0:	4a10      	ldr	r2, [pc, #64]	; (8003df4 <HAL_TIM_MspPostInit+0x48>)
{
 8003db2:	b530      	push	{r4, r5, lr}
  if(htim->Instance==TIM5)
 8003db4:	4291      	cmp	r1, r2
{
 8003db6:	b087      	sub	sp, #28
  GPIO_InitTypeDef GPIO_InitStruct = {0};
 8003db8:	e9cd 3301 	strd	r3, r3, [sp, #4]
 8003dbc:	e9cd 3303 	strd	r3, r3, [sp, #12]
 8003dc0:	9305      	str	r3, [sp, #20]
  if(htim->Instance==TIM5)
 8003dc2:	d001      	beq.n	8003dc8 <HAL_TIM_MspPostInit+0x1c>
  /* USER CODE BEGIN TIM5_MspPostInit 1 */

  /* USER CODE END TIM5_MspPostInit 1 */
  }

}
 8003dc4:	b007      	add	sp, #28
 8003dc6:	bd30      	pop	{r4, r5, pc}
    __HAL_RCC_GPIOI_CLK_ENABLE();
 8003dc8:	4b0b      	ldr	r3, [pc, #44]	; (8003df8 <HAL_TIM_MspPostInit+0x4c>)
    GPIO_InitStruct.Mode = GPIO_MODE_AF_PP;
 8003dca:	2402      	movs	r4, #2
    GPIO_InitStruct.Pin = ARDUINO_PWM_CS_D10_Pin;
 8003dcc:	2501      	movs	r5, #1
    HAL_GPIO_Init(ARDUINO_PWM_CS_D10_GPIO_Port, &GPIO_InitStruct);
 8003dce:	a901      	add	r1, sp, #4
    __HAL_RCC_GPIOI_CLK_ENABLE();
 8003dd0:	6b1a      	ldr	r2, [r3, #48]	; 0x30
    HAL_GPIO_Init(ARDUINO_PWM_CS_D10_GPIO_Port, &GPIO_InitStruct);
 8003dd2:	480a      	ldr	r0, [pc, #40]	; (8003dfc <HAL_TIM_MspPostInit+0x50>)
    __HAL_RCC_GPIOI_CLK_ENABLE();
 8003dd4:	f442 7280 	orr.w	r2, r2, #256	; 0x100
 8003dd8:	631a      	str	r2, [r3, #48]	; 0x30
 8003dda:	6b1b      	ldr	r3, [r3, #48]	; 0x30
    GPIO_InitStruct.Pin = ARDUINO_PWM_CS_D10_Pin;
 8003ddc:	9501      	str	r5, [sp, #4]
    __HAL_RCC_GPIOI_CLK_ENABLE();
 8003dde:	f403 7380 	and.w	r3, r3, #256	; 0x100
    GPIO_InitStruct.Mode = GPIO_MODE_AF_PP;
 8003de2:	9402      	str	r4, [sp, #8]
    GPIO_InitStruct.Alternate = GPIO_AF2_TIM5;
 8003de4:	9405      	str	r4, [sp, #20]
    __HAL_RCC_GPIOI_CLK_ENABLE();
 8003de6:	9300      	str	r3, [sp, #0]
 8003de8:	9b00      	ldr	r3, [sp, #0]
    HAL_GPIO_Init(ARDUINO_PWM_CS_D10_GPIO_Port, &GPIO_InitStruct);
 8003dea:	f7fc fe93 	bl	8000b14 <HAL_GPIO_Init>
}
 8003dee:	b007      	add	sp, #28
 8003df0:	bd30      	pop	{r4, r5, pc}
 8003df2:	bf00      	nop
 8003df4:	40000c00 	.word	0x40000c00
 8003df8:	40023800 	.word	0x40023800
 8003dfc:	40022000 	.word	0x40022000

08003e00 <HAL_UART_MspInit>:
* @retval None
*/
void HAL_UART_MspInit(UART_HandleTypeDef* huart)
{
  GPIO_InitTypeDef GPIO_InitStruct = {0};
  if(huart->Instance==USART1)
 8003e00:	6803      	ldr	r3, [r0, #0]
 8003e02:	4a31      	ldr	r2, [pc, #196]	; (8003ec8 <HAL_UART_MspInit+0xc8>)
{
 8003e04:	b570      	push	{r4, r5, r6, lr}
  if(huart->Instance==USART1)
 8003e06:	4293      	cmp	r3, r2
{
 8003e08:	b08a      	sub	sp, #40	; 0x28
  GPIO_InitTypeDef GPIO_InitStruct = {0};
 8003e0a:	f04f 0400 	mov.w	r4, #0
 8003e0e:	e9cd 4405 	strd	r4, r4, [sp, #20]
 8003e12:	e9cd 4407 	strd	r4, r4, [sp, #28]
 8003e16:	9409      	str	r4, [sp, #36]	; 0x24
  if(huart->Instance==USART1)
 8003e18:	d025      	beq.n	8003e66 <HAL_UART_MspInit+0x66>

  /* USER CODE BEGIN USART1_MspInit 1 */

  /* USER CODE END USART1_MspInit 1 */
  }
  else if(huart->Instance==USART6)
 8003e1a:	4a2c      	ldr	r2, [pc, #176]	; (8003ecc <HAL_UART_MspInit+0xcc>)
 8003e1c:	4293      	cmp	r3, r2
 8003e1e:	d001      	beq.n	8003e24 <HAL_UART_MspInit+0x24>
  /* USER CODE BEGIN USART6_MspInit 1 */

  /* USER CODE END USART6_MspInit 1 */
  }

}
 8003e20:	b00a      	add	sp, #40	; 0x28
 8003e22:	bd70      	pop	{r4, r5, r6, pc}
    __HAL_RCC_USART6_CLK_ENABLE();
 8003e24:	4b2a      	ldr	r3, [pc, #168]	; (8003ed0 <HAL_UART_MspInit+0xd0>)
    GPIO_InitStruct.Pin = ARDUINO_RX_D0_Pin|ARDUINO_TX_D1_Pin;
 8003e26:	20c0      	movs	r0, #192	; 0xc0
    GPIO_InitStruct.Mode = GPIO_MODE_AF_PP;
 8003e28:	2602      	movs	r6, #2
    HAL_GPIO_Init(GPIOC, &GPIO_InitStruct);
 8003e2a:	a905      	add	r1, sp, #20
    __HAL_RCC_USART6_CLK_ENABLE();
 8003e2c:	6c5a      	ldr	r2, [r3, #68]	; 0x44
    GPIO_InitStruct.Speed = GPIO_SPEED_FREQ_VERY_HIGH;
 8003e2e:	2503      	movs	r5, #3
    GPIO_InitStruct.Alternate = GPIO_AF8_USART6;
 8003e30:	2408      	movs	r4, #8
    __HAL_RCC_USART6_CLK_ENABLE();
 8003e32:	f042 0220 	orr.w	r2, r2, #32
 8003e36:	645a      	str	r2, [r3, #68]	; 0x44
 8003e38:	6c5a      	ldr	r2, [r3, #68]	; 0x44
 8003e3a:	f002 0220 	and.w	r2, r2, #32
 8003e3e:	9203      	str	r2, [sp, #12]
 8003e40:	9a03      	ldr	r2, [sp, #12]
    __HAL_RCC_GPIOC_CLK_ENABLE();
 8003e42:	6b1a      	ldr	r2, [r3, #48]	; 0x30
 8003e44:	f042 0204 	orr.w	r2, r2, #4
 8003e48:	631a      	str	r2, [r3, #48]	; 0x30
 8003e4a:	6b1b      	ldr	r3, [r3, #48]	; 0x30
    GPIO_InitStruct.Pin = ARDUINO_RX_D0_Pin|ARDUINO_TX_D1_Pin;
 8003e4c:	9005      	str	r0, [sp, #20]
    __HAL_RCC_GPIOC_CLK_ENABLE();
 8003e4e:	f003 0304 	and.w	r3, r3, #4
    HAL_GPIO_Init(GPIOC, &GPIO_InitStruct);
 8003e52:	4820      	ldr	r0, [pc, #128]	; (8003ed4 <HAL_UART_MspInit+0xd4>)
    GPIO_InitStruct.Mode = GPIO_MODE_AF_PP;
 8003e54:	9606      	str	r6, [sp, #24]
    __HAL_RCC_GPIOC_CLK_ENABLE();
 8003e56:	9304      	str	r3, [sp, #16]
 8003e58:	9b04      	ldr	r3, [sp, #16]
    GPIO_InitStruct.Alternate = GPIO_AF8_USART6;
 8003e5a:	e9cd 5408 	strd	r5, r4, [sp, #32]
    HAL_GPIO_Init(GPIOC, &GPIO_InitStruct);
 8003e5e:	f7fc fe59 	bl	8000b14 <HAL_GPIO_Init>
}
 8003e62:	b00a      	add	sp, #40	; 0x28
 8003e64:	bd70      	pop	{r4, r5, r6, pc}
    __HAL_RCC_USART1_CLK_ENABLE();
 8003e66:	4b1a      	ldr	r3, [pc, #104]	; (8003ed0 <HAL_UART_MspInit+0xd0>)
    GPIO_InitStruct.Mode = GPIO_MODE_AF_PP;
 8003e68:	2602      	movs	r6, #2
    GPIO_InitStruct.Pin = VCP_RX_Pin;
 8003e6a:	2080      	movs	r0, #128	; 0x80
    GPIO_InitStruct.Alternate = GPIO_AF7_USART1;
 8003e6c:	2507      	movs	r5, #7
    __HAL_RCC_USART1_CLK_ENABLE();
 8003e6e:	6c5a      	ldr	r2, [r3, #68]	; 0x44
    HAL_GPIO_Init(VCP_RX_GPIO_Port, &GPIO_InitStruct);
 8003e70:	a905      	add	r1, sp, #20
    __HAL_RCC_USART1_CLK_ENABLE();
 8003e72:	f042 0210 	orr.w	r2, r2, #16
 8003e76:	645a      	str	r2, [r3, #68]	; 0x44
 8003e78:	6c5a      	ldr	r2, [r3, #68]	; 0x44
 8003e7a:	f002 0210 	and.w	r2, r2, #16
 8003e7e:	9200      	str	r2, [sp, #0]
 8003e80:	9a00      	ldr	r2, [sp, #0]
    __HAL_RCC_GPIOB_CLK_ENABLE();
 8003e82:	6b1a      	ldr	r2, [r3, #48]	; 0x30
 8003e84:	4332      	orrs	r2, r6
 8003e86:	631a      	str	r2, [r3, #48]	; 0x30
 8003e88:	6b1a      	ldr	r2, [r3, #48]	; 0x30
 8003e8a:	4032      	ands	r2, r6
 8003e8c:	9201      	str	r2, [sp, #4]
 8003e8e:	9a01      	ldr	r2, [sp, #4]
    __HAL_RCC_GPIOA_CLK_ENABLE();
 8003e90:	6b1a      	ldr	r2, [r3, #48]	; 0x30
 8003e92:	f042 0201 	orr.w	r2, r2, #1
 8003e96:	631a      	str	r2, [r3, #48]	; 0x30
 8003e98:	6b1b      	ldr	r3, [r3, #48]	; 0x30
    GPIO_InitStruct.Pin = VCP_RX_Pin;
 8003e9a:	9005      	str	r0, [sp, #20]
    __HAL_RCC_GPIOA_CLK_ENABLE();
 8003e9c:	f003 0301 	and.w	r3, r3, #1
    HAL_GPIO_Init(VCP_RX_GPIO_Port, &GPIO_InitStruct);
 8003ea0:	480d      	ldr	r0, [pc, #52]	; (8003ed8 <HAL_UART_MspInit+0xd8>)
    GPIO_InitStruct.Mode = GPIO_MODE_AF_PP;
 8003ea2:	9606      	str	r6, [sp, #24]
    __HAL_RCC_GPIOA_CLK_ENABLE();
 8003ea4:	9302      	str	r3, [sp, #8]
 8003ea6:	9b02      	ldr	r3, [sp, #8]
    GPIO_InitStruct.Alternate = GPIO_AF7_USART1;
 8003ea8:	9509      	str	r5, [sp, #36]	; 0x24
    HAL_GPIO_Init(VCP_RX_GPIO_Port, &GPIO_InitStruct);
 8003eaa:	f7fc fe33 	bl	8000b14 <HAL_GPIO_Init>
    GPIO_InitStruct.Pin = VCP_TX_Pin;
 8003eae:	f44f 7300 	mov.w	r3, #512	; 0x200
    HAL_GPIO_Init(VCP_TX_GPIO_Port, &GPIO_InitStruct);
 8003eb2:	a905      	add	r1, sp, #20
 8003eb4:	4809      	ldr	r0, [pc, #36]	; (8003edc <HAL_UART_MspInit+0xdc>)
    GPIO_InitStruct.Mode = GPIO_MODE_AF_PP;
 8003eb6:	9606      	str	r6, [sp, #24]
    GPIO_InitStruct.Alternate = GPIO_AF7_USART1;
 8003eb8:	9509      	str	r5, [sp, #36]	; 0x24
    GPIO_InitStruct.Pin = VCP_TX_Pin;
 8003eba:	9305      	str	r3, [sp, #20]
    GPIO_InitStruct.Speed = GPIO_SPEED_FREQ_LOW;
 8003ebc:	e9cd 4407 	strd	r4, r4, [sp, #28]
    HAL_GPIO_Init(VCP_TX_GPIO_Port, &GPIO_InitStruct);
 8003ec0:	f7fc fe28 	bl	8000b14 <HAL_GPIO_Init>
}
 8003ec4:	b00a      	add	sp, #40	; 0x28
 8003ec6:	bd70      	pop	{r4, r5, r6, pc}
 8003ec8:	40011000 	.word	0x40011000
 8003ecc:	40011400 	.word	0x40011400
 8003ed0:	40023800 	.word	0x40023800
 8003ed4:	40020800 	.word	0x40020800
 8003ed8:	40020400 	.word	0x40020400
 8003edc:	40020000 	.word	0x40020000

08003ee0 <SysTick_Handler>:
/******************************************************************************/
/**
  * @brief This function handles System tick timer.
  */
void SysTick_Handler(void)
{
 8003ee0:	b510      	push	{r4, lr}
  /* USER CODE BEGIN SysTick_IRQn 0 */

  /* USER CODE END SysTick_IRQn 0 */
  HAL_IncTick();
 8003ee2:	f7fc fb99 	bl	8000618 <HAL_IncTick>
  if ((HAL_GetTick() % XF_tickIntervalInMilliseconds()) == 0)
 8003ee6:	f7fc fba3 	bl	8000630 <HAL_GetTick>
 8003eea:	4604      	mov	r4, r0
 8003eec:	f001 fb5e 	bl	80055ac <XF_tickIntervalInMilliseconds>
 8003ef0:	fbb4 f3f0 	udiv	r3, r4, r0
 8003ef4:	fb03 4010 	mls	r0, r3, r0, r4
 8003ef8:	b100      	cbz	r0, 8003efc <SysTick_Handler+0x1c>
      XF_tick();
  }
  /* USER CODE BEGIN SysTick_IRQn 1 */

  /* USER CODE END SysTick_IRQn 1 */
}
 8003efa:	bd10      	pop	{r4, pc}
 8003efc:	e8bd 4010 	ldmia.w	sp!, {r4, lr}
      XF_tick();
 8003f00:	f001 bb46 	b.w	8005590 <XF_tick>

08003f04 <EXTI2_IRQHandler>:
void EXTI2_IRQHandler(void)
{
  /* USER CODE BEGIN EXTI2_IRQn 0 */

  /* USER CODE END EXTI2_IRQn 0 */
  HAL_GPIO_EXTI_IRQHandler(GPIO_PIN_2);
 8003f04:	2004      	movs	r0, #4
 8003f06:	f7fc bf2d 	b.w	8000d64 <HAL_GPIO_EXTI_IRQHandler>
 8003f0a:	bf00      	nop

08003f0c <EXTI3_IRQHandler>:
void EXTI3_IRQHandler(void)
{
  /* USER CODE BEGIN EXTI3_IRQn 0 */

  /* USER CODE END EXTI3_IRQn 0 */
  HAL_GPIO_EXTI_IRQHandler(GPIO_PIN_3);
 8003f0c:	2008      	movs	r0, #8
 8003f0e:	f7fc bf29 	b.w	8000d64 <HAL_GPIO_EXTI_IRQHandler>
 8003f12:	bf00      	nop

08003f14 <EXTI9_5_IRQHandler>:

/**
  * @brief This function handles EXTI line[9:5] interrupts.
  */
void EXTI9_5_IRQHandler(void)
{
 8003f14:	b508      	push	{r3, lr}
  /* USER CODE BEGIN EXTI9_5_IRQn 0 */

  /* USER CODE END EXTI9_5_IRQn 0 */
  HAL_GPIO_EXTI_IRQHandler(GPIO_PIN_6);
 8003f16:	2040      	movs	r0, #64	; 0x40
 8003f18:	f7fc ff24 	bl	8000d64 <HAL_GPIO_EXTI_IRQHandler>
  HAL_GPIO_EXTI_IRQHandler(GPIO_PIN_7);
 8003f1c:	2080      	movs	r0, #128	; 0x80
  /* USER CODE BEGIN EXTI9_5_IRQn 1 */

  /* USER CODE END EXTI9_5_IRQn 1 */
}
 8003f1e:	e8bd 4008 	ldmia.w	sp!, {r3, lr}
  HAL_GPIO_EXTI_IRQHandler(GPIO_PIN_7);
 8003f22:	f7fc bf1f 	b.w	8000d64 <HAL_GPIO_EXTI_IRQHandler>
 8003f26:	bf00      	nop

08003f28 <_getpid>:
}

int _getpid(void)
{
	return 1;
}
 8003f28:	2001      	movs	r0, #1
 8003f2a:	4770      	bx	lr

08003f2c <_kill>:

int _kill(int pid, int sig)
{
 8003f2c:	b508      	push	{r3, lr}
	errno = EINVAL;
 8003f2e:	f001 fc65 	bl	80057fc <__errno>
 8003f32:	2316      	movs	r3, #22
 8003f34:	6003      	str	r3, [r0, #0]
	return -1;
}
 8003f36:	f04f 30ff 	mov.w	r0, #4294967295
 8003f3a:	bd08      	pop	{r3, pc}

08003f3c <_exit>:

void _exit (int status)
{
 8003f3c:	b508      	push	{r3, lr}
	errno = EINVAL;
 8003f3e:	f001 fc5d 	bl	80057fc <__errno>
 8003f42:	2316      	movs	r3, #22
 8003f44:	6003      	str	r3, [r0, #0]
 8003f46:	e7fe      	b.n	8003f46 <_exit+0xa>

08003f48 <_read>:
	_kill(status, -1);
	while (1) {}		/* Make sure we hang here */
}

__attribute__((weak)) int _read(int file, char *ptr, int len)
{
 8003f48:	b570      	push	{r4, r5, r6, lr}
	int DataIdx;

	for (DataIdx = 0; DataIdx < len; DataIdx++)
 8003f4a:	1e16      	subs	r6, r2, #0
 8003f4c:	dd07      	ble.n	8003f5e <_read+0x16>
 8003f4e:	460c      	mov	r4, r1
 8003f50:	198d      	adds	r5, r1, r6
	{
		*ptr++ = __io_getchar();
 8003f52:	f3af 8000 	nop.w
 8003f56:	f804 0b01 	strb.w	r0, [r4], #1
	for (DataIdx = 0; DataIdx < len; DataIdx++)
 8003f5a:	42a5      	cmp	r5, r4
 8003f5c:	d1f9      	bne.n	8003f52 <_read+0xa>
	}

return len;
}
 8003f5e:	4630      	mov	r0, r6
 8003f60:	bd70      	pop	{r4, r5, r6, pc}
 8003f62:	bf00      	nop

08003f64 <_write>:

__attribute__((weak)) int _write(int file, char *ptr, int len)
{
 8003f64:	b570      	push	{r4, r5, r6, lr}
	int DataIdx;

	for (DataIdx = 0; DataIdx < len; DataIdx++)
 8003f66:	1e16      	subs	r6, r2, #0
 8003f68:	dd07      	ble.n	8003f7a <_write+0x16>
 8003f6a:	460c      	mov	r4, r1
 8003f6c:	198d      	adds	r5, r1, r6
	{
		__io_putchar(*ptr++);
 8003f6e:	f814 0b01 	ldrb.w	r0, [r4], #1
 8003f72:	f3af 8000 	nop.w
	for (DataIdx = 0; DataIdx < len; DataIdx++)
 8003f76:	42a5      	cmp	r5, r4
 8003f78:	d1f9      	bne.n	8003f6e <_write+0xa>
	}
	return len;
}
 8003f7a:	4630      	mov	r0, r6
 8003f7c:	bd70      	pop	{r4, r5, r6, pc}
 8003f7e:	bf00      	nop

08003f80 <_sbrk>:
{
	extern char end asm("end");
	static char *heap_end;
	char *prev_heap_end;

	if (heap_end == 0)
 8003f80:	4a0c      	ldr	r2, [pc, #48]	; (8003fb4 <_sbrk+0x34>)
{
 8003f82:	b508      	push	{r3, lr}
	if (heap_end == 0)
 8003f84:	6813      	ldr	r3, [r2, #0]
 8003f86:	b133      	cbz	r3, 8003f96 <_sbrk+0x16>
		heap_end = &end;

	prev_heap_end = heap_end;
	if (heap_end + incr > stack_ptr)
 8003f88:	4418      	add	r0, r3
 8003f8a:	4669      	mov	r1, sp
 8003f8c:	4288      	cmp	r0, r1
 8003f8e:	d809      	bhi.n	8003fa4 <_sbrk+0x24>
//		abort();
		errno = ENOMEM;
		return (caddr_t) -1;
	}

	heap_end += incr;
 8003f90:	6010      	str	r0, [r2, #0]

	return (caddr_t) prev_heap_end;
}
 8003f92:	4618      	mov	r0, r3
 8003f94:	bd08      	pop	{r3, pc}
		heap_end = &end;
 8003f96:	4908      	ldr	r1, [pc, #32]	; (8003fb8 <_sbrk+0x38>)
 8003f98:	460b      	mov	r3, r1
 8003f9a:	6011      	str	r1, [r2, #0]
	if (heap_end + incr > stack_ptr)
 8003f9c:	4669      	mov	r1, sp
 8003f9e:	4418      	add	r0, r3
 8003fa0:	4288      	cmp	r0, r1
 8003fa2:	d9f5      	bls.n	8003f90 <_sbrk+0x10>
		errno = ENOMEM;
 8003fa4:	f001 fc2a 	bl	80057fc <__errno>
 8003fa8:	220c      	movs	r2, #12
		return (caddr_t) -1;
 8003faa:	f04f 33ff 	mov.w	r3, #4294967295
		errno = ENOMEM;
 8003fae:	6002      	str	r2, [r0, #0]
}
 8003fb0:	4618      	mov	r0, r3
 8003fb2:	bd08      	pop	{r3, pc}
 8003fb4:	20000090 	.word	0x20000090
 8003fb8:	200007c0 	.word	0x200007c0

08003fbc <_close>:

int _close(int file)
{
	return -1;
}
 8003fbc:	f04f 30ff 	mov.w	r0, #4294967295
 8003fc0:	4770      	bx	lr
 8003fc2:	bf00      	nop

08003fc4 <_fstat>:


int _fstat(int file, struct stat *st)
{
	st->st_mode = S_IFCHR;
 8003fc4:	f44f 5300 	mov.w	r3, #8192	; 0x2000
	return 0;
}
 8003fc8:	2000      	movs	r0, #0
	st->st_mode = S_IFCHR;
 8003fca:	604b      	str	r3, [r1, #4]
}
 8003fcc:	4770      	bx	lr
 8003fce:	bf00      	nop

08003fd0 <_isatty>:

int _isatty(int file)
{
	return 1;
}
 8003fd0:	2001      	movs	r0, #1
 8003fd2:	4770      	bx	lr

08003fd4 <_lseek>:

int _lseek(int file, int ptr, int dir)
{
	return 0;
}
 8003fd4:	2000      	movs	r0, #0
 8003fd6:	4770      	bx	lr

08003fd8 <SystemInit>:
  */
void SystemInit(void)
{
  /* FPU settings ------------------------------------------------------------*/
  #if (__FPU_PRESENT == 1) && (__FPU_USED == 1)
    SCB->CPACR |= ((3UL << 10*2)|(3UL << 11*2));  /* set CP10 and CP11 Full Access */
 8003fd8:	4a0f      	ldr	r2, [pc, #60]	; (8004018 <SystemInit+0x40>)
  #endif
  /* Reset the RCC clock configuration to the default reset state ------------*/
  /* Set HSION bit */
  RCC->CR |= (uint32_t)0x00000001;
 8003fda:	4b10      	ldr	r3, [pc, #64]	; (800401c <SystemInit+0x44>)
    SCB->CPACR |= ((3UL << 10*2)|(3UL << 11*2));  /* set CP10 and CP11 Full Access */
 8003fdc:	f8d2 0088 	ldr.w	r0, [r2, #136]	; 0x88

  /* Reset CFGR register */
  RCC->CFGR = 0x00000000;

  /* Reset HSEON, CSSON and PLLON bits */
  RCC->CR &= (uint32_t)0xFEF6FFFF;
 8003fe0:	490f      	ldr	r1, [pc, #60]	; (8004020 <SystemInit+0x48>)
    SCB->CPACR |= ((3UL << 10*2)|(3UL << 11*2));  /* set CP10 and CP11 Full Access */
 8003fe2:	f440 0070 	orr.w	r0, r0, #15728640	; 0xf00000
{
 8003fe6:	b470      	push	{r4, r5, r6}
    SCB->CPACR |= ((3UL << 10*2)|(3UL << 11*2));  /* set CP10 and CP11 Full Access */
 8003fe8:	f8c2 0088 	str.w	r0, [r2, #136]	; 0x88
  RCC->CFGR = 0x00000000;
 8003fec:	2400      	movs	r4, #0
  RCC->CR |= (uint32_t)0x00000001;
 8003fee:	6818      	ldr	r0, [r3, #0]

  /* Configure the Vector Table location add offset address ------------------*/
#ifdef VECT_TAB_SRAM
  SCB->VTOR = RAMDTCM_BASE | VECT_TAB_OFFSET; /* Vector Table Relocation in Internal SRAM */
#else
  SCB->VTOR = FLASH_BASE | VECT_TAB_OFFSET; /* Vector Table Relocation in Internal FLASH */
 8003ff0:	f04f 6500 	mov.w	r5, #134217728	; 0x8000000
  RCC->PLLCFGR = 0x24003010;
 8003ff4:	4e0b      	ldr	r6, [pc, #44]	; (8004024 <SystemInit+0x4c>)
  RCC->CR |= (uint32_t)0x00000001;
 8003ff6:	f040 0001 	orr.w	r0, r0, #1
 8003ffa:	6018      	str	r0, [r3, #0]
  RCC->CFGR = 0x00000000;
 8003ffc:	609c      	str	r4, [r3, #8]
  RCC->CR &= (uint32_t)0xFEF6FFFF;
 8003ffe:	6818      	ldr	r0, [r3, #0]
 8004000:	4001      	ands	r1, r0
 8004002:	6019      	str	r1, [r3, #0]
  RCC->PLLCFGR = 0x24003010;
 8004004:	605e      	str	r6, [r3, #4]
  RCC->CR &= (uint32_t)0xFFFBFFFF;
 8004006:	6819      	ldr	r1, [r3, #0]
 8004008:	f421 2180 	bic.w	r1, r1, #262144	; 0x40000
 800400c:	6019      	str	r1, [r3, #0]
  RCC->CIR = 0x00000000;
 800400e:	60dc      	str	r4, [r3, #12]
  SCB->VTOR = FLASH_BASE | VECT_TAB_OFFSET; /* Vector Table Relocation in Internal FLASH */
 8004010:	6095      	str	r5, [r2, #8]
#endif
}
 8004012:	bc70      	pop	{r4, r5, r6}
 8004014:	4770      	bx	lr
 8004016:	bf00      	nop
 8004018:	e000ed00 	.word	0xe000ed00
 800401c:	40023800 	.word	0x40023800
 8004020:	fef6ffff 	.word	0xfef6ffff
 8004024:	24003010 	.word	0x24003010

08004028 <_ZN18ButtonEventsLoggerD1Ev>:

}

ButtonEventsLogger::~ButtonEventsLogger() {
	// TODO Auto-generated destructor stub
}
 8004028:	4770      	bx	lr
 800402a:	bf00      	nop

0800402c <_ZN18ButtonEventsLogger20onButtonShortPressedEh>:

void ButtonEventsLogger::onButtonShortPressed(ButtonIndex buttonIndex){
	Trace::out("Short press : %d\r\n", buttonIndex);
 800402c:	4801      	ldr	r0, [pc, #4]	; (8004034 <_ZN18ButtonEventsLogger20onButtonShortPressedEh+0x8>)
 800402e:	f000 bc49 	b.w	80048c4 <_ZN5Trace3outEPKcz>
 8004032:	bf00      	nop
 8004034:	08006f18 	.word	0x08006f18

08004038 <_ZN18ButtonEventsLogger19onButtonLongPressedEh>:
}
void ButtonEventsLogger::onButtonLongPressed(ButtonIndex buttonIndex){
	Trace::out("Long press : %d\r\n", buttonIndex);
 8004038:	4801      	ldr	r0, [pc, #4]	; (8004040 <_ZN18ButtonEventsLogger19onButtonLongPressedEh+0x8>)
 800403a:	f000 bc43 	b.w	80048c4 <_ZN5Trace3outEPKcz>
 800403e:	bf00      	nop
 8004040:	08006f2c 	.word	0x08006f2c

08004044 <_ZN18ButtonEventsLoggerD0Ev>:
ButtonEventsLogger::~ButtonEventsLogger() {
 8004044:	b510      	push	{r4, lr}
 8004046:	4604      	mov	r4, r0
}
 8004048:	2104      	movs	r1, #4
 800404a:	f001 fac2 	bl	80055d2 <_ZdlPvj>
 800404e:	4620      	mov	r0, r4
 8004050:	bd10      	pop	{r4, pc}
 8004052:	bf00      	nop

08004054 <_ZN18ButtonEventsLoggerC1Ev>:
ButtonEventsLogger::ButtonEventsLogger() {
 8004054:	b510      	push	{r4, lr}
 8004056:	4b04      	ldr	r3, [pc, #16]	; (8004068 <_ZN18ButtonEventsLoggerC1Ev+0x14>)
 8004058:	4604      	mov	r4, r0
	Trace::out("Hello World\r\n");
 800405a:	4804      	ldr	r0, [pc, #16]	; (800406c <_ZN18ButtonEventsLoggerC1Ev+0x18>)
ButtonEventsLogger::ButtonEventsLogger() {
 800405c:	6023      	str	r3, [r4, #0]
	Trace::out("Hello World\r\n");
 800405e:	f000 fc31 	bl	80048c4 <_ZN5Trace3outEPKcz>
}
 8004062:	4620      	mov	r0, r4
 8004064:	bd10      	pop	{r4, pc}
 8004066:	bf00      	nop
 8004068:	08006b60 	.word	0x08006b60
 800406c:	08006f40 	.word	0x08006f40

08004070 <_ZN3app7Factory5buildEv>:
// TODO: Implement app::Factory class
	void app::Factory::initialize(){

	}

	void app::Factory::build(){
 8004070:	b570      	push	{r4, r5, r6, lr}
		app::Factory::_theButtonEventsLogger = new ButtonEventsLogger();
 8004072:	2004      	movs	r0, #4
	void app::Factory::build(){
 8004074:	b082      	sub	sp, #8
		app::Factory::_theButtonEventsLogger = new ButtonEventsLogger();
 8004076:	4c14      	ldr	r4, [pc, #80]	; (80040c8 <_ZN3app7Factory5buildEv+0x58>)
 8004078:	f001 faad 	bl	80055d6 <_Znwj>
 800407c:	4605      	mov	r5, r0
 800407e:	f7ff ffe9 	bl	8004054 <_ZN18ButtonEventsLoggerC1Ev>
		app::Factory::_theButtonController = new ButtonController();
 8004082:	2030      	movs	r0, #48	; 0x30
		app::Factory::_theButtonEventsLogger = new ButtonEventsLogger();
 8004084:	6025      	str	r5, [r4, #0]
		app::Factory::_theButtonController = new ButtonController();
 8004086:	f001 faa6 	bl	80055d6 <_Znwj>
 800408a:	4605      	mov	r5, r0
 800408c:	f000 fb16 	bl	80046bc <_ZN16ButtonControllerC1Ev>
		app::Factory::_theButtonEventsHandler = new ButtonEventsHandler();
 8004090:	2020      	movs	r0, #32
		app::Factory::_theButtonController = new ButtonController();
 8004092:	6065      	str	r5, [r4, #4]
		app::Factory::_theButtonEventsHandler = new ButtonEventsHandler();
 8004094:	f001 fa9f 	bl	80055d6 <_Znwj>
 8004098:	4605      	mov	r5, r0
 800409a:	f000 f9a7 	bl	80043ec <_ZN19ButtonEventsHandlerC1Ev>
		_theButtonController->registerCallback(_theButtonEventsHandler,
 800409e:	6860      	ldr	r0, [r4, #4]
 80040a0:	2300      	movs	r3, #0
 80040a2:	4a0a      	ldr	r2, [pc, #40]	; (80040cc <_ZN3app7Factory5buildEv+0x5c>)
 80040a4:	4629      	mov	r1, r5
				(ButtonsControllerCallbackProvider::CallbackMethod)&ButtonEventsHandler::onButtonChanged);
 80040a6:	6806      	ldr	r6, [r0, #0]
		app::Factory::_theButtonEventsHandler = new ButtonEventsHandler();
 80040a8:	60a5      	str	r5, [r4, #8]
				(ButtonsControllerCallbackProvider::CallbackMethod)&ButtonEventsHandler::onButtonChanged);
 80040aa:	68f5      	ldr	r5, [r6, #12]
		_theButtonController->registerCallback(_theButtonEventsHandler,
 80040ac:	e9cd 2300 	strd	r2, r3, [sp]
 80040b0:	ab02      	add	r3, sp, #8
 80040b2:	e913 000c 	ldmdb	r3, {r2, r3}
 80040b6:	47a8      	blx	r5
		_theButtonEventsHandler->subscribe(_theButtonEventsLogger);
 80040b8:	68a0      	ldr	r0, [r4, #8]
 80040ba:	6821      	ldr	r1, [r4, #0]
 80040bc:	6803      	ldr	r3, [r0, #0]
 80040be:	689b      	ldr	r3, [r3, #8]
	}
 80040c0:	b002      	add	sp, #8
 80040c2:	e8bd 4070 	ldmia.w	sp!, {r4, r5, r6, lr}
		_theButtonEventsHandler->subscribe(_theButtonEventsLogger);
 80040c6:	4718      	bx	r3
 80040c8:	20000098 	.word	0x20000098
 80040cc:	08004219 	.word	0x08004219

080040d0 <Factory_initialize>:
 80040d0:	4770      	bx	lr
 80040d2:	bf00      	nop

080040d4 <Factory_build>:
    app::Factory::initialize();
}

void Factory_build()
{
    app::Factory::build();
 80040d4:	f7ff bfcc 	b.w	8004070 <_ZN3app7Factory5buildEv>

080040d8 <_ZNK13XFCustomEvent18deleteAfterConsumeEv>:

    /**
     * @brief Tells the XF if the event should be deleted after processing.
     * @return True if the event should be deleted.
     */
    bool deleteAfterConsume() const override { return _bDeleteAfterConsume; }
 80040d8:	7c00      	ldrb	r0, [r0, #16]
 80040da:	4770      	bx	lr

080040dc <_ZN11evButtonIrqD1Ev>:
#define EVBUTTONIRQ_H

#include "xf/customevent.h"
#include "events.h"

class evButtonIrq : public XFCustomEvent
 80040dc:	4770      	bx	lr
 80040de:	bf00      	nop

080040e0 <_ZN11evButtonIrqD0Ev>:
 80040e0:	b510      	push	{r4, lr}
 80040e2:	4604      	mov	r4, r0
 80040e4:	2114      	movs	r1, #20
 80040e6:	f001 fa74 	bl	80055d2 <_ZdlPvj>
 80040ea:	4620      	mov	r0, r4
 80040ec:	bd10      	pop	{r4, pc}
 80040ee:	bf00      	nop

080040f0 <_ZN11evButtonIrqC1Ev>:
#include "events.h"
#include "evbuttonirq.h"

evButtonIrq::evButtonIrq() :
 80040f0:	b510      	push	{r4, lr}
    XFCustomEvent(evButtonIrqId)
 80040f2:	2200      	movs	r2, #0
 80040f4:	2101      	movs	r1, #1
evButtonIrq::evButtonIrq() :
 80040f6:	4604      	mov	r4, r0
    XFCustomEvent(evButtonIrqId)
 80040f8:	f000 fd2a 	bl	8004b50 <_ZN13XFCustomEventC1EiPN9interface10XFReactiveE>
 80040fc:	4a02      	ldr	r2, [pc, #8]	; (8004108 <_ZN11evButtonIrqC1Ev+0x18>)
protected:
    /**
     * @brief Setter for #_bDeleteAfterConsume attribute.
     * @param bDeleteAfterConsume Parameter to be assigned. Default: true.
     */
    void setDeleteAfterConsume(bool bDeleteAfterConsume = true) { _bDeleteAfterConsume = bDeleteAfterConsume; }
 80040fe:	2300      	movs	r3, #0
{
	setDeleteAfterConsume(false);
}
 8004100:	4620      	mov	r0, r4
    XFCustomEvent(evButtonIrqId)
 8004102:	6022      	str	r2, [r4, #0]
 8004104:	7423      	strb	r3, [r4, #16]
}
 8004106:	bd10      	pop	{r4, pc}
 8004108:	08006f58 	.word	0x08006f58

0800410c <_ZN7XFEventD1Ev>:
public :
    /**
     * Default class constructor
     */
    XFEvent(XFEventType eventType, int id, interface::XFReactive * pBehavior) : _eventType(eventType), _id(id), _pBehavior(pBehavior) {}
    virtual ~XFEvent() {}		///< Class destructor
 800410c:	4770      	bx	lr
 800410e:	bf00      	nop

08004110 <_ZNK7XFEvent18deleteAfterConsumeEv>:
     */
    inline void setBehavior(interface::XFReactive * pBehavior) { _pBehavior = pBehavior; }

    inline int getId() const { return _id; }		///< Returns #_id identifying the event in the behaviors context.

    virtual bool deleteAfterConsume() const { return false; }	///< Tells the dispatcher if the event must be deleted or not.
 8004110:	2000      	movs	r0, #0
 8004112:	4770      	bx	lr

08004114 <_ZN19ButtonEventsHandler24notifyButtonShortPressedEt>:
	    	_vectSubscribers.erase(it);
	    }
	  }
}

void ButtonEventsHandler::notifyButtonShortPressed(ButtonIndex buttonIndex){
 8004114:	b570      	push	{r4, r5, r6, lr}
	  for (std::vector<ButtonEventsHandlerObserver*>::iterator it = _vectSubscribers.begin() ; it < _vectSubscribers.end(); it++)
 8004116:	e9d0 4305 	ldrd	r4, r3, [r0, #20]
 800411a:	429c      	cmp	r4, r3
 800411c:	d20a      	bcs.n	8004134 <_ZN19ButtonEventsHandler24notifyButtonShortPressedEt+0x20>
 800411e:	4605      	mov	r5, r0
 8004120:	b2ce      	uxtb	r6, r1
	    	(*it)->onButtonShortPressed(buttonIndex);
 8004122:	f854 0b04 	ldr.w	r0, [r4], #4
 8004126:	4631      	mov	r1, r6
 8004128:	6803      	ldr	r3, [r0, #0]
 800412a:	689b      	ldr	r3, [r3, #8]
 800412c:	4798      	blx	r3
	  for (std::vector<ButtonEventsHandlerObserver*>::iterator it = _vectSubscribers.begin() ; it < _vectSubscribers.end(); it++)
 800412e:	69ab      	ldr	r3, [r5, #24]
 8004130:	42a3      	cmp	r3, r4
 8004132:	d8f6      	bhi.n	8004122 <_ZN19ButtonEventsHandler24notifyButtonShortPressedEt+0xe>
}
 8004134:	bd70      	pop	{r4, r5, r6, pc}
 8004136:	bf00      	nop

08004138 <_ZThn4_N19ButtonEventsHandler24notifyButtonShortPressedEt>:
	void onButtonChanged(ButtonIndex buttonIndex, bool pressed);
	bool subscribe(ButtonEventsHandlerObserver *observer) override;
	void unsubscribe(ButtonEventsHandlerObserver *observer) override;


	void notifyButtonShortPressed(ButtonIndex buttonIndex) override;	///< @brief Notifies observers about a button short pressed.
 8004138:	f1a0 0004 	sub.w	r0, r0, #4
 800413c:	f7ff bfea 	b.w	8004114 <_ZN19ButtonEventsHandler24notifyButtonShortPressedEt>

08004140 <_ZN19ButtonEventsHandler23notifyButtonLongPressedEt>:
void ButtonEventsHandler::notifyButtonLongPressed(ButtonIndex buttonIndex){
 8004140:	b570      	push	{r4, r5, r6, lr}
	  for (std::vector<ButtonEventsHandlerObserver*>::iterator it = _vectSubscribers.begin() ; it < _vectSubscribers.end(); it++)
 8004142:	e9d0 4305 	ldrd	r4, r3, [r0, #20]
 8004146:	429c      	cmp	r4, r3
 8004148:	d20a      	bcs.n	8004160 <_ZN19ButtonEventsHandler23notifyButtonLongPressedEt+0x20>
 800414a:	4605      	mov	r5, r0
 800414c:	b2ce      	uxtb	r6, r1
	    	(*it)->onButtonLongPressed(buttonIndex);
 800414e:	f854 0b04 	ldr.w	r0, [r4], #4
 8004152:	4631      	mov	r1, r6
 8004154:	6803      	ldr	r3, [r0, #0]
 8004156:	68db      	ldr	r3, [r3, #12]
 8004158:	4798      	blx	r3
	  for (std::vector<ButtonEventsHandlerObserver*>::iterator it = _vectSubscribers.begin() ; it < _vectSubscribers.end(); it++)
 800415a:	69ab      	ldr	r3, [r5, #24]
 800415c:	42a3      	cmp	r3, r4
 800415e:	d8f6      	bhi.n	800414e <_ZN19ButtonEventsHandler23notifyButtonLongPressedEt+0xe>
}
 8004160:	bd70      	pop	{r4, r5, r6, pc}
 8004162:	bf00      	nop

08004164 <_ZThn4_N19ButtonEventsHandler23notifyButtonLongPressedEt>:
	void notifyButtonLongPressed(ButtonIndex buttonIndex) override; ///< @brief Notifies observers about a button long pressed.
 8004164:	f1a0 0004 	sub.w	r0, r0, #4
 8004168:	f7ff bfea 	b.w	8004140 <_ZN19ButtonEventsHandler23notifyButtonLongPressedEt>

0800416c <_ZN7XFEventD0Ev>:
    virtual ~XFEvent() {}		///< Class destructor
 800416c:	b510      	push	{r4, lr}
 800416e:	4604      	mov	r4, r0
 8004170:	2110      	movs	r1, #16
 8004172:	f001 fa2e 	bl	80055d2 <_ZdlPvj>
 8004176:	4620      	mov	r0, r4
 8004178:	bd10      	pop	{r4, pc}
 800417a:	bf00      	nop

0800417c <_ZN19ButtonEventsHandler11unsubscribeEPN9interface27ButtonEventsHandlerObserverE>:
void ButtonEventsHandler::unsubscribe(ButtonEventsHandlerObserver *observer) {
 800417c:	b570      	push	{r4, r5, r6, lr}
 800417e:	4605      	mov	r5, r0
      _GLIBCXX_CONSTEXPR __normal_iterator() _GLIBCXX_NOEXCEPT
      : _M_current(_Iterator()) { }

      explicit
      __normal_iterator(const _Iterator& __i) _GLIBCXX_NOEXCEPT
      : _M_current(__i) { }
 8004180:	6940      	ldr	r0, [r0, #20]
 8004182:	69aa      	ldr	r2, [r5, #24]
	  for (std::vector<ButtonEventsHandlerObserver*>::iterator it = _vectSubscribers.begin() ; it <_vectSubscribers.end(); it++){
 8004184:	4290      	cmp	r0, r2
 8004186:	d216      	bcs.n	80041b6 <_ZN19ButtonEventsHandler11unsubscribeEPN9interface27ButtonEventsHandlerObserverE+0x3a>
 8004188:	460e      	mov	r6, r1
 800418a:	e003      	b.n	8004194 <_ZN19ButtonEventsHandler11unsubscribeEPN9interface27ButtonEventsHandlerObserverE+0x18>
 800418c:	69aa      	ldr	r2, [r5, #24]
 800418e:	4620      	mov	r0, r4
 8004190:	4294      	cmp	r4, r2
 8004192:	d210      	bcs.n	80041b6 <_ZN19ButtonEventsHandler11unsubscribeEPN9interface27ButtonEventsHandlerObserverE+0x3a>
	    if (*it == observer){
 8004194:	6803      	ldr	r3, [r0, #0]
 8004196:	1d04      	adds	r4, r0, #4
 8004198:	42b3      	cmp	r3, r6
 800419a:	d1f7      	bne.n	800418c <_ZN19ButtonEventsHandler11unsubscribeEPN9interface27ButtonEventsHandlerObserverE+0x10>
  template<typename _Tp, typename _Alloc>
    typename vector<_Tp, _Alloc>::iterator
    vector<_Tp, _Alloc>::
    _M_erase(iterator __position)
    {
      if (__position + 1 != end())
 800419c:	4294      	cmp	r4, r2
 800419e:	d004      	beq.n	80041aa <_ZN19ButtonEventsHandler11unsubscribeEPN9interface27ButtonEventsHandlerObserverE+0x2e>
					   is_copy_assignable<_Tp>>;
	  // trivial types can have deleted assignment
	  static_assert( __assignable::type::value, "type is not assignable" );
#endif
	  const ptrdiff_t _Num = __last - __first;
	  if (_Num)
 80041a0:	42a2      	cmp	r2, r4
	    __builtin_memmove(__result, __first, sizeof(_Tp) * _Num);
 80041a2:	4621      	mov	r1, r4
 80041a4:	eba2 0204 	sub.w	r2, r2, r4
	  if (_Num)
 80041a8:	d106      	bne.n	80041b8 <_ZN19ButtonEventsHandler11unsubscribeEPN9interface27ButtonEventsHandlerObserverE+0x3c>
	_GLIBCXX_MOVE3(__position + 1, end(), __position);
      --this->_M_impl._M_finish;
 80041aa:	69aa      	ldr	r2, [r5, #24]
 80041ac:	3a04      	subs	r2, #4
 80041ae:	61aa      	str	r2, [r5, #24]
	  for (std::vector<ButtonEventsHandlerObserver*>::iterator it = _vectSubscribers.begin() ; it <_vectSubscribers.end(); it++){
 80041b0:	4294      	cmp	r4, r2
 80041b2:	4620      	mov	r0, r4
 80041b4:	d3ee      	bcc.n	8004194 <_ZN19ButtonEventsHandler11unsubscribeEPN9interface27ButtonEventsHandlerObserverE+0x18>
}
 80041b6:	bd70      	pop	{r4, r5, r6, pc}
	    __builtin_memmove(__result, __first, sizeof(_Tp) * _Num);
 80041b8:	f001 fb77 	bl	80058aa <memmove>
 80041bc:	69aa      	ldr	r2, [r5, #24]
 80041be:	3a04      	subs	r2, #4
 80041c0:	61aa      	str	r2, [r5, #24]
 80041c2:	e7f5      	b.n	80041b0 <_ZN19ButtonEventsHandler11unsubscribeEPN9interface27ButtonEventsHandlerObserverE+0x34>

080041c4 <_ZThn4_N19ButtonEventsHandler11unsubscribeEPN9interface27ButtonEventsHandlerObserverE>:
	void unsubscribe(ButtonEventsHandlerObserver *observer) override;
 80041c4:	f1a0 0004 	sub.w	r0, r0, #4
 80041c8:	f7ff bfd8 	b.w	800417c <_ZN19ButtonEventsHandler11unsubscribeEPN9interface27ButtonEventsHandlerObserverE>

080041cc <_ZN19ButtonEventsHandlerD1Ev>:
ButtonEventsHandler::~ButtonEventsHandler() {
 80041cc:	4b08      	ldr	r3, [pc, #32]	; (80041f0 <_ZN19ButtonEventsHandlerD1Ev+0x24>)
 80041ce:	b510      	push	{r4, lr}
 80041d0:	f103 0220 	add.w	r2, r3, #32
 80041d4:	4604      	mov	r4, r0
       *  elements themselves are pointers, the pointed-to memory is
       *  not touched in any way.  Managing the pointer is the user's
       *  responsibility.
       */
      ~vector() _GLIBCXX_NOEXCEPT
      { std::_Destroy(this->_M_impl._M_start, this->_M_impl._M_finish,
 80041d6:	6940      	ldr	r0, [r0, #20]
 80041d8:	e9c4 3200 	strd	r3, r2, [r4]
	if (__p)
 80041dc:	b108      	cbz	r0, 80041e2 <_ZN19ButtonEventsHandlerD1Ev+0x16>
	  {
	    ::operator delete(__p, std::align_val_t(alignof(_Tp)));
	    return;
	  }
#endif
	::operator delete(__p);
 80041de:	f001 fa13 	bl	8005608 <_ZdlPv>
      { std::_Destroy(this->_M_impl._M_start, this->_M_impl._M_finish,
 80041e2:	68a0      	ldr	r0, [r4, #8]
	if (__p)
 80041e4:	b108      	cbz	r0, 80041ea <_ZN19ButtonEventsHandlerD1Ev+0x1e>
 80041e6:	f001 fa0f 	bl	8005608 <_ZdlPv>
}
 80041ea:	4620      	mov	r0, r4
 80041ec:	bd10      	pop	{r4, pc}
 80041ee:	bf00      	nop
 80041f0:	08006b78 	.word	0x08006b78

080041f4 <_ZThn4_N19ButtonEventsHandlerD1Ev>:
	virtual ~ButtonEventsHandler();
 80041f4:	f1a0 0004 	sub.w	r0, r0, #4
 80041f8:	f7ff bfe8 	b.w	80041cc <_ZN19ButtonEventsHandlerD1Ev>

080041fc <_ZN19ButtonEventsHandlerD0Ev>:
ButtonEventsHandler::~ButtonEventsHandler() {
 80041fc:	b510      	push	{r4, lr}
 80041fe:	4604      	mov	r4, r0
}
 8004200:	f7ff ffe4 	bl	80041cc <_ZN19ButtonEventsHandlerD1Ev>
 8004204:	2120      	movs	r1, #32
 8004206:	4620      	mov	r0, r4
 8004208:	f001 f9e3 	bl	80055d2 <_ZdlPvj>
 800420c:	4620      	mov	r0, r4
 800420e:	bd10      	pop	{r4, pc}

08004210 <_ZThn4_N19ButtonEventsHandlerD0Ev>:
 8004210:	f1a0 0004 	sub.w	r0, r0, #4
 8004214:	f7ff bff2 	b.w	80041fc <_ZN19ButtonEventsHandlerD0Ev>

08004218 <_ZN19ButtonEventsHandler15onButtonChangedEtb>:
void ButtonEventsHandler::onButtonChanged(ButtonIndex buttonIndex, bool pressed) {
 8004218:	b570      	push	{r4, r5, r6, lr}

      // [23.2.4.2] capacity
      /**  Returns the number of elements in the %vector.  */
      size_type
      size() const _GLIBCXX_NOEXCEPT
      { return size_type(this->_M_impl._M_finish - this->_M_impl._M_start); }
 800421a:	e9d0 4302 	ldrd	r4, r3, [r0, #8]
 800421e:	1b1b      	subs	r3, r3, r4
 8004220:	109b      	asrs	r3, r3, #2
    protected:
      /// Safety check used only from at().
      void
      _M_range_check(size_type __n) const
      {
	if (__n >= this->size())
 8004222:	4299      	cmp	r1, r3
 8004224:	d224      	bcs.n	8004270 <_ZN19ButtonEventsHandler15onButtonChangedEtb+0x58>
	btnSM = _vectBtnStateSM.at(buttonIndex);
 8004226:	f854 4021 	ldr.w	r4, [r4, r1, lsl #2]
		btnSM->pushEvent(new XFEvent(XFEvent::Event,EventIds::evButtonPressedId,btnSM));
 800422a:	2010      	movs	r0, #16
 800422c:	6823      	ldr	r3, [r4, #0]
 800422e:	68dd      	ldr	r5, [r3, #12]
	if (!pressed){
 8004230:	b172      	cbz	r2, 8004250 <_ZN19ButtonEventsHandler15onButtonChangedEtb+0x38>
		btnSM->pushEvent(new XFEvent(XFEvent::Event,EventIds::evButtonReleasedId,btnSM));
 8004232:	f001 f9d0 	bl	80055d6 <_Znwj>
    XFEvent(XFEventType eventType, int id, interface::XFReactive * pBehavior) : _eventType(eventType), _id(id), _pBehavior(pBehavior) {}
 8004236:	4910      	ldr	r1, [pc, #64]	; (8004278 <_ZN19ButtonEventsHandler15onButtonChangedEtb+0x60>)
 8004238:	4603      	mov	r3, r0
 800423a:	2203      	movs	r2, #3
 800423c:	60c4      	str	r4, [r0, #12]
 800423e:	4620      	mov	r0, r4
 8004240:	6019      	str	r1, [r3, #0]
 8004242:	4619      	mov	r1, r3
 8004244:	711a      	strb	r2, [r3, #4]
 8004246:	609a      	str	r2, [r3, #8]
 8004248:	462b      	mov	r3, r5
}
 800424a:	e8bd 4070 	ldmia.w	sp!, {r4, r5, r6, lr}
		btnSM->pushEvent(new XFEvent(XFEvent::Event,EventIds::evButtonReleasedId,btnSM));
 800424e:	4718      	bx	r3
		btnSM->pushEvent(new XFEvent(XFEvent::Event,EventIds::evButtonPressedId,btnSM));
 8004250:	f001 f9c1 	bl	80055d6 <_Znwj>
 8004254:	4e08      	ldr	r6, [pc, #32]	; (8004278 <_ZN19ButtonEventsHandler15onButtonChangedEtb+0x60>)
 8004256:	4603      	mov	r3, r0
 8004258:	2103      	movs	r1, #3
 800425a:	2202      	movs	r2, #2
 800425c:	60c4      	str	r4, [r0, #12]
 800425e:	601e      	str	r6, [r3, #0]
 8004260:	4620      	mov	r0, r4
 8004262:	7119      	strb	r1, [r3, #4]
 8004264:	4619      	mov	r1, r3
 8004266:	609a      	str	r2, [r3, #8]
 8004268:	462b      	mov	r3, r5
}
 800426a:	e8bd 4070 	ldmia.w	sp!, {r4, r5, r6, lr}
		btnSM->pushEvent(new XFEvent(XFEvent::Event,EventIds::evButtonPressedId,btnSM));
 800426e:	4718      	bx	r3
	  __throw_out_of_range_fmt(__N("vector::_M_range_check: __n "
 8004270:	461a      	mov	r2, r3
 8004272:	4802      	ldr	r0, [pc, #8]	; (800427c <_ZN19ButtonEventsHandler15onButtonChangedEtb+0x64>)
 8004274:	f001 f9ed 	bl	8005652 <_ZSt24__throw_out_of_range_fmtPKcz>
 8004278:	08006f6c 	.word	0x08006f6c
 800427c:	08006f78 	.word	0x08006f78

08004280 <_ZNSt6vectorIPN9interface27ButtonEventsHandlerObserverESaIS2_EE17_M_realloc_insertIJRKS2_EEEvN9__gnu_cxx17__normal_iteratorIPS2_S4_EEDpOT_>:

#if __cplusplus >= 201103L
  template<typename _Tp, typename _Alloc>
    template<typename... _Args>
      void
      vector<_Tp, _Alloc>::
 8004280:	e92d 4ff0 	stmdb	sp!, {r4, r5, r6, r7, r8, r9, sl, fp, lr}
      { return size_type(this->_M_impl._M_finish - this->_M_impl._M_start); }
 8004284:	e9d0 5a00 	ldrd	r5, sl, [r0]
 8004288:	b083      	sub	sp, #12
 800428a:	4606      	mov	r6, r0
 800428c:	ebaa 0305 	sub.w	r3, sl, r5
 8004290:	4688      	mov	r8, r1
 8004292:	eba1 0b05 	sub.w	fp, r1, r5
      if (__a < __b)
 8004296:	109b      	asrs	r3, r3, #2
 8004298:	d034      	beq.n	8004304 <_ZNSt6vectorIPN9interface27ButtonEventsHandlerObserverESaIS2_EE17_M_realloc_insertIJRKS2_EEEvN9__gnu_cxx17__normal_iteratorIPS2_S4_EEDpOT_+0x84>
      _M_check_len(size_type __n, const char* __s) const
      {
	if (max_size() - size() < __n)
	  __throw_length_error(__N(__s));

	const size_type __len = size() + std::max(size(), __n);
 800429a:	005f      	lsls	r7, r3, #1
	return (__len < size() || __len > max_size()) ? max_size() : __len;
 800429c:	42bb      	cmp	r3, r7
 800429e:	d934      	bls.n	800430a <_ZNSt6vectorIPN9interface27ButtonEventsHandlerObserverESaIS2_EE17_M_realloc_insertIJRKS2_EEEvN9__gnu_cxx17__normal_iteratorIPS2_S4_EEDpOT_+0x8a>
 80042a0:	f06f 0703 	mvn.w	r7, #3
	return static_cast<_Tp*>(::operator new(__n * sizeof(_Tp)));
 80042a4:	4638      	mov	r0, r7
 80042a6:	9201      	str	r2, [sp, #4]
 80042a8:	f001 f995 	bl	80055d6 <_Znwj>
 80042ac:	6835      	ldr	r5, [r6, #0]
 80042ae:	4681      	mov	r9, r0
 80042b0:	4407      	add	r7, r0
 80042b2:	f8d6 a004 	ldr.w	sl, [r6, #4]
 80042b6:	eba8 0405 	sub.w	r4, r8, r5
 80042ba:	9a01      	ldr	r2, [sp, #4]

#if __cplusplus >= 201103L
      template<typename _Up, typename... _Args>
	void
	construct(_Up* __p, _Args&&... __args)
	{ ::new((void *)__p) _Up(std::forward<_Args>(__args)...); }
 80042bc:	eb19 0f0b 	cmn.w	r9, fp
 80042c0:	d002      	beq.n	80042c8 <_ZNSt6vectorIPN9interface27ButtonEventsHandlerObserverESaIS2_EE17_M_realloc_insertIJRKS2_EEEvN9__gnu_cxx17__normal_iteratorIPS2_S4_EEDpOT_+0x48>
 80042c2:	6813      	ldr	r3, [r2, #0]
 80042c4:	f849 300b 	str.w	r3, [r9, fp]
	  if (_Num)
 80042c8:	45a8      	cmp	r8, r5
 80042ca:	d004      	beq.n	80042d6 <_ZNSt6vectorIPN9interface27ButtonEventsHandlerObserverESaIS2_EE17_M_realloc_insertIJRKS2_EEEvN9__gnu_cxx17__normal_iteratorIPS2_S4_EEDpOT_+0x56>
	    __builtin_memmove(__result, __first, sizeof(_Tp) * _Num);
 80042cc:	4622      	mov	r2, r4
 80042ce:	4629      	mov	r1, r5
 80042d0:	4648      	mov	r0, r9
 80042d2:	f001 faea 	bl	80058aa <memmove>
	  __new_finish
	    = std::__uninitialized_move_if_noexcept_a
	    (this->_M_impl._M_start, __position.base(),
	     __new_start, _M_get_Tp_allocator());

	  ++__new_finish;
 80042d6:	1d23      	adds	r3, r4, #4
	  if (_Num)
 80042d8:	45c2      	cmp	sl, r8
	  const ptrdiff_t _Num = __last - __first;
 80042da:	ebaa 0408 	sub.w	r4, sl, r8
 80042de:	444b      	add	r3, r9
	  if (_Num)
 80042e0:	d005      	beq.n	80042ee <_ZNSt6vectorIPN9interface27ButtonEventsHandlerObserverESaIS2_EE17_M_realloc_insertIJRKS2_EEEvN9__gnu_cxx17__normal_iteratorIPS2_S4_EEDpOT_+0x6e>
	    __builtin_memmove(__result, __first, sizeof(_Tp) * _Num);
 80042e2:	4618      	mov	r0, r3
 80042e4:	4641      	mov	r1, r8
 80042e6:	4622      	mov	r2, r4
 80042e8:	f001 fad4 	bl	8005894 <memcpy>
 80042ec:	4603      	mov	r3, r0
	  return __result + _Num;
 80042ee:	441c      	add	r4, r3
	if (__p)
 80042f0:	b115      	cbz	r5, 80042f8 <_ZNSt6vectorIPN9interface27ButtonEventsHandlerObserverESaIS2_EE17_M_realloc_insertIJRKS2_EEEvN9__gnu_cxx17__normal_iteratorIPS2_S4_EEDpOT_+0x78>
	::operator delete(__p);
 80042f2:	4628      	mov	r0, r5
 80042f4:	f001 f988 	bl	8005608 <_ZdlPv>
      _M_deallocate(this->_M_impl._M_start,
		    this->_M_impl._M_end_of_storage
		    - this->_M_impl._M_start);
      this->_M_impl._M_start = __new_start;
      this->_M_impl._M_finish = __new_finish;
      this->_M_impl._M_end_of_storage = __new_start + __len;
 80042f8:	60b7      	str	r7, [r6, #8]
      this->_M_impl._M_finish = __new_finish;
 80042fa:	e9c6 9400 	strd	r9, r4, [r6]
    }
 80042fe:	b003      	add	sp, #12
 8004300:	e8bd 8ff0 	ldmia.w	sp!, {r4, r5, r6, r7, r8, r9, sl, fp, pc}
	const size_type __len = size() + std::max(size(), __n);
 8004304:	2701      	movs	r7, #1
 8004306:	00bf      	lsls	r7, r7, #2
 8004308:	e7cc      	b.n	80042a4 <_ZNSt6vectorIPN9interface27ButtonEventsHandlerObserverESaIS2_EE17_M_realloc_insertIJRKS2_EEEvN9__gnu_cxx17__normal_iteratorIPS2_S4_EEDpOT_+0x24>
	return (__len < size() || __len > max_size()) ? max_size() : __len;
 800430a:	f1b7 4f80 	cmp.w	r7, #1073741824	; 0x40000000
 800430e:	d2c7      	bcs.n	80042a0 <_ZNSt6vectorIPN9interface27ButtonEventsHandlerObserverESaIS2_EE17_M_realloc_insertIJRKS2_EEEvN9__gnu_cxx17__normal_iteratorIPS2_S4_EEDpOT_+0x20>
	return __n != 0 ? _Tr::allocate(_M_impl, __n) : pointer();
 8004310:	2f00      	cmp	r7, #0
 8004312:	d1f8      	bne.n	8004306 <_ZNSt6vectorIPN9interface27ButtonEventsHandlerObserverESaIS2_EE17_M_realloc_insertIJRKS2_EEEvN9__gnu_cxx17__normal_iteratorIPS2_S4_EEDpOT_+0x86>
 8004314:	465c      	mov	r4, fp
 8004316:	46b9      	mov	r9, r7
 8004318:	e7d0      	b.n	80042bc <_ZNSt6vectorIPN9interface27ButtonEventsHandlerObserverESaIS2_EE17_M_realloc_insertIJRKS2_EEEvN9__gnu_cxx17__normal_iteratorIPS2_S4_EEDpOT_+0x3c>
 800431a:	bf00      	nop

0800431c <_ZN19ButtonEventsHandler9subscribeEPN9interface27ButtonEventsHandlerObserverE>:
	if (this->_M_impl._M_finish != this->_M_impl._M_end_of_storage)
 800431c:	e9d0 3206 	ldrd	r3, r2, [r0, #24]
bool ButtonEventsHandler::subscribe(ButtonEventsHandlerObserver *observer) {
 8004320:	b500      	push	{lr}
 8004322:	4293      	cmp	r3, r2
 8004324:	b083      	sub	sp, #12
 8004326:	9101      	str	r1, [sp, #4]
 8004328:	d006      	beq.n	8004338 <_ZN19ButtonEventsHandler9subscribeEPN9interface27ButtonEventsHandlerObserverE+0x1c>
	{ ::new((void *)__p) _Up(std::forward<_Args>(__args)...); }
 800432a:	b103      	cbz	r3, 800432e <_ZN19ButtonEventsHandler9subscribeEPN9interface27ButtonEventsHandlerObserverE+0x12>
 800432c:	6019      	str	r1, [r3, #0]
	    ++this->_M_impl._M_finish;
 800432e:	3304      	adds	r3, #4
 8004330:	6183      	str	r3, [r0, #24]
}
 8004332:	b003      	add	sp, #12
 8004334:	f85d fb04 	ldr.w	pc, [sp], #4
	  _M_realloc_insert(end(), __x);
 8004338:	3014      	adds	r0, #20
 800433a:	4619      	mov	r1, r3
 800433c:	aa01      	add	r2, sp, #4
 800433e:	f7ff ff9f 	bl	8004280 <_ZNSt6vectorIPN9interface27ButtonEventsHandlerObserverESaIS2_EE17_M_realloc_insertIJRKS2_EEEvN9__gnu_cxx17__normal_iteratorIPS2_S4_EEDpOT_>
 8004342:	b003      	add	sp, #12
 8004344:	f85d fb04 	ldr.w	pc, [sp], #4

08004348 <_ZThn4_N19ButtonEventsHandler9subscribeEPN9interface27ButtonEventsHandlerObserverE>:
	bool subscribe(ButtonEventsHandlerObserver *observer) override;
 8004348:	f1a0 0004 	sub.w	r0, r0, #4
 800434c:	f7ff bfe6 	b.w	800431c <_ZN19ButtonEventsHandler9subscribeEPN9interface27ButtonEventsHandlerObserverE>

08004350 <_ZNSt6vectorIP13ButtonStateSmSaIS1_EE17_M_realloc_insertIJS1_EEEvN9__gnu_cxx17__normal_iteratorIPS1_S3_EEDpOT_>:
      vector<_Tp, _Alloc>::
 8004350:	e92d 4ff0 	stmdb	sp!, {r4, r5, r6, r7, r8, r9, sl, fp, lr}
      { return size_type(this->_M_impl._M_finish - this->_M_impl._M_start); }
 8004354:	e9d0 5a00 	ldrd	r5, sl, [r0]
 8004358:	b083      	sub	sp, #12
 800435a:	4606      	mov	r6, r0
 800435c:	ebaa 0305 	sub.w	r3, sl, r5
 8004360:	4688      	mov	r8, r1
 8004362:	eba1 0b05 	sub.w	fp, r1, r5
      if (__a < __b)
 8004366:	109b      	asrs	r3, r3, #2
 8004368:	d034      	beq.n	80043d4 <_ZNSt6vectorIP13ButtonStateSmSaIS1_EE17_M_realloc_insertIJS1_EEEvN9__gnu_cxx17__normal_iteratorIPS1_S3_EEDpOT_+0x84>
	const size_type __len = size() + std::max(size(), __n);
 800436a:	005f      	lsls	r7, r3, #1
	return (__len < size() || __len > max_size()) ? max_size() : __len;
 800436c:	42bb      	cmp	r3, r7
 800436e:	d934      	bls.n	80043da <_ZNSt6vectorIP13ButtonStateSmSaIS1_EE17_M_realloc_insertIJS1_EEEvN9__gnu_cxx17__normal_iteratorIPS1_S3_EEDpOT_+0x8a>
 8004370:	f06f 0703 	mvn.w	r7, #3
	return static_cast<_Tp*>(::operator new(__n * sizeof(_Tp)));
 8004374:	4638      	mov	r0, r7
 8004376:	9201      	str	r2, [sp, #4]
 8004378:	f001 f92d 	bl	80055d6 <_Znwj>
 800437c:	6835      	ldr	r5, [r6, #0]
 800437e:	4681      	mov	r9, r0
 8004380:	4407      	add	r7, r0
 8004382:	f8d6 a004 	ldr.w	sl, [r6, #4]
 8004386:	eba8 0405 	sub.w	r4, r8, r5
 800438a:	9a01      	ldr	r2, [sp, #4]
	{ ::new((void *)__p) _Up(std::forward<_Args>(__args)...); }
 800438c:	eb19 0f0b 	cmn.w	r9, fp
 8004390:	d002      	beq.n	8004398 <_ZNSt6vectorIP13ButtonStateSmSaIS1_EE17_M_realloc_insertIJS1_EEEvN9__gnu_cxx17__normal_iteratorIPS1_S3_EEDpOT_+0x48>
 8004392:	6813      	ldr	r3, [r2, #0]
 8004394:	f849 300b 	str.w	r3, [r9, fp]
	  if (_Num)
 8004398:	45a8      	cmp	r8, r5
 800439a:	d004      	beq.n	80043a6 <_ZNSt6vectorIP13ButtonStateSmSaIS1_EE17_M_realloc_insertIJS1_EEEvN9__gnu_cxx17__normal_iteratorIPS1_S3_EEDpOT_+0x56>
	    __builtin_memmove(__result, __first, sizeof(_Tp) * _Num);
 800439c:	4622      	mov	r2, r4
 800439e:	4629      	mov	r1, r5
 80043a0:	4648      	mov	r0, r9
 80043a2:	f001 fa82 	bl	80058aa <memmove>
	  ++__new_finish;
 80043a6:	1d23      	adds	r3, r4, #4
	  if (_Num)
 80043a8:	45c2      	cmp	sl, r8
	  const ptrdiff_t _Num = __last - __first;
 80043aa:	ebaa 0408 	sub.w	r4, sl, r8
 80043ae:	444b      	add	r3, r9
	  if (_Num)
 80043b0:	d005      	beq.n	80043be <_ZNSt6vectorIP13ButtonStateSmSaIS1_EE17_M_realloc_insertIJS1_EEEvN9__gnu_cxx17__normal_iteratorIPS1_S3_EEDpOT_+0x6e>
	    __builtin_memmove(__result, __first, sizeof(_Tp) * _Num);
 80043b2:	4618      	mov	r0, r3
 80043b4:	4641      	mov	r1, r8
 80043b6:	4622      	mov	r2, r4
 80043b8:	f001 fa6c 	bl	8005894 <memcpy>
 80043bc:	4603      	mov	r3, r0
	  return __result + _Num;
 80043be:	441c      	add	r4, r3
	if (__p)
 80043c0:	b115      	cbz	r5, 80043c8 <_ZNSt6vectorIP13ButtonStateSmSaIS1_EE17_M_realloc_insertIJS1_EEEvN9__gnu_cxx17__normal_iteratorIPS1_S3_EEDpOT_+0x78>
	::operator delete(__p);
 80043c2:	4628      	mov	r0, r5
 80043c4:	f001 f920 	bl	8005608 <_ZdlPv>
      this->_M_impl._M_end_of_storage = __new_start + __len;
 80043c8:	60b7      	str	r7, [r6, #8]
      this->_M_impl._M_finish = __new_finish;
 80043ca:	e9c6 9400 	strd	r9, r4, [r6]
    }
 80043ce:	b003      	add	sp, #12
 80043d0:	e8bd 8ff0 	ldmia.w	sp!, {r4, r5, r6, r7, r8, r9, sl, fp, pc}
	const size_type __len = size() + std::max(size(), __n);
 80043d4:	2701      	movs	r7, #1
 80043d6:	00bf      	lsls	r7, r7, #2
 80043d8:	e7cc      	b.n	8004374 <_ZNSt6vectorIP13ButtonStateSmSaIS1_EE17_M_realloc_insertIJS1_EEEvN9__gnu_cxx17__normal_iteratorIPS1_S3_EEDpOT_+0x24>
	return (__len < size() || __len > max_size()) ? max_size() : __len;
 80043da:	f1b7 4f80 	cmp.w	r7, #1073741824	; 0x40000000
 80043de:	d2c7      	bcs.n	8004370 <_ZNSt6vectorIP13ButtonStateSmSaIS1_EE17_M_realloc_insertIJS1_EEEvN9__gnu_cxx17__normal_iteratorIPS1_S3_EEDpOT_+0x20>
	return __n != 0 ? _Tr::allocate(_M_impl, __n) : pointer();
 80043e0:	2f00      	cmp	r7, #0
 80043e2:	d1f8      	bne.n	80043d6 <_ZNSt6vectorIP13ButtonStateSmSaIS1_EE17_M_realloc_insertIJS1_EEEvN9__gnu_cxx17__normal_iteratorIPS1_S3_EEDpOT_+0x86>
 80043e4:	465c      	mov	r4, fp
 80043e6:	46b9      	mov	r9, r7
 80043e8:	e7d0      	b.n	800438c <_ZNSt6vectorIP13ButtonStateSmSaIS1_EE17_M_realloc_insertIJS1_EEEvN9__gnu_cxx17__normal_iteratorIPS1_S3_EEDpOT_+0x3c>
 80043ea:	bf00      	nop

080043ec <_ZN19ButtonEventsHandlerC1Ev>:
ButtonEventsHandler::ButtonEventsHandler() {
 80043ec:	e92d 41f0 	stmdb	sp!, {r4, r5, r6, r7, r8, lr}
 80043f0:	4a1b      	ldr	r2, [pc, #108]	; (8004460 <_ZN19ButtonEventsHandlerC1Ev+0x74>)
	: _Tp_alloc_type(), _M_start(), _M_finish(), _M_end_of_storage()
 80043f2:	2300      	movs	r3, #0
	assert(!_pInstance);
 80043f4:	4f1b      	ldr	r7, [pc, #108]	; (8004464 <_ZN19ButtonEventsHandlerC1Ev+0x78>)
ButtonEventsHandler::ButtonEventsHandler() {
 80043f6:	b082      	sub	sp, #8
 80043f8:	f102 0120 	add.w	r1, r2, #32
 80043fc:	6002      	str	r2, [r0, #0]
	assert(!_pInstance);
 80043fe:	683d      	ldr	r5, [r7, #0]
 8004400:	61c3      	str	r3, [r0, #28]
 8004402:	e9c0 1301 	strd	r1, r3, [r0, #4]
 8004406:	e9c0 3303 	strd	r3, r3, [r0, #12]
 800440a:	e9c0 3305 	strd	r3, r3, [r0, #20]
 800440e:	bb05      	cbnz	r5, 8004452 <_ZN19ButtonEventsHandlerC1Ev+0x66>
 8004410:	4604      	mov	r4, r0
 8004412:	f100 0808 	add.w	r8, r0, #8
	_pInstance = this;
 8004416:	6038      	str	r0, [r7, #0]
	_vectBtnStateSM.push_back(new ButtonStateSm(i,_pInstance));
 8004418:	2018      	movs	r0, #24
 800441a:	f001 f8dc 	bl	80055d6 <_Znwj>
 800441e:	683a      	ldr	r2, [r7, #0]
 8004420:	b2e9      	uxtb	r1, r5
 8004422:	4606      	mov	r6, r0
 8004424:	f000 f8cc 	bl	80045c0 <_ZN13ButtonStateSmC1EhP19ButtonEventsHandler>
 8004428:	9601      	str	r6, [sp, #4]
	if (this->_M_impl._M_finish != this->_M_impl._M_end_of_storage)
 800442a:	e9d4 1303 	ldrd	r1, r3, [r4, #12]
 800442e:	4299      	cmp	r1, r3
 8004430:	d00a      	beq.n	8004448 <_ZN19ButtonEventsHandlerC1Ev+0x5c>
	{ ::new((void *)__p) _Up(std::forward<_Args>(__args)...); }
 8004432:	b101      	cbz	r1, 8004436 <_ZN19ButtonEventsHandlerC1Ev+0x4a>
 8004434:	600e      	str	r6, [r1, #0]
	    ++this->_M_impl._M_finish;
 8004436:	3104      	adds	r1, #4
 8004438:	60e1      	str	r1, [r4, #12]
	for (int i = 0; i < 4; i++){
 800443a:	3501      	adds	r5, #1
 800443c:	2d04      	cmp	r5, #4
 800443e:	d1eb      	bne.n	8004418 <_ZN19ButtonEventsHandlerC1Ev+0x2c>
}
 8004440:	4620      	mov	r0, r4
 8004442:	b002      	add	sp, #8
 8004444:	e8bd 81f0 	ldmia.w	sp!, {r4, r5, r6, r7, r8, pc}
	  _M_realloc_insert(end(), std::forward<_Args>(__args)...);
 8004448:	aa01      	add	r2, sp, #4
 800444a:	4640      	mov	r0, r8
 800444c:	f7ff ff80 	bl	8004350 <_ZNSt6vectorIP13ButtonStateSmSaIS1_EE17_M_realloc_insertIJS1_EEEvN9__gnu_cxx17__normal_iteratorIPS1_S3_EEDpOT_>
 8004450:	e7f3      	b.n	800443a <_ZN19ButtonEventsHandlerC1Ev+0x4e>
	assert(!_pInstance);
 8004452:	3238      	adds	r2, #56	; 0x38
 8004454:	4b04      	ldr	r3, [pc, #16]	; (8004468 <_ZN19ButtonEventsHandlerC1Ev+0x7c>)
 8004456:	210e      	movs	r1, #14
 8004458:	4804      	ldr	r0, [pc, #16]	; (800446c <_ZN19ButtonEventsHandlerC1Ev+0x80>)
 800445a:	f001 f9ab 	bl	80057b4 <__assert_func>
 800445e:	bf00      	nop
 8004460:	08006b78 	.word	0x08006b78
 8004464:	200000a4 	.word	0x200000a4
 8004468:	08006fc4 	.word	0x08006fc4
 800446c:	08006fd0 	.word	0x08006fd0

08004470 <_ZN13ButtonStateSmD1Ev>:
	_theHandler = handler;

	startBehavior();
}

ButtonStateSm::~ButtonStateSm() {
 8004470:	4b03      	ldr	r3, [pc, #12]	; (8004480 <_ZN13ButtonStateSmD1Ev+0x10>)
 8004472:	b510      	push	{r4, lr}
 8004474:	4604      	mov	r4, r0
 8004476:	6003      	str	r3, [r0, #0]
 8004478:	f000 fb5a 	bl	8004b30 <_ZN10XFBehaviorD1Ev>
	// TODO Auto-generated destructor stub
}
 800447c:	4620      	mov	r0, r4
 800447e:	bd10      	pop	{r4, pc}
 8004480:	08006be4 	.word	0x08006be4

08004484 <_ZN13ButtonStateSmD0Ev>:
ButtonStateSm::~ButtonStateSm() {
 8004484:	4b05      	ldr	r3, [pc, #20]	; (800449c <_ZN13ButtonStateSmD0Ev+0x18>)
 8004486:	b510      	push	{r4, lr}
 8004488:	4604      	mov	r4, r0
 800448a:	6003      	str	r3, [r0, #0]
 800448c:	f000 fb50 	bl	8004b30 <_ZN10XFBehaviorD1Ev>
}
 8004490:	2118      	movs	r1, #24
 8004492:	4620      	mov	r0, r4
 8004494:	f001 f89d 	bl	80055d2 <_ZdlPvj>
 8004498:	4620      	mov	r0, r4
 800449a:	bd10      	pop	{r4, pc}
 800449c:	08006be4 	.word	0x08006be4

080044a0 <_ZN13ButtonStateSm12processEventEv>:
}
void ButtonStateSm::doNotifyButtonLongPressed(){
	_theHandler->notifyButtonLongPressed(btnIndex);
}

XFEventStatus ButtonStateSm::processEvent() {
 80044a0:	b5f8      	push	{r3, r4, r5, r6, r7, lr}
#ifdef TRACEDEBUG
	Trace::out("Went in ButtonStateSm%d::processEvent\r\n", this->btnIndex);
#endif
	eEventStatus eventStatus = XFEventStatus::Unknown;

	oldState = btnState;
 80044a2:	7c03      	ldrb	r3, [r0, #16]
XFEventStatus ButtonStateSm::processEvent() {
 80044a4:	4604      	mov	r4, r0
	oldState = btnState;
 80044a6:	7443      	strb	r3, [r0, #17]
	switch (btnState){
 80044a8:	2b04      	cmp	r3, #4
 80044aa:	f200 8087 	bhi.w	80045bc <_ZN13ButtonStateSm12processEventEv+0x11c>
 80044ae:	e8df f003 	tbb	[pc, r3]
 80044b2:	3e36      	.short	0x3e36
 80044b4:	2b57      	.short	0x2b57
 80044b6:	03          	.byte	0x03
 80044b7:	00          	.byte	0x00
			{
				btnState = WAIT_BUTTON_PRESSED;
				break;
			}
		case BUTTON_LONG_PRESSED:
			if(getCurrentEvent()->getEventType() == XFEvent::NullTransition)
 80044b8:	4620      	mov	r0, r4
 80044ba:	f000 fb3d 	bl	8004b38 <_ZNK10XFBehavior15getCurrentEventEv>
 80044be:	f990 3004 	ldrsb.w	r3, [r0, #4]
 80044c2:	2b02      	cmp	r3, #2
 80044c4:	d026      	beq.n	8004514 <_ZN13ButtonStateSm12processEventEv+0x74>
 80044c6:	7c62      	ldrb	r2, [r4, #17]
	eEventStatus eventStatus = XFEventStatus::Unknown;
 80044c8:	2500      	movs	r5, #0
 80044ca:	7c23      	ldrb	r3, [r4, #16]
				break;
			}
		default:
			break;
	}
	if (oldState!=btnState){
 80044cc:	429a      	cmp	r2, r3
 80044ce:	d014      	beq.n	80044fa <_ZN13ButtonStateSm12processEventEv+0x5a>
		switch(btnState)
 80044d0:	2b03      	cmp	r3, #3
 80044d2:	d014      	beq.n	80044fe <_ZN13ButtonStateSm12processEventEv+0x5e>
 80044d4:	2b04      	cmp	r3, #4
 80044d6:	d110      	bne.n	80044fa <_ZN13ButtonStateSm12processEventEv+0x5a>
	_theHandler->notifyButtonLongPressed(btnIndex);
 80044d8:	6960      	ldr	r0, [r4, #20]
 80044da:	7ca1      	ldrb	r1, [r4, #18]
 80044dc:	6803      	ldr	r3, [r0, #0]
 80044de:	695b      	ldr	r3, [r3, #20]
 80044e0:	4798      	blx	r3
			case BUTTON_LONG_PRESSED:
#ifdef TRACEDEBUG
				Trace::out("SEND LONG PRESS\r\n");
#endif
				doNotifyButtonLongPressed();
				GEN(XFNullTransition);
 80044e2:	6823      	ldr	r3, [r4, #0]
 80044e4:	2010      	movs	r0, #16
 80044e6:	68de      	ldr	r6, [r3, #12]
 80044e8:	f001 f875 	bl	80055d6 <_Znwj>
 80044ec:	4607      	mov	r7, r0
 80044ee:	2100      	movs	r1, #0
 80044f0:	f000 fb62 	bl	8004bb8 <_ZN16XFNullTransitionC1EPN9interface10XFReactiveE>
 80044f4:	4620      	mov	r0, r4
 80044f6:	4639      	mov	r1, r7
 80044f8:	47b0      	blx	r6
			default:
				break;
		}
	}
	return eventStatus;
}
 80044fa:	4628      	mov	r0, r5
 80044fc:	bdf8      	pop	{r3, r4, r5, r6, r7, pc}
	_theHandler->notifyButtonShortPressed(btnIndex);
 80044fe:	6960      	ldr	r0, [r4, #20]
 8004500:	7ca1      	ldrb	r1, [r4, #18]
 8004502:	6803      	ldr	r3, [r0, #0]
 8004504:	691b      	ldr	r3, [r3, #16]
 8004506:	e7eb      	b.n	80044e0 <_ZN13ButtonStateSm12processEventEv+0x40>
			if(getCurrentEvent()->getEventType() == XFEvent::NullTransition)
 8004508:	f000 fb16 	bl	8004b38 <_ZNK10XFBehavior15getCurrentEventEv>
 800450c:	f990 3004 	ldrsb.w	r3, [r0, #4]
 8004510:	2b02      	cmp	r3, #2
 8004512:	d1d1      	bne.n	80044b8 <_ZN13ButtonStateSm12processEventEv+0x18>
				btnState = WAIT_BUTTON_PRESSED;
 8004514:	2301      	movs	r3, #1
	eEventStatus eventStatus = XFEventStatus::Unknown;
 8004516:	2500      	movs	r5, #0
				btnState = WAIT_BUTTON_PRESSED;
 8004518:	7423      	strb	r3, [r4, #16]
}
 800451a:	4628      	mov	r0, r5
 800451c:	bdf8      	pop	{r3, r4, r5, r6, r7, pc}
			if (getCurrentEvent()->getEventType() == XFEvent::Initial)
 800451e:	f000 fb0b 	bl	8004b38 <_ZNK10XFBehavior15getCurrentEventEv>
 8004522:	f990 5004 	ldrsb.w	r5, [r0, #4]
 8004526:	2d01      	cmp	r5, #1
 8004528:	d1cd      	bne.n	80044c6 <_ZN13ButtonStateSm12processEventEv+0x26>
				btnState = WAIT_BUTTON_PRESSED;
 800452a:	7425      	strb	r5, [r4, #16]
 800452c:	e7e5      	b.n	80044fa <_ZN13ButtonStateSm12processEventEv+0x5a>
			if (getCurrentEvent()->getEventType() == XFEvent::Event
 800452e:	f000 fb03 	bl	8004b38 <_ZNK10XFBehavior15getCurrentEventEv>
					&& getCurrentEvent()->getId() == EventIds::evButtonPressedId){
 8004532:	f990 3004 	ldrsb.w	r3, [r0, #4]
 8004536:	2b03      	cmp	r3, #3
 8004538:	d1c5      	bne.n	80044c6 <_ZN13ButtonStateSm12processEventEv+0x26>
 800453a:	4620      	mov	r0, r4
 800453c:	f000 fafc 	bl	8004b38 <_ZNK10XFBehavior15getCurrentEventEv>
 8004540:	6886      	ldr	r6, [r0, #8]
 8004542:	2e02      	cmp	r6, #2
 8004544:	d1bf      	bne.n	80044c6 <_ZN13ButtonStateSm12processEventEv+0x26>
     *
     * Will work only if the current event is of type IXFEvent::Timeout.
     */
    const XFTimeout * getCurrentTimeout();

    inline void scheduleTimeout(int timeoutId, int interval) { getDispatcher()->scheduleTimeout(timeoutId, interval, this); }	///< @brief Schedules a timeout for this state machine.
 8004546:	4620      	mov	r0, r4
				eventStatus = XFEventStatus::Consumed;
 8004548:	2501      	movs	r5, #1
 800454a:	f000 faf3 	bl	8004b34 <_ZN10XFBehavior13getDispatcherEv>
 800454e:	6801      	ldr	r1, [r0, #0]
 8004550:	4623      	mov	r3, r4
 8004552:	f44f 727a 	mov.w	r2, #1000	; 0x3e8
 8004556:	698f      	ldr	r7, [r1, #24]
 8004558:	2105      	movs	r1, #5
 800455a:	47b8      	blx	r7
				btnState = BUTTON_PRESSED;
 800455c:	7426      	strb	r6, [r4, #16]
 800455e:	e7cc      	b.n	80044fa <_ZN13ButtonStateSm12processEventEv+0x5a>
			if(getCurrentEvent()->getEventType() == XFEvent::Event
 8004560:	f000 faea 	bl	8004b38 <_ZNK10XFBehavior15getCurrentEventEv>
					&& getCurrentEvent()->getId() == EventIds::evButtonReleasedId){ //On a release le button < timeLongPress
 8004564:	f990 3004 	ldrsb.w	r3, [r0, #4]
 8004568:	2b03      	cmp	r3, #3
 800456a:	d016      	beq.n	800459a <_ZN13ButtonStateSm12processEventEv+0xfa>
	eEventStatus eventStatus = XFEventStatus::Unknown;
 800456c:	2500      	movs	r5, #0
			if (getCurrentEvent()->getEventType() == XFEvent::Timeout
 800456e:	4620      	mov	r0, r4
 8004570:	f000 fae2 	bl	8004b38 <_ZNK10XFBehavior15getCurrentEventEv>
					&& getCurrentEvent()->getId() == EventIds::evButtonLongPressedId){
 8004574:	f990 6004 	ldrsb.w	r6, [r0, #4]
 8004578:	2e04      	cmp	r6, #4
 800457a:	d002      	beq.n	8004582 <_ZN13ButtonStateSm12processEventEv+0xe2>
 800457c:	7c62      	ldrb	r2, [r4, #17]
 800457e:	7c23      	ldrb	r3, [r4, #16]
 8004580:	e7a4      	b.n	80044cc <_ZN13ButtonStateSm12processEventEv+0x2c>
 8004582:	4620      	mov	r0, r4
 8004584:	f000 fad8 	bl	8004b38 <_ZNK10XFBehavior15getCurrentEventEv>
 8004588:	6883      	ldr	r3, [r0, #8]
 800458a:	2b05      	cmp	r3, #5
 800458c:	d1f6      	bne.n	800457c <_ZN13ButtonStateSm12processEventEv+0xdc>
	if (oldState!=btnState){
 800458e:	7c63      	ldrb	r3, [r4, #17]
				eventStatus = XFEventStatus::Consumed;
 8004590:	2501      	movs	r5, #1
				btnState = BUTTON_LONG_PRESSED;
 8004592:	7426      	strb	r6, [r4, #16]
	if (oldState!=btnState){
 8004594:	2b04      	cmp	r3, #4
 8004596:	d19f      	bne.n	80044d8 <_ZN13ButtonStateSm12processEventEv+0x38>
 8004598:	e7af      	b.n	80044fa <_ZN13ButtonStateSm12processEventEv+0x5a>
					&& getCurrentEvent()->getId() == EventIds::evButtonReleasedId){ //On a release le button < timeLongPress
 800459a:	4620      	mov	r0, r4
 800459c:	f000 facc 	bl	8004b38 <_ZNK10XFBehavior15getCurrentEventEv>
 80045a0:	6883      	ldr	r3, [r0, #8]
 80045a2:	2b03      	cmp	r3, #3
 80045a4:	d1e2      	bne.n	800456c <_ZN13ButtonStateSm12processEventEv+0xcc>
				btnState = BUTTON_SHORT_PRESSED;
 80045a6:	7423      	strb	r3, [r4, #16]
    inline void unscheduleTimeout(int timeoutId) { getDispatcher()->unscheduleTimeout(timeoutId, this); }						///< @brief Unschedules a timeout for this state machine.
 80045a8:	4620      	mov	r0, r4
 80045aa:	f000 fac3 	bl	8004b34 <_ZN10XFBehavior13getDispatcherEv>
 80045ae:	6803      	ldr	r3, [r0, #0]
 80045b0:	4622      	mov	r2, r4
 80045b2:	2105      	movs	r1, #5
 80045b4:	69db      	ldr	r3, [r3, #28]
				eventStatus = XFEventStatus::Consumed;
 80045b6:	2501      	movs	r5, #1
 80045b8:	4798      	blx	r3
 80045ba:	e7d8      	b.n	800456e <_ZN13ButtonStateSm12processEventEv+0xce>
	eEventStatus eventStatus = XFEventStatus::Unknown;
 80045bc:	2500      	movs	r5, #0
 80045be:	e79c      	b.n	80044fa <_ZN13ButtonStateSm12processEventEv+0x5a>

080045c0 <_ZN13ButtonStateSmC1EhP19ButtonEventsHandler>:
ButtonStateSm::ButtonStateSm(ButtonIndex index, ButtonEventsHandler* handler) {
 80045c0:	b570      	push	{r4, r5, r6, lr}
 80045c2:	460e      	mov	r6, r1
 80045c4:	2100      	movs	r1, #0
 80045c6:	4604      	mov	r4, r0
 80045c8:	4615      	mov	r5, r2
 80045ca:	f000 fa8b 	bl	8004ae4 <_ZN10XFBehaviorC1Eb>
 80045ce:	4905      	ldr	r1, [pc, #20]	; (80045e4 <_ZN13ButtonStateSmC1EhP19ButtonEventsHandler+0x24>)
	btnState = STATE_INITIAL;
 80045d0:	2300      	movs	r3, #0
	startBehavior();
 80045d2:	4620      	mov	r0, r4
	this->btnIndex = index;
 80045d4:	74a6      	strb	r6, [r4, #18]
	_theHandler = handler;
 80045d6:	6165      	str	r5, [r4, #20]
ButtonStateSm::ButtonStateSm(ButtonIndex index, ButtonEventsHandler* handler) {
 80045d8:	6021      	str	r1, [r4, #0]
	btnState = STATE_INITIAL;
 80045da:	7423      	strb	r3, [r4, #16]
	startBehavior();
 80045dc:	f000 fa6c 	bl	8004ab8 <_ZN10XFBehavior13startBehaviorEv>
}
 80045e0:	4620      	mov	r0, r4
 80045e2:	bd70      	pop	{r4, r5, r6, pc}
 80045e4:	08006be4 	.word	0x08006be4

080045e8 <__tcf_0>:
ButtonController::~ButtonController() {
	// TODO Auto-generated destructor stub
}

void ButtonController::onIrq(){
	static evButtonIrq e = evButtonIrq();
 80045e8:	4770      	bx	lr
 80045ea:	bf00      	nop

080045ec <_ZN16ButtonController16registerCallbackEPN9interface33ButtonsControllerCallbackProviderEMS1_FvtbE>:
	pushEvent(&e);


}
bool ButtonController::registerCallback(ButtonsControllerCallbackProvider * callbackProvider,
                              ButtonsControllerCallbackProvider::CallbackMethod callbackMethod){
 80045ec:	b430      	push	{r4, r5}
 80045ee:	4605      	mov	r5, r0
 80045f0:	b082      	sub	sp, #8
	_theCallBackProvider = callbackProvider;
	_theCallBackMethod = callbackMethod;
	return true;
}
 80045f2:	2001      	movs	r0, #1
	_theCallBackProvider = callbackProvider;
 80045f4:	61a9      	str	r1, [r5, #24]
	_theCallBackMethod = callbackMethod;
 80045f6:	f105 041c 	add.w	r4, r5, #28
                              ButtonsControllerCallbackProvider::CallbackMethod callbackMethod){
 80045fa:	a902      	add	r1, sp, #8
	_theCallBackMethod = callbackMethod;
 80045fc:	e884 000c 	stmia.w	r4, {r2, r3}
                              ButtonsControllerCallbackProvider::CallbackMethod callbackMethod){
 8004600:	e901 000c 	stmdb	r1, {r2, r3}
}
 8004604:	b002      	add	sp, #8
 8004606:	bc30      	pop	{r4, r5}
 8004608:	4770      	bx	lr
 800460a:	bf00      	nop

0800460c <_ZThn4_N16ButtonController16registerCallbackEPN9interface33ButtonsControllerCallbackProviderEMS1_FvtbE>:
	virtual ~ButtonController();
	typedef enum {STATE_INITIAL,STATE_CHECK_BUTTONS,STATE_DEBOUNCE} ButtonControllerState;

	void doCheckButtons();
	void onIrq() override;	///< @brief Called by the ISR.
    bool registerCallback(ButtonsControllerCallbackProvider * callbackProvider,
 800460c:	f1a0 0004 	sub.w	r0, r0, #4
 8004610:	f7ff bfec 	b.w	80045ec <_ZN16ButtonController16registerCallbackEPN9interface33ButtonsControllerCallbackProviderEMS1_FvtbE>

08004614 <_ZN16ButtonControllerD1Ev>:
ButtonController::~ButtonController() {
 8004614:	4b07      	ldr	r3, [pc, #28]	; (8004634 <_ZN16ButtonControllerD1Ev+0x20>)
 8004616:	f103 0108 	add.w	r1, r3, #8
 800461a:	f103 0224 	add.w	r2, r3, #36	; 0x24
 800461e:	3338      	adds	r3, #56	; 0x38
 8004620:	b510      	push	{r4, lr}
 8004622:	4604      	mov	r4, r0
 8004624:	e9c0 1200 	strd	r1, r2, [r0]
 8004628:	f840 3f08 	str.w	r3, [r0, #8]!
 800462c:	f000 fa80 	bl	8004b30 <_ZN10XFBehaviorD1Ev>
}
 8004630:	4620      	mov	r0, r4
 8004632:	bd10      	pop	{r4, pc}
 8004634:	08006c04 	.word	0x08006c04

08004638 <_ZThn4_N16ButtonControllerD1Ev>:
	virtual ~ButtonController();
 8004638:	f1a0 0004 	sub.w	r0, r0, #4
 800463c:	f7ff bfea 	b.w	8004614 <_ZN16ButtonControllerD1Ev>

08004640 <_ZThn8_N16ButtonControllerD1Ev>:
 8004640:	f1a0 0008 	sub.w	r0, r0, #8
 8004644:	f7ff bfe6 	b.w	8004614 <_ZN16ButtonControllerD1Ev>

08004648 <_ZN16ButtonControllerD0Ev>:
ButtonController::~ButtonController() {
 8004648:	4b09      	ldr	r3, [pc, #36]	; (8004670 <_ZN16ButtonControllerD0Ev+0x28>)
 800464a:	f103 0224 	add.w	r2, r3, #36	; 0x24
 800464e:	f103 0108 	add.w	r1, r3, #8
 8004652:	3338      	adds	r3, #56	; 0x38
 8004654:	b510      	push	{r4, lr}
 8004656:	4604      	mov	r4, r0
 8004658:	e9c0 1200 	strd	r1, r2, [r0]
 800465c:	f840 3f08 	str.w	r3, [r0, #8]!
 8004660:	f000 fa66 	bl	8004b30 <_ZN10XFBehaviorD1Ev>
}
 8004664:	4620      	mov	r0, r4
 8004666:	2130      	movs	r1, #48	; 0x30
 8004668:	f000 ffb3 	bl	80055d2 <_ZdlPvj>
 800466c:	4620      	mov	r0, r4
 800466e:	bd10      	pop	{r4, pc}
 8004670:	08006c04 	.word	0x08006c04

08004674 <_ZThn8_N16ButtonControllerD0Ev>:
 8004674:	f1a0 0008 	sub.w	r0, r0, #8
 8004678:	f7ff bfe6 	b.w	8004648 <_ZN16ButtonControllerD0Ev>

0800467c <_ZThn4_N16ButtonControllerD0Ev>:
 800467c:	f1a0 0004 	sub.w	r0, r0, #4
 8004680:	f7ff bfe2 	b.w	8004648 <_ZN16ButtonControllerD0Ev>

08004684 <_ZN16ButtonController5onIrqEv>:
void ButtonController::onIrq(){
 8004684:	b570      	push	{r4, r5, r6, lr}
	static evButtonIrq e = evButtonIrq();
 8004686:	4d0a      	ldr	r5, [pc, #40]	; (80046b0 <_ZN16ButtonController5onIrqEv+0x2c>)
void ButtonController::onIrq(){
 8004688:	4604      	mov	r4, r0
	static evButtonIrq e = evButtonIrq();
 800468a:	682b      	ldr	r3, [r5, #0]
 800468c:	07db      	lsls	r3, r3, #31
 800468e:	d407      	bmi.n	80046a0 <_ZN16ButtonController5onIrqEv+0x1c>
 8004690:	1d28      	adds	r0, r5, #4
 8004692:	f7ff fd2d 	bl	80040f0 <_ZN11evButtonIrqC1Ev>
 8004696:	2301      	movs	r3, #1
 8004698:	4806      	ldr	r0, [pc, #24]	; (80046b4 <_ZN16ButtonController5onIrqEv+0x30>)
 800469a:	602b      	str	r3, [r5, #0]
 800469c:	f001 f8a8 	bl	80057f0 <atexit>
	pushEvent(&e);
 80046a0:	68a3      	ldr	r3, [r4, #8]
 80046a2:	f104 0008 	add.w	r0, r4, #8
 80046a6:	4904      	ldr	r1, [pc, #16]	; (80046b8 <_ZN16ButtonController5onIrqEv+0x34>)
 80046a8:	68db      	ldr	r3, [r3, #12]
}
 80046aa:	e8bd 4070 	ldmia.w	sp!, {r4, r5, r6, lr}
	pushEvent(&e);
 80046ae:	4718      	bx	r3
 80046b0:	200000a8 	.word	0x200000a8
 80046b4:	080045e9 	.word	0x080045e9
 80046b8:	200000ac 	.word	0x200000ac

080046bc <_ZN16ButtonControllerC1Ev>:
ButtonController::ButtonController(){
 80046bc:	b570      	push	{r4, r5, r6, lr}
    virtual ~ButtonIrq() {}

	virtual void onIrq() = 0;	///< @brief Called by the ISR.

protected:
	ButtonIrq() {}              ///< Not allowing to instantiate object of interface.
 80046be:	4a1c      	ldr	r2, [pc, #112]	; (8004730 <_ZN16ButtonControllerC1Ev+0x74>)
 80046c0:	f100 0608 	add.w	r6, r0, #8
     */
    virtual bool registerCallback(ButtonsControllerCallbackProvider * callbackProvider,
                                  ButtonsControllerCallbackProvider::CallbackMethod callbackMethod) = 0;

protected:
    ButtonsControllerCallbackCaller() {}                        ///< Not allowing to instantiate object of interface.
 80046c4:	4b1b      	ldr	r3, [pc, #108]	; (8004734 <_ZN16ButtonControllerC1Ev+0x78>)
 80046c6:	4604      	mov	r4, r0
 80046c8:	2100      	movs	r1, #0
	assert(!_pInstance);
 80046ca:	4d1b      	ldr	r5, [pc, #108]	; (8004738 <_ZN16ButtonControllerC1Ev+0x7c>)
 80046cc:	e9c0 2300 	strd	r2, r3, [r0]
ButtonController::ButtonController(){
 80046d0:	4630      	mov	r0, r6
 80046d2:	f000 fa07 	bl	8004ae4 <_ZN10XFBehaviorC1Eb>
 80046d6:	4a19      	ldr	r2, [pc, #100]	; (800473c <_ZN16ButtonControllerC1Ev+0x80>)
	assert(!_pInstance);
 80046d8:	69a9      	ldr	r1, [r5, #24]
ButtonController::ButtonController(){
 80046da:	f102 001c 	add.w	r0, r2, #28
 80046de:	f102 0330 	add.w	r3, r2, #48	; 0x30
 80046e2:	e9c4 2000 	strd	r2, r0, [r4]
 80046e6:	60a3      	str	r3, [r4, #8]
	assert(!_pInstance);
 80046e8:	b9d9      	cbnz	r1, 8004722 <_ZN16ButtonControllerC1Ev+0x66>
			oldBtnState[i] = true;
 80046ea:	2301      	movs	r3, #1
	startBehavior();
 80046ec:	4630      	mov	r0, r6
	_theCallBackMethod = nullptr;
 80046ee:	6221      	str	r1, [r4, #32]
	state = STATE_INITIAL;
 80046f0:	f884 1024 	strb.w	r1, [r4, #36]	; 0x24
			oldBtnState[i] = true;
 80046f4:	f884 3029 	strb.w	r3, [r4, #41]	; 0x29
			btnState[i] = true;
 80046f8:	f884 3025 	strb.w	r3, [r4, #37]	; 0x25
			oldBtnState[i] = true;
 80046fc:	f884 302a 	strb.w	r3, [r4, #42]	; 0x2a
			btnState[i] = true;
 8004700:	f884 3026 	strb.w	r3, [r4, #38]	; 0x26
			oldBtnState[i] = true;
 8004704:	f884 302b 	strb.w	r3, [r4, #43]	; 0x2b
			btnState[i] = true;
 8004708:	f884 3027 	strb.w	r3, [r4, #39]	; 0x27
			oldBtnState[i] = true;
 800470c:	f884 302c 	strb.w	r3, [r4, #44]	; 0x2c
			btnState[i] = true;
 8004710:	f884 3028 	strb.w	r3, [r4, #40]	; 0x28
	_pInstance = this;
 8004714:	61ac      	str	r4, [r5, #24]
	_theCallBackMethod = nullptr;
 8004716:	e9c4 1106 	strd	r1, r1, [r4, #24]
	startBehavior();
 800471a:	f000 f9cd 	bl	8004ab8 <_ZN10XFBehavior13startBehaviorEv>
}
 800471e:	4620      	mov	r0, r4
 8004720:	bd70      	pop	{r4, r5, r6, pc}
	assert(!_pInstance);
 8004722:	3250      	adds	r2, #80	; 0x50
 8004724:	4b06      	ldr	r3, [pc, #24]	; (8004740 <_ZN16ButtonControllerC1Ev+0x84>)
 8004726:	210d      	movs	r1, #13
 8004728:	4806      	ldr	r0, [pc, #24]	; (8004744 <_ZN16ButtonControllerC1Ev+0x88>)
 800472a:	f001 f843 	bl	80057b4 <__assert_func>
 800472e:	bf00      	nop
 8004730:	0800704c 	.word	0x0800704c
 8004734:	08007038 	.word	0x08007038
 8004738:	200000a8 	.word	0x200000a8
 800473c:	08006c0c 	.word	0x08006c0c
 8004740:	08006fc4 	.word	0x08006fc4
 8004744:	08007058 	.word	0x08007058

08004748 <_ZN16ButtonController14doCheckButtonsEv>:
		}


		return eventStatus;
	}
void ButtonController::doCheckButtons(){
 8004748:	b5f8      	push	{r3, r4, r5, r6, r7, lr}
	Trace::out("BTN0 : %d, BTN1 : %d, BTN2 : %d, BTN3 : %d\r\n",
			btnState[0], btnState[1], btnState[2] ,btnState[3]);
	Trace::out("OLDBTN0 : %d, OLDBTN1 : %d, OLDBTN2 : %d, OLDBTN3 : %d\r\n",
			oldBtnState[0], oldBtnState[1], oldBtnState[2] ,oldBtnState[3]);
#endif
	for (int i = 0; i<4; i++){
 800474a:	2400      	movs	r4, #0
void ButtonController::doCheckButtons(){
 800474c:	4606      	mov	r6, r0
	btnState[0] = HAL_GPIO_ReadPin(BUTTON0_GPIO_Port, BUTTON0_Pin);
 800474e:	2104      	movs	r1, #4
 8004750:	4820      	ldr	r0, [pc, #128]	; (80047d4 <_ZN16ButtonController14doCheckButtonsEv+0x8c>)
 8004752:	f7fc fafd 	bl	8000d50 <HAL_GPIO_ReadPin>
 8004756:	1b03      	subs	r3, r0, r4
	btnState[1] = HAL_GPIO_ReadPin(BUTTON1_GPIO_Port, BUTTON1_Pin);
 8004758:	f04f 0108 	mov.w	r1, #8
 800475c:	481d      	ldr	r0, [pc, #116]	; (80047d4 <_ZN16ButtonController14doCheckButtonsEv+0x8c>)
	btnState[0] = HAL_GPIO_ReadPin(BUTTON0_GPIO_Port, BUTTON0_Pin);
 800475e:	bf18      	it	ne
 8004760:	2301      	movne	r3, #1
 8004762:	f106 0525 	add.w	r5, r6, #37	; 0x25
 8004766:	f886 3025 	strb.w	r3, [r6, #37]	; 0x25
	btnState[1] = HAL_GPIO_ReadPin(BUTTON1_GPIO_Port, BUTTON1_Pin);
 800476a:	f7fc faf1 	bl	8000d50 <HAL_GPIO_ReadPin>
 800476e:	1b03      	subs	r3, r0, r4
	btnState[2] = HAL_GPIO_ReadPin(BUTTON2_GPIO_Port, BUTTON2_Pin);
 8004770:	f04f 0180 	mov.w	r1, #128	; 0x80
 8004774:	4818      	ldr	r0, [pc, #96]	; (80047d8 <_ZN16ButtonController14doCheckButtonsEv+0x90>)
	btnState[1] = HAL_GPIO_ReadPin(BUTTON1_GPIO_Port, BUTTON1_Pin);
 8004776:	bf18      	it	ne
 8004778:	2301      	movne	r3, #1
 800477a:	f886 3026 	strb.w	r3, [r6, #38]	; 0x26
	btnState[2] = HAL_GPIO_ReadPin(BUTTON2_GPIO_Port, BUTTON2_Pin);
 800477e:	f7fc fae7 	bl	8000d50 <HAL_GPIO_ReadPin>
 8004782:	1b03      	subs	r3, r0, r4
	btnState[3] = HAL_GPIO_ReadPin(BUTTON3_GPIO_Port, BUTTON3_Pin);
 8004784:	f04f 0140 	mov.w	r1, #64	; 0x40
 8004788:	4813      	ldr	r0, [pc, #76]	; (80047d8 <_ZN16ButtonController14doCheckButtonsEv+0x90>)
	btnState[2] = HAL_GPIO_ReadPin(BUTTON2_GPIO_Port, BUTTON2_Pin);
 800478a:	bf18      	it	ne
 800478c:	2301      	movne	r3, #1
 800478e:	f886 3027 	strb.w	r3, [r6, #39]	; 0x27
	btnState[3] = HAL_GPIO_ReadPin(BUTTON3_GPIO_Port, BUTTON3_Pin);
 8004792:	f7fc fadd 	bl	8000d50 <HAL_GPIO_ReadPin>
 8004796:	1b00      	subs	r0, r0, r4
 8004798:	bf18      	it	ne
 800479a:	2001      	movne	r0, #1
 800479c:	f886 0028 	strb.w	r0, [r6, #40]	; 0x28
		if (btnState[i] != oldBtnState[i]){
 80047a0:	f815 3b01 	ldrb.w	r3, [r5], #1
			oldBtnState[i] = btnState[i];
			//NEEED TO SEND TO THE UPPER CLASSSSSSSSSSSSSSSSSSSSSSSSSSSSSSSSSSSSSSSSSSSSS!!!!!!!!!!!!!!!!!!!!!!!!!
			//!!!!!!!!!!!!!!!!!!!!!!!!!!!!!!!!!!!!!!!!!!!!!!!!!!!!!!!!!!!!!!!!!!!!!!!!!!!!!!!
			(_theCallBackProvider->*_theCallBackMethod)(i, btnState[i]);
 80047a4:	b2a1      	uxth	r1, r4
	for (int i = 0; i<4; i++){
 80047a6:	3401      	adds	r4, #1
		if (btnState[i] != oldBtnState[i]){
 80047a8:	78e8      	ldrb	r0, [r5, #3]
			(_theCallBackProvider->*_theCallBackMethod)(i, btnState[i]);
 80047aa:	461a      	mov	r2, r3
		if (btnState[i] != oldBtnState[i]){
 80047ac:	4298      	cmp	r0, r3
 80047ae:	d00e      	beq.n	80047ce <_ZN16ButtonController14doCheckButtonsEv+0x86>
			oldBtnState[i] = btnState[i];
 80047b0:	70eb      	strb	r3, [r5, #3]
			(_theCallBackProvider->*_theCallBackMethod)(i, btnState[i]);
 80047b2:	6a37      	ldr	r7, [r6, #32]
 80047b4:	f8d6 e018 	ldr.w	lr, [r6, #24]
 80047b8:	ea4f 0c67 	mov.w	ip, r7, asr #1
 80047bc:	07ff      	lsls	r7, r7, #31
 80047be:	69f3      	ldr	r3, [r6, #28]
 80047c0:	eb0e 000c 	add.w	r0, lr, ip
 80047c4:	d502      	bpl.n	80047cc <_ZN16ButtonController14doCheckButtonsEv+0x84>
 80047c6:	f85e 700c 	ldr.w	r7, [lr, ip]
 80047ca:	58fb      	ldr	r3, [r7, r3]
 80047cc:	4798      	blx	r3
	for (int i = 0; i<4; i++){
 80047ce:	2c04      	cmp	r4, #4
 80047d0:	d1e6      	bne.n	80047a0 <_ZN16ButtonController14doCheckButtonsEv+0x58>
		}
	}


}
 80047d2:	bdf8      	pop	{r3, r4, r5, r6, r7, pc}
 80047d4:	40022000 	.word	0x40022000
 80047d8:	40021800 	.word	0x40021800

080047dc <_ZN16ButtonController12processEventEv>:
XFEventStatus ButtonController::processEvent() {
 80047dc:	b570      	push	{r4, r5, r6, lr}
	ButtonControllerState oldState = state;
 80047de:	f890 5024 	ldrb.w	r5, [r0, #36]	; 0x24
XFEventStatus ButtonController::processEvent() {
 80047e2:	4604      	mov	r4, r0
	switch(state){
 80047e4:	2d01      	cmp	r5, #1
 80047e6:	d029      	beq.n	800483c <_ZN16ButtonController12processEventEv+0x60>
 80047e8:	d31a      	bcc.n	8004820 <_ZN16ButtonController12processEventEv+0x44>
 80047ea:	2d02      	cmp	r5, #2
 80047ec:	d002      	beq.n	80047f4 <_ZN16ButtonController12processEventEv+0x18>
 80047ee:	2500      	movs	r5, #0
	}
 80047f0:	4628      	mov	r0, r5
 80047f2:	bd70      	pop	{r4, r5, r6, pc}
		if (getCurrentEvent()->getEventType() == XFEvent::Timeout &&
 80047f4:	f100 0608 	add.w	r6, r0, #8
 80047f8:	4630      	mov	r0, r6
 80047fa:	f000 f99d 	bl	8004b38 <_ZNK10XFBehavior15getCurrentEventEv>
 80047fe:	f990 3004 	ldrsb.w	r3, [r0, #4]
 8004802:	2b04      	cmp	r3, #4
 8004804:	d037      	beq.n	8004876 <_ZN16ButtonController12processEventEv+0x9a>
 8004806:	f894 3024 	ldrb.w	r3, [r4, #36]	; 0x24
		if(state!=oldState)
 800480a:	429d      	cmp	r5, r3
 800480c:	d0ef      	beq.n	80047ee <_ZN16ButtonController12processEventEv+0x12>
			switch(state)
 800480e:	2b01      	cmp	r3, #1
 8004810:	f04f 0500 	mov.w	r5, #0
 8004814:	d1ec      	bne.n	80047f0 <_ZN16ButtonController12processEventEv+0x14>
					doCheckButtons();
 8004816:	4620      	mov	r0, r4
 8004818:	f7ff ff96 	bl	8004748 <_ZN16ButtonController14doCheckButtonsEv>
	}
 800481c:	4628      	mov	r0, r5
 800481e:	bd70      	pop	{r4, r5, r6, pc}
		if (getCurrentEvent()->getEventType() == XFEvent::Initial)
 8004820:	3008      	adds	r0, #8
 8004822:	f000 f989 	bl	8004b38 <_ZNK10XFBehavior15getCurrentEventEv>
 8004826:	f990 3004 	ldrsb.w	r3, [r0, #4]
 800482a:	2b01      	cmp	r3, #1
 800482c:	d1eb      	bne.n	8004806 <_ZN16ButtonController12processEventEv+0x2a>
			state = STATE_CHECK_BUTTONS;
 800482e:	2501      	movs	r5, #1
					doCheckButtons();
 8004830:	4620      	mov	r0, r4
			state = STATE_CHECK_BUTTONS;
 8004832:	f884 5024 	strb.w	r5, [r4, #36]	; 0x24
					doCheckButtons();
 8004836:	f7ff ff87 	bl	8004748 <_ZN16ButtonController14doCheckButtonsEv>
 800483a:	e7ef      	b.n	800481c <_ZN16ButtonController12processEventEv+0x40>
		if (getCurrentEvent()->getEventType() == XFEvent::Event &&
 800483c:	f100 0608 	add.w	r6, r0, #8
 8004840:	4630      	mov	r0, r6
 8004842:	f000 f979 	bl	8004b38 <_ZNK10XFBehavior15getCurrentEventEv>
 8004846:	f990 3004 	ldrsb.w	r3, [r0, #4]
 800484a:	2b03      	cmp	r3, #3
 800484c:	d1db      	bne.n	8004806 <_ZN16ButtonController12processEventEv+0x2a>
				getCurrentEvent()->getId() == EventIds::evButtonIrqId)
 800484e:	4630      	mov	r0, r6
 8004850:	f000 f972 	bl	8004b38 <_ZNK10XFBehavior15getCurrentEventEv>
		if (getCurrentEvent()->getEventType() == XFEvent::Event &&
 8004854:	6883      	ldr	r3, [r0, #8]
 8004856:	2b01      	cmp	r3, #1
 8004858:	d1d5      	bne.n	8004806 <_ZN16ButtonController12processEventEv+0x2a>
    inline void scheduleTimeout(int timeoutId, int interval) { getDispatcher()->scheduleTimeout(timeoutId, interval, this); }	///< @brief Schedules a timeout for this state machine.
 800485a:	4630      	mov	r0, r6
			eventStatus = XFEventStatus::Consumed;
 800485c:	461d      	mov	r5, r3
 800485e:	f000 f969 	bl	8004b34 <_ZN10XFBehavior13getDispatcherEv>
 8004862:	6801      	ldr	r1, [r0, #0]
 8004864:	4633      	mov	r3, r6
 8004866:	2264      	movs	r2, #100	; 0x64
 8004868:	698e      	ldr	r6, [r1, #24]
 800486a:	2104      	movs	r1, #4
 800486c:	47b0      	blx	r6
			state = STATE_DEBOUNCE;
 800486e:	2302      	movs	r3, #2
 8004870:	f884 3024 	strb.w	r3, [r4, #36]	; 0x24
 8004874:	e7bc      	b.n	80047f0 <_ZN16ButtonController12processEventEv+0x14>
				getCurrentEvent()->getId() == EventIds::tmDebounceId)
 8004876:	4630      	mov	r0, r6
 8004878:	f000 f95e 	bl	8004b38 <_ZNK10XFBehavior15getCurrentEventEv>
		if (getCurrentEvent()->getEventType() == XFEvent::Timeout &&
 800487c:	6883      	ldr	r3, [r0, #8]
 800487e:	2b04      	cmp	r3, #4
 8004880:	d1c1      	bne.n	8004806 <_ZN16ButtonController12processEventEv+0x2a>
 8004882:	e7d4      	b.n	800482e <_ZN16ButtonController12processEventEv+0x52>

08004884 <_ZThn8_N16ButtonController12processEventEv>:
                                  ButtonsControllerCallbackProvider::CallbackMethod callbackMethod) override;


	XFEventStatus processEvent() override;		///< Remplementation from XFBehavior
 8004884:	f1a0 0008 	sub.w	r0, r0, #8
 8004888:	f7ff bfa8 	b.w	80047dc <_ZN16ButtonController12processEventEv>

0800488c <_ZN16ButtonController11getInstanceEv>:
ButtonController* ButtonController::getInstance(){
	return _pInstance;
 800488c:	4b01      	ldr	r3, [pc, #4]	; (8004894 <_ZN16ButtonController11getInstanceEv+0x8>)
}
 800488e:	6998      	ldr	r0, [r3, #24]
 8004890:	4770      	bx	lr
 8004892:	bf00      	nop
 8004894:	200000a8 	.word	0x200000a8

08004898 <_ZL17checkStringEndingPcm.part.4.constprop.8>:
	if (!len)
	{
		return 0;
	}

	if (str[len-1] != '\n')
 8004898:	4a09      	ldr	r2, [pc, #36]	; (80048c0 <_ZL17checkStringEndingPcm.part.4.constprop.8+0x28>)
 800489a:	1813      	adds	r3, r2, r0
 800489c:	f813 1c01 	ldrb.w	r1, [r3, #-1]
 80048a0:	290a      	cmp	r1, #10
 80048a2:	d009      	beq.n	80048b8 <_ZL17checkStringEndingPcm.part.4.constprop.8+0x20>
		str[len+1] = '\n';
		str[len+2] = '\0';
#else
		// Add "\n" at the end of the string
		str[len] = '\n';
		str[len+1] = '\0';
 80048a4:	2100      	movs	r1, #0
static int32_t checkStringEnding(char * str, uint32_t len)
 80048a6:	b410      	push	{r4}
		str[len] = '\n';
 80048a8:	240a      	movs	r4, #10
 80048aa:	5414      	strb	r4, [r2, r0]
		str[len+1] = '\0';
 80048ac:	7059      	strb	r1, [r3, #1]
			memmove(&str[len], &str[len-1], 2);
			str[len-1] = '\r';
		}
	}
#endif // TRACE_ADD_CRLF_SEQU
	return strlen(str);
 80048ae:	4804      	ldr	r0, [pc, #16]	; (80048c0 <_ZL17checkStringEndingPcm.part.4.constprop.8+0x28>)
}
 80048b0:	f85d 4b04 	ldr.w	r4, [sp], #4
	return strlen(str);
 80048b4:	f7fb bcfc 	b.w	80002b0 <strlen>
 80048b8:	4801      	ldr	r0, [pc, #4]	; (80048c0 <_ZL17checkStringEndingPcm.part.4.constprop.8+0x28>)
 80048ba:	f7fb bcf9 	b.w	80002b0 <strlen>
 80048be:	bf00      	nop
 80048c0:	200000c4 	.word	0x200000c4

080048c4 <_ZN5Trace3outEPKcz>:
	}
	traceUart.write(str.data(), str.length());
}

void Trace::out(const char * format, ...)
{
 80048c4:	b40f      	push	{r0, r1, r2, r3}
 80048c6:	b500      	push	{lr}
 80048c8:	b083      	sub	sp, #12
	va_list args;

	// Format string
	va_start(args, format);
	vsprintf(strTrace, format, args);
 80048ca:	480c      	ldr	r0, [pc, #48]	; (80048fc <_ZN5Trace3outEPKcz+0x38>)
{
 80048cc:	ab04      	add	r3, sp, #16
 80048ce:	f853 1b04 	ldr.w	r1, [r3], #4
	vsprintf(strTrace, format, args);
 80048d2:	461a      	mov	r2, r3
	va_start(args, format);
 80048d4:	9301      	str	r3, [sp, #4]
	vsprintf(strTrace, format, args);
 80048d6:	f001 fbe3 	bl	80060a0 <vsiprintf>
	va_end(args);

	checkStringEnding(strTrace, strlen(strTrace));
 80048da:	4808      	ldr	r0, [pc, #32]	; (80048fc <_ZN5Trace3outEPKcz+0x38>)
 80048dc:	f7fb fce8 	bl	80002b0 <strlen>
	if (!len)
 80048e0:	b108      	cbz	r0, 80048e6 <_ZN5Trace3outEPKcz+0x22>
 80048e2:	f7ff ffd9 	bl	8004898 <_ZL17checkStringEndingPcm.part.4.constprop.8>

	traceUart.write(strTrace);
 80048e6:	4905      	ldr	r1, [pc, #20]	; (80048fc <_ZN5Trace3outEPKcz+0x38>)
 80048e8:	2200      	movs	r2, #0
 80048ea:	f501 7080 	add.w	r0, r1, #256	; 0x100
 80048ee:	f000 f887 	bl	8004a00 <_ZN4Uart5writeEPKcj>
}
 80048f2:	b003      	add	sp, #12
 80048f4:	f85d eb04 	ldr.w	lr, [sp], #4
 80048f8:	b004      	add	sp, #16
 80048fa:	4770      	bx	lr
 80048fc:	200000c4 	.word	0x200000c4

08004900 <_GLOBAL__sub_I_trace_initialize>:
static Uart traceUart(TRACE_UART_CONSTRUCTOR_PARAMETERS);
 8004900:	2300      	movs	r3, #0
 8004902:	4a02      	ldr	r2, [pc, #8]	; (800490c <_GLOBAL__sub_I_trace_initialize+0xc>)
 8004904:	4802      	ldr	r0, [pc, #8]	; (8004910 <_GLOBAL__sub_I_trace_initialize+0x10>)
 8004906:	4619      	mov	r1, r3
 8004908:	f000 b82e 	b.w	8004968 <_ZN4UartC1EhP20__UART_HandleTypeDefb>
 800490c:	200005cc 	.word	0x200005cc
 8004910:	200001c4 	.word	0x200001c4

08004914 <_GLOBAL__sub_D_trace_initialize>:
 8004914:	4801      	ldr	r0, [pc, #4]	; (800491c <_GLOBAL__sub_D_trace_initialize+0x8>)
 8004916:	f000 b81d 	b.w	8004954 <_ZN4UartD1Ev>
 800491a:	bf00      	nop
 800491c:	200001c4 	.word	0x200001c4

08004920 <_Z13enterCriticalv>:

int inISR()
{
	// Variable must be put to TRUE in every ISR to indicate execution
	// of an ISR and need to put back to FALSE before leaving ISR.
	return bInISR;
 8004920:	4b05      	ldr	r3, [pc, #20]	; (8004938 <_Z13enterCriticalv+0x18>)
 8004922:	681a      	ldr	r2, [r3, #0]
}

void enterCritical()
{
	// Only disable interrupts when not calling from an ISR
	if (!inISR())
 8004924:	b922      	cbnz	r2, 8004930 <_Z13enterCriticalv+0x10>
	{
		if (!bOMEnterCriticalRegionNested)
 8004926:	685a      	ldr	r2, [r3, #4]
 8004928:	b11a      	cbz	r2, 8004932 <_Z13enterCriticalv+0x12>
		{
			// Turn off the priority configurable interrupts
		    __disable_irq();
		}
		bOMEnterCriticalRegionNested++;
 800492a:	685a      	ldr	r2, [r3, #4]
 800492c:	3201      	adds	r2, #1
 800492e:	605a      	str	r2, [r3, #4]
	}
}
 8004930:	4770      	bx	lr
  \details Disables IRQ interrupts by setting the I-bit in the CPSR.
           Can only be executed in Privileged modes.
 */
__STATIC_FORCEINLINE void __disable_irq(void)
{
  __ASM volatile ("cpsid i" : : : "memory");
 8004932:	b672      	cpsid	i
 8004934:	e7f9      	b.n	800492a <_Z13enterCriticalv+0xa>
 8004936:	bf00      	nop
 8004938:	20000254 	.word	0x20000254

0800493c <_Z12exitCriticalv>:
	return bInISR;
 800493c:	4b04      	ldr	r3, [pc, #16]	; (8004950 <_Z12exitCriticalv+0x14>)
 800493e:	681a      	ldr	r2, [r3, #0]

void exitCritical()
{
	// Only enable interrupts when not calling from an ISR
	if (!inISR())
 8004940:	b92a      	cbnz	r2, 800494e <_Z12exitCriticalv+0x12>
	{
		bOMEnterCriticalRegionNested--;
 8004942:	685a      	ldr	r2, [r3, #4]
 8004944:	3a01      	subs	r2, #1
 8004946:	605a      	str	r2, [r3, #4]

		if (!bOMEnterCriticalRegionNested)
 8004948:	685b      	ldr	r3, [r3, #4]
 800494a:	b903      	cbnz	r3, 800494e <_Z12exitCriticalv+0x12>
  __ASM volatile ("cpsie i" : : : "memory");
 800494c:	b662      	cpsie	i
		{
			// Turn on the interrupts with configurable priority
		    __enable_irq();
		}
	}
}
 800494e:	4770      	bx	lr
 8004950:	20000254 	.word	0x20000254

08004954 <_ZN4UartD1Ev>:
}

Uart::~Uart()
{

}
 8004954:	4770      	bx	lr
 8004956:	bf00      	nop

08004958 <_ZN4UartD0Ev>:
Uart::~Uart()
 8004958:	b510      	push	{r4, lr}
 800495a:	4604      	mov	r4, r0
}
 800495c:	2190      	movs	r1, #144	; 0x90
 800495e:	f000 fe38 	bl	80055d2 <_ZdlPvj>
 8004962:	4620      	mov	r0, r4
 8004964:	bd10      	pop	{r4, pc}
 8004966:	bf00      	nop

08004968 <_ZN4UartC1EhP20__UART_HandleTypeDefb>:
Uart::Uart(const unsigned char uartNbr, UART_HandleTypeDef * uartHandle, bool bTxDMA /* = false */)
 8004968:	b570      	push	{r4, r5, r6, lr}
   _bTxDMA(bTxDMA)
 800496a:	25ff      	movs	r5, #255	; 0xff
 800496c:	2600      	movs	r6, #0
	assert(uartNbr < UART_COUNT);
 800496e:	2902      	cmp	r1, #2
   _bTxDMA(bTxDMA)
 8004970:	7303      	strb	r3, [r0, #12]
 8004972:	7105      	strb	r5, [r0, #4]
 8004974:	4d0d      	ldr	r5, [pc, #52]	; (80049ac <_ZN4UartC1EhP20__UART_HandleTypeDefb+0x44>)
 8004976:	6086      	str	r6, [r0, #8]
 8004978:	6005      	str	r5, [r0, #0]
	assert(uartNbr < UART_COUNT);
 800497a:	d808      	bhi.n	800498e <_ZN4UartC1EhP20__UART_HandleTypeDefb+0x26>
        if (!_sUart[uartNbr])
 800497c:	4b0c      	ldr	r3, [pc, #48]	; (80049b0 <_ZN4UartC1EhP20__UART_HandleTypeDefb+0x48>)
 800497e:	f853 6021 	ldr.w	r6, [r3, r1, lsl #2]
 8004982:	b95e      	cbnz	r6, 800499c <_ZN4UartC1EhP20__UART_HandleTypeDefb+0x34>
            _sUart[uartNbr] = this;
 8004984:	f843 0021 	str.w	r0, [r3, r1, lsl #2]
            _uartNbr = uartNbr;
 8004988:	7101      	strb	r1, [r0, #4]
            _pUartHandle = uartHandle;
 800498a:	6082      	str	r2, [r0, #8]
}
 800498c:	bd70      	pop	{r4, r5, r6, pc}
	assert(uartNbr < UART_COUNT);
 800498e:	f105 0208 	add.w	r2, r5, #8
 8004992:	4b08      	ldr	r3, [pc, #32]	; (80049b4 <_ZN4UartC1EhP20__UART_HandleTypeDefb+0x4c>)
 8004994:	2111      	movs	r1, #17
 8004996:	4808      	ldr	r0, [pc, #32]	; (80049b8 <_ZN4UartC1EhP20__UART_HandleTypeDefb+0x50>)
 8004998:	f000 ff0c 	bl	80057b4 <__assert_func>
            assert(false);  // Error: Instance for specified UART already exists.
 800499c:	f105 0208 	add.w	r2, r5, #8
 80049a0:	4b06      	ldr	r3, [pc, #24]	; (80049bc <_ZN4UartC1EhP20__UART_HandleTypeDefb+0x54>)
 80049a2:	211f      	movs	r1, #31
 80049a4:	4804      	ldr	r0, [pc, #16]	; (80049b8 <_ZN4UartC1EhP20__UART_HandleTypeDefb+0x50>)
 80049a6:	f000 ff05 	bl	80057b4 <__assert_func>
 80049aa:	bf00      	nop
 80049ac:	08006c8c 	.word	0x08006c8c
 80049b0:	2000025c 	.word	0x2000025c
 80049b4:	080070c8 	.word	0x080070c8
 80049b8:	080070e0 	.word	0x080070e0
 80049bc:	08007144 	.word	0x08007144

080049c0 <_ZN4Uart13writeUsingDMAEPKhm>:
    }
}

void Uart::writeUsingDMA(const uint8_t * str, uint32_t length)
{
    assert(length <= sizeof(_pTxDmaBuffer));
 80049c0:	2a80      	cmp	r2, #128	; 0x80
{
 80049c2:	b570      	push	{r4, r5, r6, lr}
    assert(length <= sizeof(_pTxDmaBuffer));
 80049c4:	d810      	bhi.n	80049e8 <_ZN4Uart13writeUsingDMAEPKhm+0x28>

    // Copy data to TX DMA buffer
    ::memcpy(_pTxDmaBuffer, str, length);
 80049c6:	f100 040d 	add.w	r4, r0, #13
 80049ca:	4606      	mov	r6, r0
 80049cc:	4615      	mov	r5, r2
 80049ce:	4620      	mov	r0, r4
 80049d0:	f000 ff60 	bl	8005894 <memcpy>

    // Check that a Tx process is not already ongoing
    // (should never happen, but who knows!)
    while (_pUartHandle->gState != HAL_UART_STATE_READY)
 80049d4:	68b0      	ldr	r0, [r6, #8]
 80049d6:	6f43      	ldr	r3, [r0, #116]	; 0x74
 80049d8:	2b20      	cmp	r3, #32
 80049da:	d1fc      	bne.n	80049d6 <_ZN4Uart13writeUsingDMAEPKhm+0x16>
    { continue; }

    // Give data to TX DMA
    HAL_UART_Transmit_DMA(_pUartHandle, _pTxDmaBuffer, length);
 80049dc:	b2aa      	uxth	r2, r5
 80049de:	4621      	mov	r1, r4
}
 80049e0:	e8bd 4070 	ldmia.w	sp!, {r4, r5, r6, lr}
    HAL_UART_Transmit_DMA(_pUartHandle, _pTxDmaBuffer, length);
 80049e4:	f7fd be94 	b.w	8002710 <HAL_UART_Transmit_DMA>
    assert(length <= sizeof(_pTxDmaBuffer));
 80049e8:	4b02      	ldr	r3, [pc, #8]	; (80049f4 <_ZN4Uart13writeUsingDMAEPKhm+0x34>)
 80049ea:	2150      	movs	r1, #80	; 0x50
 80049ec:	4a02      	ldr	r2, [pc, #8]	; (80049f8 <_ZN4Uart13writeUsingDMAEPKhm+0x38>)
 80049ee:	4803      	ldr	r0, [pc, #12]	; (80049fc <_ZN4Uart13writeUsingDMAEPKhm+0x3c>)
 80049f0:	f000 fee0 	bl	80057b4 <__assert_func>
 80049f4:	0800714c 	.word	0x0800714c
 80049f8:	08006ccc 	.word	0x08006ccc
 80049fc:	080070e0 	.word	0x080070e0

08004a00 <_ZN4Uart5writeEPKcj>:
{
 8004a00:	b570      	push	{r4, r5, r6, lr}
 8004a02:	4604      	mov	r4, r0
 8004a04:	460d      	mov	r5, r1
	if (!length)
 8004a06:	b91a      	cbnz	r2, 8004a10 <_ZN4Uart5writeEPKcj+0x10>
		length = strlen(str);
 8004a08:	4608      	mov	r0, r1
 8004a0a:	f7fb fc51 	bl	80002b0 <strlen>
 8004a0e:	4602      	mov	r2, r0
    if (!_bTxDMA)
 8004a10:	7b23      	ldrb	r3, [r4, #12]
 8004a12:	b12b      	cbz	r3, 8004a20 <_ZN4Uart5writeEPKcj+0x20>
        writeUsingDMA((const uint8_t *)str, length);
 8004a14:	4629      	mov	r1, r5
 8004a16:	4620      	mov	r0, r4
}
 8004a18:	e8bd 4070 	ldmia.w	sp!, {r4, r5, r6, lr}
        writeUsingDMA((const uint8_t *)str, length);
 8004a1c:	f7ff bfd0 	b.w	80049c0 <_ZN4Uart13writeUsingDMAEPKhm>
        HAL_UART_Transmit(_pUartHandle, (uint8_t *)str, length, 50);
 8004a20:	4629      	mov	r1, r5
 8004a22:	68a0      	ldr	r0, [r4, #8]
 8004a24:	b292      	uxth	r2, r2
 8004a26:	2332      	movs	r3, #50	; 0x32
}
 8004a28:	e8bd 4070 	ldmia.w	sp!, {r4, r5, r6, lr}
        HAL_UART_Transmit(_pUartHandle, (uint8_t *)str, length, 50);
 8004a2c:	f7fe b91c 	b.w	8002c68 <HAL_UART_Transmit>

08004a30 <Reset_Handler>:

    .section  .text.Reset_Handler
  .weak  Reset_Handler
  .type  Reset_Handler, %function
Reset_Handler:  
  ldr   sp, =_estack      /* set stack pointer */
 8004a30:	f8df d034 	ldr.w	sp, [pc, #52]	; 8004a68 <LoopFillZerobss+0x14>

/* Copy the data segment initializers from flash to SRAM */  
  movs  r1, #0
 8004a34:	2100      	movs	r1, #0
  b  LoopCopyDataInit
 8004a36:	e003      	b.n	8004a40 <LoopCopyDataInit>

08004a38 <CopyDataInit>:

CopyDataInit:
  ldr  r3, =_sidata
 8004a38:	4b0c      	ldr	r3, [pc, #48]	; (8004a6c <LoopFillZerobss+0x18>)
  ldr  r3, [r3, r1]
 8004a3a:	585b      	ldr	r3, [r3, r1]
  str  r3, [r0, r1]
 8004a3c:	5043      	str	r3, [r0, r1]
  adds  r1, r1, #4
 8004a3e:	3104      	adds	r1, #4

08004a40 <LoopCopyDataInit>:
    
LoopCopyDataInit:
  ldr  r0, =_sdata
 8004a40:	480b      	ldr	r0, [pc, #44]	; (8004a70 <LoopFillZerobss+0x1c>)
  ldr  r3, =_edata
 8004a42:	4b0c      	ldr	r3, [pc, #48]	; (8004a74 <LoopFillZerobss+0x20>)
  adds  r2, r0, r1
 8004a44:	1842      	adds	r2, r0, r1
  cmp  r2, r3
 8004a46:	429a      	cmp	r2, r3
  bcc  CopyDataInit
 8004a48:	d3f6      	bcc.n	8004a38 <CopyDataInit>
  ldr  r2, =_sbss
 8004a4a:	4a0b      	ldr	r2, [pc, #44]	; (8004a78 <LoopFillZerobss+0x24>)
  b  LoopFillZerobss
 8004a4c:	e002      	b.n	8004a54 <LoopFillZerobss>

08004a4e <FillZerobss>:
/* Zero fill the bss segment. */  
FillZerobss:
  movs  r3, #0
 8004a4e:	2300      	movs	r3, #0
  str  r3, [r2], #4
 8004a50:	f842 3b04 	str.w	r3, [r2], #4

08004a54 <LoopFillZerobss>:
    
LoopFillZerobss:
  ldr  r3, = _ebss
 8004a54:	4b09      	ldr	r3, [pc, #36]	; (8004a7c <LoopFillZerobss+0x28>)
  cmp  r2, r3
 8004a56:	429a      	cmp	r2, r3
  bcc  FillZerobss
 8004a58:	d3f9      	bcc.n	8004a4e <FillZerobss>

/* Call the clock system initialization function.*/
  bl  SystemInit   
 8004a5a:	f7ff fabd 	bl	8003fd8 <SystemInit>
/* Call static constructors */
    bl __libc_init_array
 8004a5e:	f000 fee5 	bl	800582c <__libc_init_array>
/* Call the application's entry point.*/
  bl  main
 8004a62:	f7fe fa3b 	bl	8002edc <main>
  bx  lr    
 8004a66:	4770      	bx	lr
  ldr   sp, =_estack      /* set stack pointer */
 8004a68:	20050000 	.word	0x20050000
  ldr  r3, =_sidata
 8004a6c:	080073c4 	.word	0x080073c4
  ldr  r0, =_sdata
 8004a70:	20000000 	.word	0x20000000
  ldr  r3, =_edata
 8004a74:	20000074 	.word	0x20000074
  ldr  r2, =_sbss
 8004a78:	20000074 	.word	0x20000074
  ldr  r3, = _ebss
 8004a7c:	200007bc 	.word	0x200007bc

08004a80 <ADC_IRQHandler>:
 * @retval None       
*/
    .section  .text.Default_Handler,"ax",%progbits
Default_Handler:
Infinite_Loop:
  b  Infinite_Loop
 8004a80:	e7fe      	b.n	8004a80 <ADC_IRQHandler>
	...

08004a84 <_ZN10XFBehavior9pushEventEP7XFEvent>:
    return (eventStatus == XFEventStatus::Terminate);
}

interface::XFDispatcher * XFBehavior::getDispatcher()
{
    return _pDispatcher;
 8004a84:	6843      	ldr	r3, [r0, #4]
    inline void setBehavior(interface::XFReactive * pBehavior) { _pBehavior = pBehavior; }
 8004a86:	60c8      	str	r0, [r1, #12]
    getDispatcher()->pushEvent(pEvent);
 8004a88:	681a      	ldr	r2, [r3, #0]
 8004a8a:	4618      	mov	r0, r3
 8004a8c:	6953      	ldr	r3, [r2, #20]
 8004a8e:	4718      	bx	r3

08004a90 <_ZNK10XFBehavior17deleteOnTerminateEv>:
}
 8004a90:	7a40      	ldrb	r0, [r0, #9]
 8004a92:	4770      	bx	lr

08004a94 <_ZN10XFBehavior20setDeleteOnTerminateEb>:
    deleteOnTerminate_ = deleteBehaviour;
 8004a94:	7241      	strb	r1, [r0, #9]
}
 8004a96:	4770      	bx	lr

08004a98 <_ZN10XFBehavior7processEPK7XFEvent>:
    eventStatus = processEvent();
 8004a98:	6803      	ldr	r3, [r0, #0]
{
 8004a9a:	b510      	push	{r4, lr}
    eventStatus = processEvent();
 8004a9c:	69db      	ldr	r3, [r3, #28]
{
 8004a9e:	4604      	mov	r4, r0
}

void XFBehavior::setCurrentEvent(const XFEvent * pEvent)
{
    _pCurrentEvent = pEvent;
 8004aa0:	60c1      	str	r1, [r0, #12]
    eventStatus = processEvent();
 8004aa2:	4798      	blx	r3
    _pCurrentEvent = pEvent;
 8004aa4:	2300      	movs	r3, #0
    eventStatus = processEvent();
 8004aa6:	b2c0      	uxtb	r0, r0
    _pCurrentEvent = pEvent;
 8004aa8:	60e3      	str	r3, [r4, #12]
}
 8004aaa:	f1a0 0008 	sub.w	r0, r0, #8
 8004aae:	fab0 f080 	clz	r0, r0
 8004ab2:	0940      	lsrs	r0, r0, #5
 8004ab4:	bd10      	pop	{r4, pc}
 8004ab6:	bf00      	nop

08004ab8 <_ZN10XFBehavior13startBehaviorEv>:
{
 8004ab8:	b570      	push	{r4, r5, r6, lr}
 8004aba:	4604      	mov	r4, r0
    GEN(XFInitialEvent());
 8004abc:	2010      	movs	r0, #16
 8004abe:	6823      	ldr	r3, [r4, #0]
 8004ac0:	68dd      	ldr	r5, [r3, #12]
 8004ac2:	f000 fd88 	bl	80055d6 <_Znwj>
 8004ac6:	4606      	mov	r6, r0
 8004ac8:	f000 f85c 	bl	8004b84 <_ZN14XFInitialEventC1Ev>
 8004acc:	4620      	mov	r0, r4
 8004ace:	4631      	mov	r1, r6
 8004ad0:	47a8      	blx	r5
    if (hasOwnDispatcher())
 8004ad2:	7a23      	ldrb	r3, [r4, #8]
 8004ad4:	b903      	cbnz	r3, 8004ad8 <_ZN10XFBehavior13startBehaviorEv+0x20>
}
 8004ad6:	bd70      	pop	{r4, r5, r6, pc}
    return _pDispatcher;
 8004ad8:	6860      	ldr	r0, [r4, #4]
        getDispatcher()->start();
 8004ada:	6803      	ldr	r3, [r0, #0]
}
 8004adc:	e8bd 4070 	ldmia.w	sp!, {r4, r5, r6, lr}
        getDispatcher()->start();
 8004ae0:	68db      	ldr	r3, [r3, #12]
 8004ae2:	4718      	bx	r3

08004ae4 <_ZN10XFBehaviorC1Eb>:
XFBehavior::XFBehavior(bool ownDispatcher /* = false */) :
 8004ae4:	b538      	push	{r3, r4, r5, lr}
    _pCurrentEvent(nullptr)
 8004ae6:	4a11      	ldr	r2, [pc, #68]	; (8004b2c <_ZN10XFBehaviorC1Eb+0x48>)
 8004ae8:	2300      	movs	r3, #0
XFBehavior::XFBehavior(bool ownDispatcher /* = false */) :
 8004aea:	4604      	mov	r4, r0
    _pCurrentEvent(nullptr)
 8004aec:	7201      	strb	r1, [r0, #8]
 8004aee:	7243      	strb	r3, [r0, #9]
 8004af0:	60c3      	str	r3, [r0, #12]
 8004af2:	e9c0 2300 	strd	r2, r3, [r0]
    if (ownDispatcher)
 8004af6:	b189      	cbz	r1, 8004b1c <_ZN10XFBehaviorC1Eb+0x38>
        _pDispatcher = XFResourceFactory::getInstance()->createDispatcher();
 8004af8:	f000 f9c2 	bl	8004e80 <_ZN9interface17XFResourceFactory11getInstanceEv>
 8004afc:	6803      	ldr	r3, [r0, #0]
 8004afe:	685b      	ldr	r3, [r3, #4]
 8004b00:	4798      	blx	r3
 8004b02:	4605      	mov	r5, r0
 8004b04:	6060      	str	r0, [r4, #4]
    if (_pDispatcher == XFResourceFactory::getInstance()->getDefaultDispatcher())
 8004b06:	f000 f9bb 	bl	8004e80 <_ZN9interface17XFResourceFactory11getInstanceEv>
 8004b0a:	6803      	ldr	r3, [r0, #0]
 8004b0c:	681b      	ldr	r3, [r3, #0]
 8004b0e:	4798      	blx	r3
 8004b10:	4285      	cmp	r5, r0
 8004b12:	d101      	bne.n	8004b18 <_ZN10XFBehaviorC1Eb+0x34>
        _hasOwnDispatcher = false;
 8004b14:	2300      	movs	r3, #0
 8004b16:	7223      	strb	r3, [r4, #8]
}
 8004b18:	4620      	mov	r0, r4
 8004b1a:	bd38      	pop	{r3, r4, r5, pc}
        _pDispatcher = XFResourceFactory::getInstance()->getDefaultDispatcher();
 8004b1c:	f000 f9b0 	bl	8004e80 <_ZN9interface17XFResourceFactory11getInstanceEv>
 8004b20:	6803      	ldr	r3, [r0, #0]
 8004b22:	681b      	ldr	r3, [r3, #0]
 8004b24:	4798      	blx	r3
 8004b26:	4605      	mov	r5, r0
 8004b28:	6060      	str	r0, [r4, #4]
 8004b2a:	e7ec      	b.n	8004b06 <_ZN10XFBehaviorC1Eb+0x22>
 8004b2c:	08006d08 	.word	0x08006d08

08004b30 <_ZN10XFBehaviorD1Ev>:
}
 8004b30:	4770      	bx	lr
 8004b32:	bf00      	nop

08004b34 <_ZN10XFBehavior13getDispatcherEv>:
}
 8004b34:	6840      	ldr	r0, [r0, #4]
 8004b36:	4770      	bx	lr

08004b38 <_ZNK10XFBehavior15getCurrentEventEv>:
}

const XFEvent * XFBehavior::getCurrentEvent() const
{
    return _pCurrentEvent;
}
 8004b38:	68c0      	ldr	r0, [r0, #12]
 8004b3a:	4770      	bx	lr

08004b3c <_ZN13XFCustomEventD1Ev>:
class XFCustomEvent : public XFEvent
 8004b3c:	4770      	bx	lr
 8004b3e:	bf00      	nop

08004b40 <_ZN13XFCustomEventD0Ev>:
 8004b40:	b510      	push	{r4, lr}
 8004b42:	4604      	mov	r4, r0
 8004b44:	2114      	movs	r1, #20
 8004b46:	f000 fd44 	bl	80055d2 <_ZdlPvj>
 8004b4a:	4620      	mov	r0, r4
 8004b4c:	bd10      	pop	{r4, pc}
 8004b4e:	bf00      	nop

08004b50 <_ZN13XFCustomEventC1EiPN9interface10XFReactiveE>:
#include "xf/customevent.h"

XFCustomEvent::XFCustomEvent(int id, interface::XFReactive * pBehavior)
 8004b50:	b470      	push	{r4, r5, r6}
    XFEvent(XFEventType eventType, int id, interface::XFReactive * pBehavior) : _eventType(eventType), _id(id), _pBehavior(pBehavior) {}
 8004b52:	2603      	movs	r6, #3
    : XFEvent(XFEvent::Event, id, pBehavior),
      _bDeleteAfterConsume(true)
 8004b54:	4d04      	ldr	r5, [pc, #16]	; (8004b68 <_ZN13XFCustomEventC1EiPN9interface10XFReactiveE+0x18>)
 8004b56:	2401      	movs	r4, #1
 8004b58:	7106      	strb	r6, [r0, #4]
 8004b5a:	6005      	str	r5, [r0, #0]
 8004b5c:	7404      	strb	r4, [r0, #16]
 8004b5e:	e9c0 1202 	strd	r1, r2, [r0, #8]
{

}
 8004b62:	bc70      	pop	{r4, r5, r6}
 8004b64:	4770      	bx	lr
 8004b66:	bf00      	nop
 8004b68:	08007174 	.word	0x08007174

08004b6c <_ZNK14XFInitialEvent18deleteAfterConsumeEv>:
}

bool XFInitialEvent::deleteAfterConsume() const
{
    return true;
}
 8004b6c:	2001      	movs	r0, #1
 8004b6e:	4770      	bx	lr

08004b70 <_ZN14XFInitialEventD1Ev>:
 * @brief Initial event to start a behavior.
 *
 * Represents for example the first transition executed
 * in a state machine.
 */
class XFInitialEvent : public XFEvent
 8004b70:	4770      	bx	lr
 8004b72:	bf00      	nop

08004b74 <_ZN14XFInitialEventD0Ev>:
 8004b74:	b510      	push	{r4, lr}
 8004b76:	4604      	mov	r4, r0
 8004b78:	2110      	movs	r1, #16
 8004b7a:	f000 fd2a 	bl	80055d2 <_ZdlPvj>
 8004b7e:	4620      	mov	r0, r4
 8004b80:	bd10      	pop	{r4, pc}
 8004b82:	bf00      	nop

08004b84 <_ZN14XFInitialEventC1Ev>:
XFInitialEvent::XFInitialEvent()
 8004b84:	b410      	push	{r4}
 8004b86:	2401      	movs	r4, #1
    : XFEvent(XFEvent::Initial, 0, nullptr)
 8004b88:	4904      	ldr	r1, [pc, #16]	; (8004b9c <_ZN14XFInitialEventC1Ev+0x18>)
 8004b8a:	2200      	movs	r2, #0
 8004b8c:	7104      	strb	r4, [r0, #4]
 8004b8e:	6001      	str	r1, [r0, #0]
}
 8004b90:	f85d 4b04 	ldr.w	r4, [sp], #4
 8004b94:	e9c0 2202 	strd	r2, r2, [r0, #8]
 8004b98:	4770      	bx	lr
 8004b9a:	bf00      	nop
 8004b9c:	08006d64 	.word	0x08006d64

08004ba0 <_ZNK16XFNullTransition18deleteAfterConsumeEv>:
}

bool XFNullTransition::deleteAfterConsume() const
{
    return true;
}
 8004ba0:	2001      	movs	r0, #1
 8004ba2:	4770      	bx	lr

08004ba4 <_ZN16XFNullTransitionD1Ev>:
 * Represents a transition in a state machine having no trigger.
 *
 * In case one wants to directly transition from one state to
 * an other (without a trigger) a null transition must be pushed.
 */
class XFNullTransition : public XFEvent
 8004ba4:	4770      	bx	lr
 8004ba6:	bf00      	nop

08004ba8 <_ZN16XFNullTransitionD0Ev>:
 8004ba8:	b510      	push	{r4, lr}
 8004baa:	4604      	mov	r4, r0
 8004bac:	2110      	movs	r1, #16
 8004bae:	f000 fd10 	bl	80055d2 <_ZdlPvj>
 8004bb2:	4620      	mov	r0, r4
 8004bb4:	bd10      	pop	{r4, pc}
 8004bb6:	bf00      	nop

08004bb8 <_ZN16XFNullTransitionC1EPN9interface10XFReactiveE>:
XFNullTransition::XFNullTransition(interface::XFReactive * pBehavior)
 8004bb8:	b430      	push	{r4, r5}
 8004bba:	2502      	movs	r5, #2
 8004bbc:	2400      	movs	r4, #0
 : XFEvent(XFEvent::NullTransition, 0, pBehavior)
 8004bbe:	4a03      	ldr	r2, [pc, #12]	; (8004bcc <_ZN16XFNullTransitionC1EPN9interface10XFReactiveE+0x14>)
 8004bc0:	7105      	strb	r5, [r0, #4]
 8004bc2:	6084      	str	r4, [r0, #8]
 8004bc4:	60c1      	str	r1, [r0, #12]
 8004bc6:	6002      	str	r2, [r0, #0]
}
 8004bc8:	bc30      	pop	{r4, r5}
 8004bca:	4770      	bx	lr
 8004bcc:	08006d78 	.word	0x08006d78

08004bd0 <_ZNK9XFTimeout18deleteAfterConsumeEv>:
}

bool XFTimeout::deleteAfterConsume() const
{
    return true;
}
 8004bd0:	2001      	movs	r0, #1
 8004bd2:	4770      	bx	lr

08004bd4 <_ZN9XFTimeoutD1Ev>:
 * the `getEventType()` method.
 *
 * XFTimeout is inheriting from XFEvent, so every timeout is
 * also an event.
 */
class XFTimeout : public XFEvent
 8004bd4:	4770      	bx	lr
 8004bd6:	bf00      	nop

08004bd8 <_ZN9XFTimeoutD0Ev>:
 8004bd8:	b510      	push	{r4, lr}
 8004bda:	4604      	mov	r4, r0
 8004bdc:	2118      	movs	r1, #24
 8004bde:	f000 fcf8 	bl	80055d2 <_ZdlPvj>
 8004be2:	4620      	mov	r0, r4
 8004be4:	bd10      	pop	{r4, pc}
 8004be6:	bf00      	nop

08004be8 <_ZN9XFTimeoutC1EiiPN9interface10XFReactiveE>:
XFTimeout::XFTimeout(int id, int interval, interface::XFReactive * pBehavior)
 8004be8:	b470      	push	{r4, r5, r6}
 8004bea:	2604      	movs	r6, #4
   _relTicks(interval)
 8004bec:	4d04      	ldr	r5, [pc, #16]	; (8004c00 <_ZN9XFTimeoutC1EiiPN9interface10XFReactiveE+0x18>)
 8004bee:	6102      	str	r2, [r0, #16]
 8004bf0:	7106      	strb	r6, [r0, #4]
 8004bf2:	6005      	str	r5, [r0, #0]
 8004bf4:	6142      	str	r2, [r0, #20]
 8004bf6:	e9c0 1302 	strd	r1, r3, [r0, #8]
}
 8004bfa:	bc70      	pop	{r4, r5, r6}
 8004bfc:	4770      	bx	lr
 8004bfe:	bf00      	nop
 8004c00:	08006d8c 	.word	0x08006d8c

08004c04 <_ZNK9XFTimeouteqERKS_>:
    return (_pBehavior == timeout._pBehavior && getId() == timeout.getId()) ? true : false;
 8004c04:	68c2      	ldr	r2, [r0, #12]
 8004c06:	68cb      	ldr	r3, [r1, #12]
 8004c08:	429a      	cmp	r2, r3
 8004c0a:	d001      	beq.n	8004c10 <_ZNK9XFTimeouteqERKS_+0xc>
 8004c0c:	2000      	movs	r0, #0
}
 8004c0e:	4770      	bx	lr
    return (_pBehavior == timeout._pBehavior && getId() == timeout.getId()) ? true : false;
 8004c10:	6880      	ldr	r0, [r0, #8]
 8004c12:	688b      	ldr	r3, [r1, #8]
 8004c14:	1ac0      	subs	r0, r0, r3
 8004c16:	fab0 f080 	clz	r0, r0
 8004c1a:	0940      	lsrs	r0, r0, #5
 8004c1c:	4770      	bx	lr
 8004c1e:	bf00      	nop

08004c20 <_ZNK9interface12XFDispatcher9getThreadEv>:
     * @brief Returns pointer to thread executing the behavior.
     *
     * Within an IDF no threads are present and this method returns
     * always null.
     */
    virtual interface::XFThread * getThread() const { return nullptr; }
 8004c20:	2000      	movs	r0, #0
 8004c22:	4770      	bx	lr

08004c24 <_ZNK19XFDispatcherDefault8isActiveEv>:
{
public:
	XFDispatcherDefault();
	virtual  ~XFDispatcherDefault();

	virtual bool isActive() const { return false; }		///< Default dispatcher does not have a composite thread.
 8004c24:	2000      	movs	r0, #0
 8004c26:	4770      	bx	lr

08004c28 <_ZN19XFDispatcherDefault4stopEv>:
	_bExecuting = true;
}

void XFDispatcherDefault::stop()
{
	_bExecuting = false;
 8004c28:	2300      	movs	r3, #0
 8004c2a:	7103      	strb	r3, [r0, #4]
}
 8004c2c:	4770      	bx	lr
 8004c2e:	bf00      	nop

08004c30 <_ZN19XFDispatcherDefault15scheduleTimeoutEiiPN9interface10XFReactiveE>:
	}
	_pMutex->unlock();
}

void XFDispatcherDefault::scheduleTimeout(int timeoutId, int interval, interface::XFReactive * pReactive)
{
 8004c30:	e92d 41f0 	stmdb	sp!, {r4, r5, r6, r7, r8, lr}
 8004c34:	460d      	mov	r5, r1
 8004c36:	4617      	mov	r7, r2
 8004c38:	461e      	mov	r6, r3
	// Forward timeout to the timeout manager
	XFTimeoutManager::getInstance()->scheduleTimeout(timeoutId, interval, pReactive);
 8004c3a:	f000 fa8b 	bl	8005154 <_ZN9interface16XFTimeoutManager11getInstanceEv>
 8004c3e:	6804      	ldr	r4, [r0, #0]
 8004c40:	463a      	mov	r2, r7
 8004c42:	4633      	mov	r3, r6
 8004c44:	4629      	mov	r1, r5
 8004c46:	6964      	ldr	r4, [r4, #20]
 8004c48:	46a4      	mov	ip, r4
}
 8004c4a:	e8bd 41f0 	ldmia.w	sp!, {r4, r5, r6, r7, r8, lr}
	XFTimeoutManager::getInstance()->scheduleTimeout(timeoutId, interval, pReactive);
 8004c4e:	4760      	bx	ip

08004c50 <_ZN19XFDispatcherDefault17unscheduleTimeoutEiPN9interface10XFReactiveE>:

void XFDispatcherDefault::unscheduleTimeout(int timeoutId, interface::XFReactive * pReactive)
{
 8004c50:	b570      	push	{r4, r5, r6, lr}
 8004c52:	460c      	mov	r4, r1
 8004c54:	4615      	mov	r5, r2
	// Forward timeout to the timeout manager
	XFTimeoutManager::getInstance()->unscheduleTimeout(timeoutId, pReactive);
 8004c56:	f000 fa7d 	bl	8005154 <_ZN9interface16XFTimeoutManager11getInstanceEv>
 8004c5a:	6803      	ldr	r3, [r0, #0]
 8004c5c:	462a      	mov	r2, r5
 8004c5e:	4621      	mov	r1, r4
 8004c60:	699b      	ldr	r3, [r3, #24]
}
 8004c62:	e8bd 4070 	ldmia.w	sp!, {r4, r5, r6, lr}
	XFTimeoutManager::getInstance()->unscheduleTimeout(timeoutId, pReactive);
 8004c66:	4718      	bx	r3

08004c68 <_ZN19XFDispatcherDefault5startEv>:
{
 8004c68:	b508      	push	{r3, lr}
        assert(_pMutex);
 8004c6a:	6b83      	ldr	r3, [r0, #56]	; 0x38
 8004c6c:	b113      	cbz	r3, 8004c74 <_ZN19XFDispatcherDefault5startEv+0xc>
	_bExecuting = true;
 8004c6e:	2301      	movs	r3, #1
 8004c70:	7103      	strb	r3, [r0, #4]
}
 8004c72:	bd08      	pop	{r3, pc}
        assert(_pMutex);
 8004c74:	4b02      	ldr	r3, [pc, #8]	; (8004c80 <_ZN19XFDispatcherDefault5startEv+0x18>)
 8004c76:	2122      	movs	r1, #34	; 0x22
 8004c78:	4a02      	ldr	r2, [pc, #8]	; (8004c84 <_ZN19XFDispatcherDefault5startEv+0x1c>)
 8004c7a:	4803      	ldr	r0, [pc, #12]	; (8004c88 <_ZN19XFDispatcherDefault5startEv+0x20>)
 8004c7c:	f000 fd9a 	bl	80057b4 <__assert_func>
 8004c80:	08007180 	.word	0x08007180
 8004c84:	08006d98 	.word	0x08006d98
 8004c88:	08007188 	.word	0x08007188

08004c8c <_ZNK19XFDispatcherDefault13dispatchEventEPK7XFEvent>:

void XFDispatcherDefault::dispatchEvent(const XFEvent * pEvent) const
{
    XFReactive::TerminateBehavior terminateBehavior;

	terminateBehavior = pEvent->getBehavior()->process(pEvent);
 8004c8c:	68c8      	ldr	r0, [r1, #12]
 8004c8e:	6803      	ldr	r3, [r0, #0]
{
 8004c90:	b510      	push	{r4, lr}
	terminateBehavior = pEvent->getBehavior()->process(pEvent);
 8004c92:	699b      	ldr	r3, [r3, #24]
{
 8004c94:	460c      	mov	r4, r1
	terminateBehavior = pEvent->getBehavior()->process(pEvent);
 8004c96:	4798      	blx	r3

	// Check if behavior should be deleted
	if (terminateBehavior and pEvent->getBehavior()->deleteOnTerminate())
 8004c98:	b900      	cbnz	r0, 8004c9c <_ZNK19XFDispatcherDefault13dispatchEventEPK7XFEvent+0x10>
	{
		delete pEvent->getBehavior();
	}
}
 8004c9a:	bd10      	pop	{r4, pc}
	if (terminateBehavior and pEvent->getBehavior()->deleteOnTerminate())
 8004c9c:	68e0      	ldr	r0, [r4, #12]
 8004c9e:	6803      	ldr	r3, [r0, #0]
 8004ca0:	691b      	ldr	r3, [r3, #16]
 8004ca2:	4798      	blx	r3
 8004ca4:	2800      	cmp	r0, #0
 8004ca6:	d0f8      	beq.n	8004c9a <_ZNK19XFDispatcherDefault13dispatchEventEPK7XFEvent+0xe>
		delete pEvent->getBehavior();
 8004ca8:	68e0      	ldr	r0, [r4, #12]
 8004caa:	2800      	cmp	r0, #0
 8004cac:	d0f5      	beq.n	8004c9a <_ZNK19XFDispatcherDefault13dispatchEventEPK7XFEvent+0xe>
 8004cae:	6803      	ldr	r3, [r0, #0]
}
 8004cb0:	e8bd 4010 	ldmia.w	sp!, {r4, lr}
		delete pEvent->getBehavior();
 8004cb4:	685b      	ldr	r3, [r3, #4]
 8004cb6:	4718      	bx	r3

08004cb8 <_ZN19XFDispatcherDefaultC1Ev>:
XFDispatcherDefault::XFDispatcherDefault() :
 8004cb8:	b570      	push	{r4, r5, r6, lr}
 8004cba:	4604      	mov	r4, r0
	_pMutex(nullptr)
 8004cbc:	2500      	movs	r5, #0
 8004cbe:	4e0a      	ldr	r6, [pc, #40]	; (8004ce8 <_ZN19XFDispatcherDefaultC1Ev+0x30>)
 8004cc0:	3008      	adds	r0, #8
 8004cc2:	f840 6c08 	str.w	r6, [r0, #-8]
 8004cc6:	7125      	strb	r5, [r4, #4]
 8004cc8:	f000 fb16 	bl	80052f8 <_ZN19XFEventQueueDefaultC1Ev>
 8004ccc:	63a5      	str	r5, [r4, #56]	; 0x38
	_pMutex = XFMutex::create();
 8004cce:	f000 fc4d 	bl	800556c <_ZN9interface7XFMutex6createEv>
 8004cd2:	63a0      	str	r0, [r4, #56]	; 0x38
	assert(_pMutex);
 8004cd4:	b108      	cbz	r0, 8004cda <_ZN19XFDispatcherDefaultC1Ev+0x22>
}
 8004cd6:	4620      	mov	r0, r4
 8004cd8:	bd70      	pop	{r4, r5, r6, pc}
	assert(_pMutex);
 8004cda:	f106 0230 	add.w	r2, r6, #48	; 0x30
 8004cde:	4b03      	ldr	r3, [pc, #12]	; (8004cec <_ZN19XFDispatcherDefaultC1Ev+0x34>)
 8004ce0:	2118      	movs	r1, #24
 8004ce2:	4803      	ldr	r0, [pc, #12]	; (8004cf0 <_ZN19XFDispatcherDefaultC1Ev+0x38>)
 8004ce4:	f000 fd66 	bl	80057b4 <__assert_func>
 8004ce8:	08006dcc 	.word	0x08006dcc
 8004cec:	08007180 	.word	0x08007180
 8004cf0:	08007188 	.word	0x08007188

08004cf4 <_ZN19XFDispatcherDefaultD1Ev>:
XFDispatcherDefault::~XFDispatcherDefault()
 8004cf4:	4b04      	ldr	r3, [pc, #16]	; (8004d08 <_ZN19XFDispatcherDefaultD1Ev+0x14>)
 8004cf6:	b510      	push	{r4, lr}
 8004cf8:	4604      	mov	r4, r0
 8004cfa:	f840 3b08 	str.w	r3, [r0], #8
 8004cfe:	f000 fb41 	bl	8005384 <_ZN19XFEventQueueDefaultD1Ev>
}
 8004d02:	4620      	mov	r0, r4
 8004d04:	bd10      	pop	{r4, pc}
 8004d06:	bf00      	nop
 8004d08:	08006dcc 	.word	0x08006dcc

08004d0c <_ZN19XFDispatcherDefaultD0Ev>:
XFDispatcherDefault::~XFDispatcherDefault()
 8004d0c:	4b06      	ldr	r3, [pc, #24]	; (8004d28 <_ZN19XFDispatcherDefaultD0Ev+0x1c>)
 8004d0e:	b510      	push	{r4, lr}
 8004d10:	4604      	mov	r4, r0
 8004d12:	f840 3b08 	str.w	r3, [r0], #8
 8004d16:	f000 fb35 	bl	8005384 <_ZN19XFEventQueueDefaultD1Ev>
}
 8004d1a:	213c      	movs	r1, #60	; 0x3c
 8004d1c:	4620      	mov	r0, r4
 8004d1e:	f000 fc58 	bl	80055d2 <_ZdlPvj>
 8004d22:	4620      	mov	r0, r4
 8004d24:	bd10      	pop	{r4, pc}
 8004d26:	bf00      	nop
 8004d28:	08006dcc 	.word	0x08006dcc

08004d2c <_ZN19XFDispatcherDefault9pushEventEP7XFEvent>:
{
 8004d2c:	b570      	push	{r4, r5, r6, lr}
 8004d2e:	4604      	mov	r4, r0
	_pMutex->lock();
 8004d30:	6b80      	ldr	r0, [r0, #56]	; 0x38
{
 8004d32:	460d      	mov	r5, r1
	_pMutex->lock();
 8004d34:	6803      	ldr	r3, [r0, #0]
 8004d36:	689b      	ldr	r3, [r3, #8]
 8004d38:	4798      	blx	r3
		_events.push(pEvent);
 8004d3a:	4629      	mov	r1, r5
 8004d3c:	f104 0008 	add.w	r0, r4, #8
 8004d40:	f000 fb40 	bl	80053c4 <_ZN19XFEventQueueDefault4pushEPK7XFEvent>
	_pMutex->unlock();
 8004d44:	6ba0      	ldr	r0, [r4, #56]	; 0x38
 8004d46:	6803      	ldr	r3, [r0, #0]
}
 8004d48:	e8bd 4070 	ldmia.w	sp!, {r4, r5, r6, lr}
	_pMutex->unlock();
 8004d4c:	68db      	ldr	r3, [r3, #12]
 8004d4e:	4718      	bx	r3

08004d50 <_ZN19XFDispatcherDefault7executeEPKv>:
{
 8004d50:	b538      	push	{r3, r4, r5, lr}
	while(_bExecuting)
 8004d52:	7903      	ldrb	r3, [r0, #4]
 8004d54:	b183      	cbz	r3, 8004d78 <_ZN19XFDispatcherDefault7executeEPKv+0x28>
 8004d56:	4604      	mov	r4, r0
 8004d58:	f100 0508 	add.w	r5, r0, #8
		while (_events.empty() && _bExecuting)
 8004d5c:	4628      	mov	r0, r5
 8004d5e:	f000 fac1 	bl	80052e4 <_ZNK19XFEventQueueDefault5emptyEv>
 8004d62:	b110      	cbz	r0, 8004d6a <_ZN19XFDispatcherDefault7executeEPKv+0x1a>
 8004d64:	7923      	ldrb	r3, [r4, #4]
 8004d66:	2b00      	cmp	r3, #0
 8004d68:	d1f8      	bne.n	8004d5c <_ZN19XFDispatcherDefault7executeEPKv+0xc>
		executeOnce();  // Dispatch next event
 8004d6a:	6823      	ldr	r3, [r4, #0]
 8004d6c:	4620      	mov	r0, r4
 8004d6e:	6a9b      	ldr	r3, [r3, #40]	; 0x28
 8004d70:	4798      	blx	r3
	while(_bExecuting)
 8004d72:	7923      	ldrb	r3, [r4, #4]
 8004d74:	2b00      	cmp	r3, #0
 8004d76:	d1f1      	bne.n	8004d5c <_ZN19XFDispatcherDefault7executeEPKv+0xc>
}
 8004d78:	2000      	movs	r0, #0
 8004d7a:	bd38      	pop	{r3, r4, r5, pc}

08004d7c <_ZN19XFDispatcherDefault11executeOnceEv>:
{
 8004d7c:	b5f8      	push	{r3, r4, r5, r6, r7, lr}
    if (!_events.empty() and _bExecuting)
 8004d7e:	f100 0508 	add.w	r5, r0, #8
{
 8004d82:	4604      	mov	r4, r0
    if (!_events.empty() and _bExecuting)
 8004d84:	4628      	mov	r0, r5
 8004d86:	f000 faad 	bl	80052e4 <_ZNK19XFEventQueueDefault5emptyEv>
 8004d8a:	b920      	cbnz	r0, 8004d96 <_ZN19XFDispatcherDefault11executeOnceEv+0x1a>
 8004d8c:	4606      	mov	r6, r0
 8004d8e:	7920      	ldrb	r0, [r4, #4]
 8004d90:	b918      	cbnz	r0, 8004d9a <_ZN19XFDispatcherDefault11executeOnceEv+0x1e>
}
 8004d92:	bdf8      	pop	{r3, r4, r5, r6, r7, pc}
                delete pEvent;
 8004d94:	4798      	blx	r3
 8004d96:	7920      	ldrb	r0, [r4, #4]
}
 8004d98:	bdf8      	pop	{r3, r4, r5, r6, r7, pc}
        _pMutex->lock();
 8004d9a:	6ba0      	ldr	r0, [r4, #56]	; 0x38
 8004d9c:	6803      	ldr	r3, [r0, #0]
 8004d9e:	689b      	ldr	r3, [r3, #8]
 8004da0:	4798      	blx	r3
        	pEvent = _events.front(); _events.pop();
 8004da2:	4628      	mov	r0, r5
 8004da4:	f000 fba0 	bl	80054e8 <_ZN19XFEventQueueDefault5frontEv>
 8004da8:	4607      	mov	r7, r0
 8004daa:	4628      	mov	r0, r5
 8004dac:	f000 fbaa 	bl	8005504 <_ZN19XFEventQueueDefault3popEv>
    	_pMutex->unlock();
 8004db0:	6ba0      	ldr	r0, [r4, #56]	; 0x38
 8004db2:	6803      	ldr	r3, [r0, #0]
 8004db4:	68db      	ldr	r3, [r3, #12]
 8004db6:	4798      	blx	r3
        if (pEvent)
 8004db8:	2f00      	cmp	r7, #0
 8004dba:	d0ec      	beq.n	8004d96 <_ZN19XFDispatcherDefault11executeOnceEv+0x1a>
            dispatchEvent(pEvent);
 8004dbc:	6823      	ldr	r3, [r4, #0]
 8004dbe:	4639      	mov	r1, r7
 8004dc0:	4620      	mov	r0, r4
 8004dc2:	6adb      	ldr	r3, [r3, #44]	; 0x2c
 8004dc4:	4798      	blx	r3
            if (pEvent->getEventType() == XFEvent::Terminate)
 8004dc6:	f997 3004 	ldrsb.w	r3, [r7, #4]
 8004dca:	4a0b      	ldr	r2, [pc, #44]	; (8004df8 <_ZN19XFDispatcherDefault11executeOnceEv+0x7c>)
 8004dcc:	3301      	adds	r3, #1
            if (pEvent->deleteAfterConsume())
 8004dce:	683b      	ldr	r3, [r7, #0]
 8004dd0:	689b      	ldr	r3, [r3, #8]
                _bExecuting = false;
 8004dd2:	bf08      	it	eq
 8004dd4:	7126      	strbeq	r6, [r4, #4]
 8004dd6:	4293      	cmp	r3, r2
 8004dd8:	d0dd      	beq.n	8004d96 <_ZN19XFDispatcherDefault11executeOnceEv+0x1a>
            if (pEvent->deleteAfterConsume())
 8004dda:	4638      	mov	r0, r7
 8004ddc:	4798      	blx	r3
 8004dde:	2800      	cmp	r0, #0
 8004de0:	d0d9      	beq.n	8004d96 <_ZN19XFDispatcherDefault11executeOnceEv+0x1a>
                delete pEvent;
 8004de2:	683b      	ldr	r3, [r7, #0]
    virtual ~XFEvent() {}		///< Class destructor
 8004de4:	4638      	mov	r0, r7
 8004de6:	4a05      	ldr	r2, [pc, #20]	; (8004dfc <_ZN19XFDispatcherDefault11executeOnceEv+0x80>)
 8004de8:	685b      	ldr	r3, [r3, #4]
 8004dea:	4293      	cmp	r3, r2
 8004dec:	d1d2      	bne.n	8004d94 <_ZN19XFDispatcherDefault11executeOnceEv+0x18>
 8004dee:	2110      	movs	r1, #16
 8004df0:	f000 fbef 	bl	80055d2 <_ZdlPvj>
 8004df4:	7920      	ldrb	r0, [r4, #4]
}
 8004df6:	bdf8      	pop	{r3, r4, r5, r6, r7, pc}
 8004df8:	08004111 	.word	0x08004111
 8004dfc:	0800416d 	.word	0x0800416d

08004e00 <_ZN24XFResourceFactoryDefault20getDefaultDispatcherEv>:
}

interface::XFDispatcher * XFResourceFactoryDefault::getDefaultDispatcher()
{
	return &_mainDispatcher;
}
 8004e00:	3004      	adds	r0, #4
 8004e02:	4770      	bx	lr

08004e04 <_ZN24XFResourceFactoryDefault12createThreadEPN9interface26XFThreadEntryPointProviderEMS1_FvPKvEPKcm>:

interface::XFThread * XFResourceFactoryDefault::createThread(interface::XFThreadEntryPointProvider * pProvider,
												  	  	     interface::XFThread::EntryMethodBody entryMethod,
														     const char * threadName,
														     const uint32_t stackSize /* = 0 */)
{
 8004e04:	b082      	sub	sp, #8
	// Default implementation cannot create threads (no underlying OS present)
	return nullptr;
}
 8004e06:	2000      	movs	r0, #0
{
 8004e08:	a902      	add	r1, sp, #8
 8004e0a:	e901 000c 	stmdb	r1, {r2, r3}
}
 8004e0e:	b002      	add	sp, #8
 8004e10:	4770      	bx	lr
 8004e12:	bf00      	nop

08004e14 <_ZN24XFResourceFactoryDefault11createMutexEv>:

interface::XFMutex * XFResourceFactoryDefault::createMutex()
{
 8004e14:	b510      	push	{r4, lr}
	static XFMutexDefault mutex;
 8004e16:	4c07      	ldr	r4, [pc, #28]	; (8004e34 <_ZN24XFResourceFactoryDefault11createMutexEv+0x20>)
 8004e18:	6823      	ldr	r3, [r4, #0]
 8004e1a:	07db      	lsls	r3, r3, #31
 8004e1c:	d407      	bmi.n	8004e2e <_ZN24XFResourceFactoryDefault11createMutexEv+0x1a>
 8004e1e:	1d20      	adds	r0, r4, #4
 8004e20:	f000 fbae 	bl	8005580 <_ZN14XFMutexDefaultC1Ev>
 8004e24:	2301      	movs	r3, #1
 8004e26:	4804      	ldr	r0, [pc, #16]	; (8004e38 <_ZN24XFResourceFactoryDefault11createMutexEv+0x24>)
 8004e28:	6023      	str	r3, [r4, #0]
 8004e2a:	f000 fce1 	bl	80057f0 <atexit>

	return &mutex;
}
 8004e2e:	4803      	ldr	r0, [pc, #12]	; (8004e3c <_ZN24XFResourceFactoryDefault11createMutexEv+0x28>)
 8004e30:	bd10      	pop	{r4, pc}
 8004e32:	bf00      	nop
 8004e34:	2000026c 	.word	0x2000026c
 8004e38:	08004eed 	.word	0x08004eed
 8004e3c:	20000270 	.word	0x20000270

08004e40 <_ZN24XFResourceFactoryDefault11getInstanceEv.part.1>:
interface::XFResourceFactory * XFResourceFactoryDefault::getInstance()
 8004e40:	b510      	push	{r4, lr}
											   const char * threadName,                             
											   const uint32_t stackSize = 0);                       ///< Creates and returns a new thread.
	virtual interface::XFMutex * createMutex();                                                     ///< Creates and returns a new mutex.
	
protected:
	XFResourceFactoryDefault() {}
 8004e42:	4c07      	ldr	r4, [pc, #28]	; (8004e60 <_ZN24XFResourceFactoryDefault11getInstanceEv.part.1+0x20>)
 8004e44:	4b07      	ldr	r3, [pc, #28]	; (8004e64 <_ZN24XFResourceFactoryDefault11getInstanceEv.part.1+0x24>)
 8004e46:	f104 000c 	add.w	r0, r4, #12
 8004e4a:	60a3      	str	r3, [r4, #8]
 8004e4c:	f7ff ff34 	bl	8004cb8 <_ZN19XFDispatcherDefaultC1Ev>
    static XFResourceFactoryDefault theResourceFactory;
 8004e50:	2301      	movs	r3, #1
 8004e52:	4805      	ldr	r0, [pc, #20]	; (8004e68 <_ZN24XFResourceFactoryDefault11getInstanceEv.part.1+0x28>)
 8004e54:	64a3      	str	r3, [r4, #72]	; 0x48
}
 8004e56:	e8bd 4010 	ldmia.w	sp!, {r4, lr}
    static XFResourceFactoryDefault theResourceFactory;
 8004e5a:	f000 bcc9 	b.w	80057f0 <atexit>
 8004e5e:	bf00      	nop
 8004e60:	2000026c 	.word	0x2000026c
 8004e64:	08006e30 	.word	0x08006e30
 8004e68:	08004eb5 	.word	0x08004eb5

08004e6c <_ZN24XFResourceFactoryDefault16createDispatcherEv>:
	return getDefaultDispatcher();
 8004e6c:	6802      	ldr	r2, [r0, #0]
 8004e6e:	4903      	ldr	r1, [pc, #12]	; (8004e7c <_ZN24XFResourceFactoryDefault16createDispatcherEv+0x10>)
 8004e70:	6812      	ldr	r2, [r2, #0]
 8004e72:	428a      	cmp	r2, r1
 8004e74:	d101      	bne.n	8004e7a <_ZN24XFResourceFactoryDefault16createDispatcherEv+0xe>
	return &_mainDispatcher;
 8004e76:	3004      	adds	r0, #4
}
 8004e78:	4770      	bx	lr
	return getDefaultDispatcher();
 8004e7a:	4710      	bx	r2
 8004e7c:	08004e01 	.word	0x08004e01

08004e80 <_ZN9interface17XFResourceFactory11getInstanceEv>:
{
 8004e80:	b508      	push	{r3, lr}
    static XFResourceFactoryDefault theResourceFactory;
 8004e82:	4b04      	ldr	r3, [pc, #16]	; (8004e94 <_ZN9interface17XFResourceFactory11getInstanceEv+0x14>)
 8004e84:	6c9b      	ldr	r3, [r3, #72]	; 0x48
 8004e86:	07db      	lsls	r3, r3, #31
 8004e88:	d401      	bmi.n	8004e8e <_ZN9interface17XFResourceFactory11getInstanceEv+0xe>
 8004e8a:	f7ff ffd9 	bl	8004e40 <_ZN24XFResourceFactoryDefault11getInstanceEv.part.1>
}
 8004e8e:	4802      	ldr	r0, [pc, #8]	; (8004e98 <_ZN9interface17XFResourceFactory11getInstanceEv+0x18>)
 8004e90:	bd08      	pop	{r3, pc}
 8004e92:	bf00      	nop
 8004e94:	2000026c 	.word	0x2000026c
 8004e98:	20000274 	.word	0x20000274

08004e9c <_ZN24XFResourceFactoryDefaultD1Ev>:
	virtual ~XFResourceFactoryDefault() {}
 8004e9c:	4b04      	ldr	r3, [pc, #16]	; (8004eb0 <_ZN24XFResourceFactoryDefaultD1Ev+0x14>)
 8004e9e:	b510      	push	{r4, lr}
 8004ea0:	4604      	mov	r4, r0
 8004ea2:	f840 3b04 	str.w	r3, [r0], #4
 8004ea6:	f7ff ff25 	bl	8004cf4 <_ZN19XFDispatcherDefaultD1Ev>
 8004eaa:	4620      	mov	r0, r4
 8004eac:	bd10      	pop	{r4, pc}
 8004eae:	bf00      	nop
 8004eb0:	08006e30 	.word	0x08006e30

08004eb4 <__tcf_0>:
 8004eb4:	4b03      	ldr	r3, [pc, #12]	; (8004ec4 <__tcf_0+0x10>)
 8004eb6:	4a04      	ldr	r2, [pc, #16]	; (8004ec8 <__tcf_0+0x14>)
 8004eb8:	f103 000c 	add.w	r0, r3, #12
 8004ebc:	609a      	str	r2, [r3, #8]
 8004ebe:	f7ff bf19 	b.w	8004cf4 <_ZN19XFDispatcherDefaultD1Ev>
 8004ec2:	bf00      	nop
 8004ec4:	2000026c 	.word	0x2000026c
 8004ec8:	08006e30 	.word	0x08006e30

08004ecc <_ZN24XFResourceFactoryDefaultD0Ev>:
 8004ecc:	4b06      	ldr	r3, [pc, #24]	; (8004ee8 <_ZN24XFResourceFactoryDefaultD0Ev+0x1c>)
 8004ece:	b510      	push	{r4, lr}
 8004ed0:	4604      	mov	r4, r0
 8004ed2:	f840 3b04 	str.w	r3, [r0], #4
 8004ed6:	f7ff ff0d 	bl	8004cf4 <_ZN19XFDispatcherDefaultD1Ev>
 8004eda:	2140      	movs	r1, #64	; 0x40
 8004edc:	4620      	mov	r0, r4
 8004ede:	f000 fb78 	bl	80055d2 <_ZdlPvj>
 8004ee2:	4620      	mov	r0, r4
 8004ee4:	bd10      	pop	{r4, pc}
 8004ee6:	bf00      	nop
 8004ee8:	08006e30 	.word	0x08006e30

08004eec <__tcf_1>:
	static XFMutexDefault mutex;
 8004eec:	4801      	ldr	r0, [pc, #4]	; (8004ef4 <__tcf_1+0x8>)
 8004eee:	f000 bb2d 	b.w	800554c <_ZN14XFMutexDefaultD1Ev>
 8004ef2:	bf00      	nop
 8004ef4:	20000270 	.word	0x20000270

08004ef8 <_ZN9interface16XFTimeoutManager10initializeEl>:
     * Sets the time interval in milliseconds in which the timeout manager
     * should handle the timeouts.
     */
    virtual void initialize(int32_t tickInterval)
    {
        _tickInterval = tickInterval;
 8004ef8:	6041      	str	r1, [r0, #4]
    }
 8004efa:	4770      	bx	lr

08004efc <_ZNK9interface16XFTimeoutManager15getTickIntervalEv>:
     * @brief Returns tick interval in milliseconds.
     */
    virtual int32_t getTickInterval() const
    {
        return _tickInterval;
    }
 8004efc:	6840      	ldr	r0, [r0, #4]
 8004efe:	4770      	bx	lr

08004f00 <_ZN23XFTimeoutManagerDefaultD1Ev>:
{
    _pMutex = XFMutex::create();
    assert(_pMutex);
}

XFTimeoutManagerDefault::~XFTimeoutManagerDefault()
 8004f00:	b570      	push	{r4, r5, r6, lr}
 8004f02:	4b08      	ldr	r3, [pc, #32]	; (8004f24 <_ZN23XFTimeoutManagerDefaultD1Ev+0x24>)
    void
    _List_base<_Tp, _Alloc>::
    _M_clear() _GLIBCXX_NOEXCEPT
    {
      typedef _List_node<_Tp>  _Node;
      __detail::_List_node_base* __cur = _M_impl._M_node._M_next;
 8004f04:	4605      	mov	r5, r0
 8004f06:	4606      	mov	r6, r0
 8004f08:	6003      	str	r3, [r0, #0]
 8004f0a:	f855 0f08 	ldr.w	r0, [r5, #8]!
      while (__cur != &_M_impl._M_node)
 8004f0e:	42a8      	cmp	r0, r5
 8004f10:	d005      	beq.n	8004f1e <_ZN23XFTimeoutManagerDefaultD1Ev+0x1e>
	{
	  _Node* __tmp = static_cast<_Node*>(__cur);
	  __cur = __tmp->_M_next;
 8004f12:	6804      	ldr	r4, [r0, #0]
	::operator delete(__p);
 8004f14:	f000 fb78 	bl	8005608 <_ZdlPv>
      while (__cur != &_M_impl._M_node)
 8004f18:	42ac      	cmp	r4, r5
 8004f1a:	4620      	mov	r0, r4
 8004f1c:	d1f9      	bne.n	8004f12 <_ZN23XFTimeoutManagerDefaultD1Ev+0x12>
{
}
 8004f1e:	4630      	mov	r0, r6
 8004f20:	bd70      	pop	{r4, r5, r6, pc}
 8004f22:	bf00      	nop
 8004f24:	08006e50 	.word	0x08006e50

08004f28 <__tcf_0>:
    static XFTimeoutManagerDefault timeoutManager;
 8004f28:	b538      	push	{r3, r4, r5, lr}
XFTimeoutManagerDefault::~XFTimeoutManagerDefault()
 8004f2a:	4b07      	ldr	r3, [pc, #28]	; (8004f48 <__tcf_0+0x20>)
 8004f2c:	4a07      	ldr	r2, [pc, #28]	; (8004f4c <__tcf_0+0x24>)
      __detail::_List_node_base* __cur = _M_impl._M_node._M_next;
 8004f2e:	461d      	mov	r5, r3
 8004f30:	601a      	str	r2, [r3, #0]
 8004f32:	f855 0f08 	ldr.w	r0, [r5, #8]!
      while (__cur != &_M_impl._M_node)
 8004f36:	42a8      	cmp	r0, r5
 8004f38:	d005      	beq.n	8004f46 <__tcf_0+0x1e>
	  __cur = __tmp->_M_next;
 8004f3a:	6804      	ldr	r4, [r0, #0]
 8004f3c:	f000 fb64 	bl	8005608 <_ZdlPv>
      while (__cur != &_M_impl._M_node)
 8004f40:	42ac      	cmp	r4, r5
 8004f42:	4620      	mov	r0, r4
 8004f44:	d1f9      	bne.n	8004f3a <__tcf_0+0x12>
    static XFTimeoutManagerDefault timeoutManager;
 8004f46:	bd38      	pop	{r3, r4, r5, pc}
 8004f48:	200002b8 	.word	0x200002b8
 8004f4c:	08006e50 	.word	0x08006e50

08004f50 <_ZN23XFTimeoutManagerDefaultD0Ev>:
XFTimeoutManagerDefault::~XFTimeoutManagerDefault()
 8004f50:	b570      	push	{r4, r5, r6, lr}
 8004f52:	4b0a      	ldr	r3, [pc, #40]	; (8004f7c <_ZN23XFTimeoutManagerDefaultD0Ev+0x2c>)
      __detail::_List_node_base* __cur = _M_impl._M_node._M_next;
 8004f54:	4605      	mov	r5, r0
 8004f56:	4606      	mov	r6, r0
 8004f58:	6003      	str	r3, [r0, #0]
 8004f5a:	f855 0f08 	ldr.w	r0, [r5, #8]!
      while (__cur != &_M_impl._M_node)
 8004f5e:	42a8      	cmp	r0, r5
 8004f60:	d005      	beq.n	8004f6e <_ZN23XFTimeoutManagerDefaultD0Ev+0x1e>
	  __cur = __tmp->_M_next;
 8004f62:	6804      	ldr	r4, [r0, #0]
 8004f64:	f000 fb50 	bl	8005608 <_ZdlPv>
      while (__cur != &_M_impl._M_node)
 8004f68:	42ac      	cmp	r4, r5
 8004f6a:	4620      	mov	r0, r4
 8004f6c:	d1f9      	bne.n	8004f62 <_ZN23XFTimeoutManagerDefaultD0Ev+0x12>
}
 8004f6e:	4630      	mov	r0, r6
 8004f70:	2118      	movs	r1, #24
 8004f72:	f000 fb2e 	bl	80055d2 <_ZdlPvj>
 8004f76:	4630      	mov	r0, r6
 8004f78:	bd70      	pop	{r4, r5, r6, pc}
 8004f7a:	bf00      	nop
 8004f7c:	08006e50 	.word	0x08006e50

08004f80 <_ZN23XFTimeoutManagerDefault5startEv>:

void XFTimeoutManagerDefault::start()
{
    // Check tickInterval. Set default value if not set
    if (_tickInterval == 0)
 8004f80:	6843      	ldr	r3, [r0, #4]
 8004f82:	b913      	cbnz	r3, 8004f8a <_ZN23XFTimeoutManagerDefault5startEv+0xa>
    {
        _tickInterval = 10;
 8004f84:	220a      	movs	r2, #10
 8004f86:	4613      	mov	r3, r2
 8004f88:	6042      	str	r2, [r0, #4]
    }

    XF_startTimeoutManagerTimer(uint32_t(_tickInterval));
 8004f8a:	4618      	mov	r0, r3
 8004f8c:	f000 bafe 	b.w	800558c <XF_startTimeoutManagerTimer>

08004f90 <_ZN23XFTimeoutManagerDefault15scheduleTimeoutEllPN9interface10XFReactiveE>:
}

void XFTimeoutManagerDefault::scheduleTimeout(int32_t timeoutId, int32_t interval, interface::XFReactive * pReactive)
{
 8004f90:	e92d 41f0 	stmdb	sp!, {r4, r5, r6, r7, r8, lr}
 8004f94:	460e      	mov	r6, r1
 8004f96:	4617      	mov	r7, r2
 8004f98:	4698      	mov	r8, r3
 8004f9a:	4604      	mov	r4, r0
    XFTimeout * pTimeout = new XFTimeout(timeoutId, interval, pReactive);
 8004f9c:	2018      	movs	r0, #24
 8004f9e:	f000 fb1a 	bl	80055d6 <_Znwj>
 8004fa2:	4643      	mov	r3, r8
 8004fa4:	4631      	mov	r1, r6
 8004fa6:	463a      	mov	r2, r7
 8004fa8:	4605      	mov	r5, r0
 8004faa:	f7ff fe1d 	bl	8004be8 <_ZN9XFTimeoutC1EiiPN9interface10XFReactiveE>

    if (pTimeout)
    {
        addTimeout(pTimeout);
 8004fae:	6823      	ldr	r3, [r4, #0]
 8004fb0:	4620      	mov	r0, r4
 8004fb2:	4629      	mov	r1, r5
 8004fb4:	6a1b      	ldr	r3, [r3, #32]
    }
}
 8004fb6:	e8bd 41f0 	ldmia.w	sp!, {r4, r5, r6, r7, r8, lr}
        addTimeout(pTimeout);
 8004fba:	4718      	bx	r3

08004fbc <_ZN23XFTimeoutManagerDefault17unscheduleTimeoutElPN9interface10XFReactiveE>:

void XFTimeoutManagerDefault::unscheduleTimeout(int32_t timeoutId, interface::XFReactive * pReactive)
{
 8004fbc:	e92d 41f0 	stmdb	sp!, {r4, r5, r6, r7, r8, lr}
 8004fc0:	b086      	sub	sp, #24
 8004fc2:	4607      	mov	r7, r0
    const XFTimeout timeout(timeoutId, 0, pReactive);
 8004fc4:	4613      	mov	r3, r2
 8004fc6:	2200      	movs	r2, #0
 8004fc8:	4668      	mov	r0, sp
    XFTimeout * pTimeout;

    _pMutex->lock();
    {
        for (TimeoutList::iterator i = _timeouts.begin();
 8004fca:	463e      	mov	r6, r7
    const XFTimeout timeout(timeoutId, 0, pReactive);
 8004fcc:	f7ff fe0c 	bl	8004be8 <_ZN9XFTimeoutC1EiiPN9interface10XFReactiveE>
    _pMutex->lock();
 8004fd0:	6978      	ldr	r0, [r7, #20]
 8004fd2:	6803      	ldr	r3, [r0, #0]
 8004fd4:	689b      	ldr	r3, [r3, #8]
 8004fd6:	4798      	blx	r3
        for (TimeoutList::iterator i = _timeouts.begin();
 8004fd8:	f856 4f08 	ldr.w	r4, [r6, #8]!
             i != _timeouts.end(); /*Do not increment here!*/)
 8004fdc:	42b4      	cmp	r4, r6
        {
            pTimeout = *i;

            // Check if behavior and timeout id are equal
            if (*pTimeout == timeout)
 8004fde:	4669      	mov	r1, sp
             i != _timeouts.end(); /*Do not increment here!*/)
 8004fe0:	d01f      	beq.n	8005022 <_ZN23XFTimeoutManagerDefault17unscheduleTimeoutElPN9interface10XFReactiveE+0x66>
            pTimeout = *i;
 8004fe2:	68a5      	ldr	r5, [r4, #8]
            if (*pTimeout == timeout)
 8004fe4:	4628      	mov	r0, r5
 8004fe6:	f7ff fe0d 	bl	8004c04 <_ZNK9XFTimeouteqERKS_>
 8004fea:	b308      	cbz	r0, 8005030 <_ZN23XFTimeoutManagerDefault17unscheduleTimeoutElPN9interface10XFReactiveE+0x74>
      { return static_cast<_Node*>(_M_node)->_M_valptr(); }

      _Self&
      operator++() _GLIBCXX_NOEXCEPT
      {
	_M_node = _M_node->_M_next;
 8004fec:	f8d4 8000 	ldr.w	r8, [r4]
      // Erases element at position given.
      void
      _M_erase(iterator __position) _GLIBCXX_NOEXCEPT
      {
	this->_M_dec_size(1);
	__position._M_node->_M_unhook();
 8004ff0:	4620      	mov	r0, r4
            {
                TimeoutList::iterator next = i;

                // Check if remaining ticks can be given further
                if (++next != _timeouts.end())
 8004ff2:	45b0      	cmp	r8, r6
 8004ff4:	d01e      	beq.n	8005034 <_ZN23XFTimeoutManagerDefault17unscheduleTimeoutElPN9interface10XFReactiveE+0x78>
                {
                    // Add (remaining) ticks to next timeout in list
                    (*next)->addToRelTicks(pTimeout->getRelTicks());
 8004ff6:	f8d8 1008 	ldr.w	r1, [r8, #8]
    bool deleteAfterConsume() const override;                                                       ///< Tells the dispatcher if the event must be deleted or not.

    inline void setRelTicks(int relTicks) { _relTicks = relTicks; }                                 ///< Sets remaining ticks.
    inline int getRelTicks() const { return _relTicks; }                                            ///< Returns remaining ticks.
    inline void substractFromRelTicks(int ticksToSubstract) { _relTicks -= ticksToSubstract; }      ///< Substracts `ticksToSubstract` from remaining ticks.
    inline void addToRelTicks(int ticksToAdd) { _relTicks += ticksToAdd; }                          ///< Adds `ticksToAdd` to remaining ticks.
 8004ffa:	696a      	ldr	r2, [r5, #20]
 8004ffc:	694b      	ldr	r3, [r1, #20]
 8004ffe:	4413      	add	r3, r2
 8005000:	614b      	str	r3, [r1, #20]
      void _M_dec_size(size_t __n) { *_M_impl._M_node._M_valptr() -= __n; }
 8005002:	693b      	ldr	r3, [r7, #16]
 8005004:	3b01      	subs	r3, #1
 8005006:	613b      	str	r3, [r7, #16]
	__position._M_node->_M_unhook();
 8005008:	f000 fb18 	bl	800563c <_ZNSt8__detail15_List_node_base9_M_unhookEv>
 800500c:	4620      	mov	r0, r4
 800500e:	f000 fafb 	bl	8005608 <_ZdlPv>
                }

                i = _timeouts.erase(i);
                // Iterator now points to the next element

                delete pTimeout;
 8005012:	682b      	ldr	r3, [r5, #0]
	_M_node = _M_node->_M_next;
 8005014:	4644      	mov	r4, r8
 8005016:	4628      	mov	r0, r5
 8005018:	685b      	ldr	r3, [r3, #4]
 800501a:	4798      	blx	r3
             i != _timeouts.end(); /*Do not increment here!*/)
 800501c:	42b4      	cmp	r4, r6
            if (*pTimeout == timeout)
 800501e:	4669      	mov	r1, sp
             i != _timeouts.end(); /*Do not increment here!*/)
 8005020:	d1df      	bne.n	8004fe2 <_ZN23XFTimeoutManagerDefault17unscheduleTimeoutElPN9interface10XFReactiveE+0x26>
            {
                i++;
            }
        }
    }
    _pMutex->unlock();
 8005022:	6978      	ldr	r0, [r7, #20]
 8005024:	6803      	ldr	r3, [r0, #0]
 8005026:	68db      	ldr	r3, [r3, #12]
 8005028:	4798      	blx	r3
}
 800502a:	b006      	add	sp, #24
 800502c:	e8bd 81f0 	ldmia.w	sp!, {r4, r5, r6, r7, r8, pc}
	_M_node = _M_node->_M_next;
 8005030:	6824      	ldr	r4, [r4, #0]
 8005032:	e7d3      	b.n	8004fdc <_ZN23XFTimeoutManagerDefault17unscheduleTimeoutElPN9interface10XFReactiveE+0x20>
      void _M_dec_size(size_t __n) { *_M_impl._M_node._M_valptr() -= __n; }
 8005034:	693b      	ldr	r3, [r7, #16]
 8005036:	3b01      	subs	r3, #1
 8005038:	613b      	str	r3, [r7, #16]
	__position._M_node->_M_unhook();
 800503a:	f000 faff 	bl	800563c <_ZNSt8__detail15_List_node_base9_M_unhookEv>
 800503e:	4620      	mov	r0, r4
 8005040:	4634      	mov	r4, r6
 8005042:	f000 fae1 	bl	8005608 <_ZdlPv>
                delete pTimeout;
 8005046:	2d00      	cmp	r5, #0
 8005048:	d0c8      	beq.n	8004fdc <_ZN23XFTimeoutManagerDefault17unscheduleTimeoutElPN9interface10XFReactiveE+0x20>
 800504a:	e7e2      	b.n	8005012 <_ZN23XFTimeoutManagerDefault17unscheduleTimeoutElPN9interface10XFReactiveE+0x56>

0800504c <_ZN23XFTimeoutManagerDefault4tickEv>:

void XFTimeoutManagerDefault::tick()
{
 800504c:	e92d 41f0 	stmdb	sp!, {r4, r5, r6, r7, r8, lr}
    assert(_tickInterval);      // Did you call start()?!
 8005050:	6844      	ldr	r4, [r0, #4]
 8005052:	2c00      	cmp	r4, #0
 8005054:	d052      	beq.n	80050fc <_ZN23XFTimeoutManagerDefault4tickEv+0xb0>
      { return this->_M_impl._M_node._M_next == &this->_M_impl._M_node; }
 8005056:	f100 0708 	add.w	r7, r0, #8
    int32_t intervalToSubtract = _tickInterval;

    while (!_timeouts.empty())
 800505a:	6883      	ldr	r3, [r0, #8]
 800505c:	4606      	mov	r6, r0
 800505e:	429f      	cmp	r7, r3
 8005060:	d044      	beq.n	80050ec <_ZN23XFTimeoutManagerDefault4tickEv+0xa0>
    {
        _pMutex->lock();
 8005062:	6970      	ldr	r0, [r6, #20]
 8005064:	6803      	ldr	r3, [r0, #0]
 8005066:	689b      	ldr	r3, [r3, #8]
 8005068:	4798      	blx	r3
        {
            XFTimeout * pFirstTimeout = _timeouts.front();
 800506a:	68b3      	ldr	r3, [r6, #8]
 800506c:	6899      	ldr	r1, [r3, #8]
    inline void substractFromRelTicks(int ticksToSubstract) { _relTicks -= ticksToSubstract; }      ///< Substracts `ticksToSubstract` from remaining ticks.
 800506e:	694b      	ldr	r3, [r1, #20]
 8005070:	1b1b      	subs	r3, r3, r4

            // From now on set it to zero.
            intervalToSubtract = 0;

            // Check timeout timed out
            if (pFirstTimeout->getRelTicks() <= 0)
 8005072:	2b00      	cmp	r3, #0
 8005074:	614b      	str	r3, [r1, #20]
 8005076:	dc3b      	bgt.n	80050f0 <_ZN23XFTimeoutManagerDefault4tickEv+0xa4>
            {
                // Check remaining ticks can be given further
                if (_timeouts.size() > 1)
 8005078:	6932      	ldr	r2, [r6, #16]
 800507a:	2a01      	cmp	r2, #1
 800507c:	d905      	bls.n	800508a <_ZN23XFTimeoutManagerDefault4tickEv+0x3e>
	_M_node = _M_node->_M_next;
 800507e:	68b2      	ldr	r2, [r6, #8]
                {
                    TimeoutList::iterator i = _timeouts.begin();

                    // Add ticks overrun to next timeout
                    i++;
                    (*i)->substractFromRelTicks(pFirstTimeout->getRelTicks());
 8005080:	6812      	ldr	r2, [r2, #0]
 8005082:	6890      	ldr	r0, [r2, #8]
 8005084:	6942      	ldr	r2, [r0, #20]
 8005086:	1ad3      	subs	r3, r2, r3
 8005088:	6143      	str	r3, [r0, #20]
    }
}

void XFTimeoutManagerDefault::returnTimeout(XFTimeout * pTimeout)
{
    pTimeout->getBehavior()->pushEvent(pTimeout);
 800508a:	68c8      	ldr	r0, [r1, #12]
 800508c:	6803      	ldr	r3, [r0, #0]
 800508e:	68db      	ldr	r3, [r3, #12]
 8005090:	4798      	blx	r3
      void _M_dec_size(size_t __n) { *_M_impl._M_node._M_valptr() -= __n; }
 8005092:	6933      	ldr	r3, [r6, #16]
      { this->_M_erase(begin()); }
 8005094:	68b4      	ldr	r4, [r6, #8]
      void _M_dec_size(size_t __n) { *_M_impl._M_node._M_valptr() -= __n; }
 8005096:	3b01      	subs	r3, #1
	__position._M_node->_M_unhook();
 8005098:	4620      	mov	r0, r4
      void _M_dec_size(size_t __n) { *_M_impl._M_node._M_valptr() -= __n; }
 800509a:	6133      	str	r3, [r6, #16]
	__position._M_node->_M_unhook();
 800509c:	f000 face 	bl	800563c <_ZNSt8__detail15_List_node_base9_M_unhookEv>
 80050a0:	4620      	mov	r0, r4
 80050a2:	f000 fab1 	bl	8005608 <_ZdlPv>
                for (TimeoutList::iterator it = _timeouts.begin(); it != _timeouts.end(); /*Do not increment here!*/)
 80050a6:	68b4      	ldr	r4, [r6, #8]
 80050a8:	42bc      	cmp	r4, r7
 80050aa:	d017      	beq.n	80050dc <_ZN23XFTimeoutManagerDefault4tickEv+0x90>
                    if ((*it)->getRelTicks() == 0)
 80050ac:	68a1      	ldr	r1, [r4, #8]
 80050ae:	694b      	ldr	r3, [r1, #20]
 80050b0:	b123      	cbz	r3, 80050bc <_ZN23XFTimeoutManagerDefault4tickEv+0x70>
 80050b2:	e013      	b.n	80050dc <_ZN23XFTimeoutManagerDefault4tickEv+0x90>
 80050b4:	68a9      	ldr	r1, [r5, #8]
 80050b6:	462c      	mov	r4, r5
 80050b8:	694b      	ldr	r3, [r1, #20]
 80050ba:	b97b      	cbnz	r3, 80050dc <_ZN23XFTimeoutManagerDefault4tickEv+0x90>
    pTimeout->getBehavior()->pushEvent(pTimeout);
 80050bc:	68c8      	ldr	r0, [r1, #12]
 80050be:	6803      	ldr	r3, [r0, #0]
 80050c0:	68db      	ldr	r3, [r3, #12]
 80050c2:	4798      	blx	r3
      void _M_dec_size(size_t __n) { *_M_impl._M_node._M_valptr() -= __n; }
 80050c4:	6933      	ldr	r3, [r6, #16]
    erase(const_iterator __position) noexcept
#else
    erase(iterator __position)
#endif
    {
      iterator __ret = iterator(__position._M_node->_M_next);
 80050c6:	6825      	ldr	r5, [r4, #0]
	__position._M_node->_M_unhook();
 80050c8:	4620      	mov	r0, r4
      void _M_dec_size(size_t __n) { *_M_impl._M_node._M_valptr() -= __n; }
 80050ca:	3b01      	subs	r3, #1
 80050cc:	6133      	str	r3, [r6, #16]
	__position._M_node->_M_unhook();
 80050ce:	f000 fab5 	bl	800563c <_ZNSt8__detail15_List_node_base9_M_unhookEv>
 80050d2:	4620      	mov	r0, r4
 80050d4:	f000 fa98 	bl	8005608 <_ZdlPv>
                for (TimeoutList::iterator it = _timeouts.begin(); it != _timeouts.end(); /*Do not increment here!*/)
 80050d8:	42bd      	cmp	r5, r7
 80050da:	d1eb      	bne.n	80050b4 <_ZN23XFTimeoutManagerDefault4tickEv+0x68>
        _pMutex->unlock();
 80050dc:	6970      	ldr	r0, [r6, #20]
            intervalToSubtract = 0;
 80050de:	2400      	movs	r4, #0
        _pMutex->unlock();
 80050e0:	6803      	ldr	r3, [r0, #0]
 80050e2:	68db      	ldr	r3, [r3, #12]
 80050e4:	4798      	blx	r3
    while (!_timeouts.empty())
 80050e6:	68b3      	ldr	r3, [r6, #8]
 80050e8:	42bb      	cmp	r3, r7
 80050ea:	d1ba      	bne.n	8005062 <_ZN23XFTimeoutManagerDefault4tickEv+0x16>
}
 80050ec:	e8bd 81f0 	ldmia.w	sp!, {r4, r5, r6, r7, r8, pc}
                _pMutex->unlock();
 80050f0:	6970      	ldr	r0, [r6, #20]
 80050f2:	6803      	ldr	r3, [r0, #0]
}
 80050f4:	e8bd 41f0 	ldmia.w	sp!, {r4, r5, r6, r7, r8, lr}
                _pMutex->unlock();
 80050f8:	68db      	ldr	r3, [r3, #12]
 80050fa:	4718      	bx	r3
    assert(_tickInterval);      // Did you call start()?!
 80050fc:	4b02      	ldr	r3, [pc, #8]	; (8005108 <_ZN23XFTimeoutManagerDefault4tickEv+0xbc>)
 80050fe:	2161      	movs	r1, #97	; 0x61
 8005100:	4a02      	ldr	r2, [pc, #8]	; (800510c <_ZN23XFTimeoutManagerDefault4tickEv+0xc0>)
 8005102:	4803      	ldr	r0, [pc, #12]	; (8005110 <_ZN23XFTimeoutManagerDefault4tickEv+0xc4>)
 8005104:	f000 fb56 	bl	80057b4 <__assert_func>
 8005108:	080071ec 	.word	0x080071ec
 800510c:	08006e74 	.word	0x08006e74
 8005110:	080071fc 	.word	0x080071fc

08005114 <_ZN23XFTimeoutManagerDefaultC1Ev>:
XFTimeoutManagerDefault::XFTimeoutManagerDefault() :
 8005114:	b538      	push	{r3, r4, r5, lr}
     */
    virtual void tick() = 0;

protected:
    XFTimeoutManager() :
        _tickInterval(0)
 8005116:	2100      	movs	r1, #0
    _pMutex(nullptr)
 8005118:	4603      	mov	r3, r0
 800511a:	4d0b      	ldr	r5, [pc, #44]	; (8005148 <_ZN23XFTimeoutManagerDefaultC1Ev+0x34>)
XFTimeoutManagerDefault::XFTimeoutManagerDefault() :
 800511c:	4604      	mov	r4, r0
 800511e:	6041      	str	r1, [r0, #4]
    _pMutex(nullptr)
 8005120:	f843 5b08 	str.w	r5, [r3], #8
      void _M_set_size(size_t __n) { *_M_impl._M_node._M_valptr() = __n; }
 8005124:	6101      	str	r1, [r0, #16]
 8005126:	6141      	str	r1, [r0, #20]
	this->_M_impl._M_node._M_prev = &this->_M_impl._M_node;
 8005128:	e9c0 3302 	strd	r3, r3, [r0, #8]
    _pMutex = XFMutex::create();
 800512c:	f000 fa1e 	bl	800556c <_ZN9interface7XFMutex6createEv>
 8005130:	6160      	str	r0, [r4, #20]
    assert(_pMutex);
 8005132:	b108      	cbz	r0, 8005138 <_ZN23XFTimeoutManagerDefaultC1Ev+0x24>
}
 8005134:	4620      	mov	r0, r4
 8005136:	bd38      	pop	{r3, r4, r5, pc}
    assert(_pMutex);
 8005138:	f105 0254 	add.w	r2, r5, #84	; 0x54
 800513c:	4b03      	ldr	r3, [pc, #12]	; (800514c <_ZN23XFTimeoutManagerDefaultC1Ev+0x38>)
 800513e:	211d      	movs	r1, #29
 8005140:	4803      	ldr	r0, [pc, #12]	; (8005150 <_ZN23XFTimeoutManagerDefaultC1Ev+0x3c>)
 8005142:	f000 fb37 	bl	80057b4 <__assert_func>
 8005146:	bf00      	nop
 8005148:	08006e50 	.word	0x08006e50
 800514c:	08007180 	.word	0x08007180
 8005150:	080071fc 	.word	0x080071fc

08005154 <_ZN9interface16XFTimeoutManager11getInstanceEv>:
{
 8005154:	b510      	push	{r4, lr}
    static XFTimeoutManagerDefault timeoutManager;
 8005156:	4c07      	ldr	r4, [pc, #28]	; (8005174 <_ZN9interface16XFTimeoutManager11getInstanceEv+0x20>)
 8005158:	69a3      	ldr	r3, [r4, #24]
 800515a:	07db      	lsls	r3, r3, #31
 800515c:	d407      	bmi.n	800516e <_ZN9interface16XFTimeoutManager11getInstanceEv+0x1a>
 800515e:	4620      	mov	r0, r4
 8005160:	f7ff ffd8 	bl	8005114 <_ZN23XFTimeoutManagerDefaultC1Ev>
 8005164:	2301      	movs	r3, #1
 8005166:	4804      	ldr	r0, [pc, #16]	; (8005178 <_ZN9interface16XFTimeoutManager11getInstanceEv+0x24>)
 8005168:	61a3      	str	r3, [r4, #24]
 800516a:	f000 fb41 	bl	80057f0 <atexit>
}
 800516e:	4801      	ldr	r0, [pc, #4]	; (8005174 <_ZN9interface16XFTimeoutManager11getInstanceEv+0x20>)
 8005170:	bd10      	pop	{r4, pc}
 8005172:	bf00      	nop
 8005174:	200002b8 	.word	0x200002b8
 8005178:	08004f29 	.word	0x08004f29

0800517c <_ZNSt7__cxx114listIP9XFTimeoutSaIS2_EE6insertESt20_List_const_iteratorIS2_ERKS2_>:
    list<_Tp, _Alloc>::
 800517c:	b5f8      	push	{r3, r4, r5, r6, r7, lr}
 800517e:	4617      	mov	r7, r2
 8005180:	4604      	mov	r4, r0
	return static_cast<_Tp*>(::operator new(__n * sizeof(_Tp)));
 8005182:	200c      	movs	r0, #12
 8005184:	460e      	mov	r6, r1
 8005186:	f000 fa26 	bl	80055d6 <_Znwj>
	{ ::new((void *)__p) _Up(std::forward<_Args>(__args)...); }
 800518a:	683b      	ldr	r3, [r7, #0]
      __tmp->_M_hook(__position._M_const_cast()._M_node);
 800518c:	4631      	mov	r1, r6
	return static_cast<_Tp*>(::operator new(__n * sizeof(_Tp)));
 800518e:	4605      	mov	r5, r0
	{ ::new((void *)__p) _Up(std::forward<_Args>(__args)...); }
 8005190:	6083      	str	r3, [r0, #8]
 8005192:	f000 fa4c 	bl	800562e <_ZNSt8__detail15_List_node_base7_M_hookEPS0_>
      void _M_inc_size(size_t __n) { *_M_impl._M_node._M_valptr() += __n; }
 8005196:	68a3      	ldr	r3, [r4, #8]
    }
 8005198:	4628      	mov	r0, r5
 800519a:	3301      	adds	r3, #1
 800519c:	60a3      	str	r3, [r4, #8]
 800519e:	bdf8      	pop	{r3, r4, r5, r6, r7, pc}

080051a0 <_ZN23XFTimeoutManagerDefault10addTimeoutEP9XFTimeout>:
{
 80051a0:	b5f0      	push	{r4, r5, r6, r7, lr}
      { return this->_M_impl._M_node._M_next == &this->_M_impl._M_node; }
 80051a2:	f100 0608 	add.w	r6, r0, #8
    if (!_timeouts.empty())
 80051a6:	6883      	ldr	r3, [r0, #8]
{
 80051a8:	b083      	sub	sp, #12
 80051aa:	4607      	mov	r7, r0
    if (!_timeouts.empty())
 80051ac:	429e      	cmp	r6, r3
{
 80051ae:	9101      	str	r1, [sp, #4]
    if (!_timeouts.empty())
 80051b0:	d043      	beq.n	800523a <_ZN23XFTimeoutManagerDefault10addTimeoutEP9XFTimeout+0x9a>
        _pMutex->lock();
 80051b2:	6940      	ldr	r0, [r0, #20]
 80051b4:	6803      	ldr	r3, [r0, #0]
 80051b6:	689b      	ldr	r3, [r3, #8]
 80051b8:	4798      	blx	r3
            TimeoutList::iterator i = _timeouts.begin();
 80051ba:	68bc      	ldr	r4, [r7, #8]
            while (i != _timeouts.end() &&
 80051bc:	42a6      	cmp	r6, r4
 80051be:	d00f      	beq.n	80051e0 <_ZN23XFTimeoutManagerDefault10addTimeoutEP9XFTimeout+0x40>
                   (*i)->getRelTicks() < pNewTimeout->getRelTicks())
 80051c0:	68a3      	ldr	r3, [r4, #8]
 80051c2:	9901      	ldr	r1, [sp, #4]
 80051c4:	695d      	ldr	r5, [r3, #20]
 80051c6:	694b      	ldr	r3, [r1, #20]
            while (i != _timeouts.end() &&
 80051c8:	42ab      	cmp	r3, r5
 80051ca:	dc04      	bgt.n	80051d6 <_ZN23XFTimeoutManagerDefault10addTimeoutEP9XFTimeout+0x36>
 80051cc:	e013      	b.n	80051f6 <_ZN23XFTimeoutManagerDefault10addTimeoutEP9XFTimeout+0x56>
                   (*i)->getRelTicks() < pNewTimeout->getRelTicks())
 80051ce:	68a2      	ldr	r2, [r4, #8]
 80051d0:	6955      	ldr	r5, [r2, #20]
            while (i != _timeouts.end() &&
 80051d2:	42ab      	cmp	r3, r5
 80051d4:	dd0f      	ble.n	80051f6 <_ZN23XFTimeoutManagerDefault10addTimeoutEP9XFTimeout+0x56>
	_M_node = _M_node->_M_next;
 80051d6:	6824      	ldr	r4, [r4, #0]
 80051d8:	1b5b      	subs	r3, r3, r5
 80051da:	42b4      	cmp	r4, r6
 80051dc:	614b      	str	r3, [r1, #20]
 80051de:	d1f6      	bne.n	80051ce <_ZN23XFTimeoutManagerDefault10addTimeoutEP9XFTimeout+0x2e>
                _timeouts.insert(_timeouts.end(), pNewTimeout);
 80051e0:	aa01      	add	r2, sp, #4
 80051e2:	4631      	mov	r1, r6
 80051e4:	4630      	mov	r0, r6
 80051e6:	f7ff ffc9 	bl	800517c <_ZNSt7__cxx114listIP9XFTimeoutSaIS2_EE6insertESt20_List_const_iteratorIS2_ERKS2_>
        _pMutex->unlock();
 80051ea:	6978      	ldr	r0, [r7, #20]
 80051ec:	6803      	ldr	r3, [r0, #0]
 80051ee:	68db      	ldr	r3, [r3, #12]
 80051f0:	4798      	blx	r3
}
 80051f2:	b003      	add	sp, #12
 80051f4:	bdf0      	pop	{r4, r5, r6, r7, pc}
                if ((*i)->getRelTicks() != pNewTimeout->getRelTicks())
 80051f6:	429d      	cmp	r5, r3
 80051f8:	d113      	bne.n	8005222 <_ZN23XFTimeoutManagerDefault10addTimeoutEP9XFTimeout+0x82>
 80051fa:	6821      	ldr	r1, [r4, #0]
                    while(i != _timeouts.end() && (*i)->getRelTicks() == 0)
 80051fc:	428e      	cmp	r6, r1
 80051fe:	d103      	bne.n	8005208 <_ZN23XFTimeoutManagerDefault10addTimeoutEP9XFTimeout+0x68>
 8005200:	e006      	b.n	8005210 <_ZN23XFTimeoutManagerDefault10addTimeoutEP9XFTimeout+0x70>
 8005202:	6809      	ldr	r1, [r1, #0]
 8005204:	428e      	cmp	r6, r1
 8005206:	d025      	beq.n	8005254 <_ZN23XFTimeoutManagerDefault10addTimeoutEP9XFTimeout+0xb4>
 8005208:	688b      	ldr	r3, [r1, #8]
 800520a:	695b      	ldr	r3, [r3, #20]
 800520c:	2b00      	cmp	r3, #0
 800520e:	d0f8      	beq.n	8005202 <_ZN23XFTimeoutManagerDefault10addTimeoutEP9XFTimeout+0x62>
                    _timeouts.insert(i, pNewTimeout);
 8005210:	aa01      	add	r2, sp, #4
 8005212:	4630      	mov	r0, r6
 8005214:	f7ff ffb2 	bl	800517c <_ZNSt7__cxx114listIP9XFTimeoutSaIS2_EE6insertESt20_List_const_iteratorIS2_ERKS2_>
                    pNewTimeout->substractFromRelTicks(relTicks);
 8005218:	9a01      	ldr	r2, [sp, #4]
 800521a:	6953      	ldr	r3, [r2, #20]
 800521c:	1b5d      	subs	r5, r3, r5
 800521e:	6155      	str	r5, [r2, #20]
 8005220:	e7e3      	b.n	80051ea <_ZN23XFTimeoutManagerDefault10addTimeoutEP9XFTimeout+0x4a>
                    _timeouts.insert(i, pNewTimeout);
 8005222:	aa01      	add	r2, sp, #4
 8005224:	4621      	mov	r1, r4
 8005226:	4630      	mov	r0, r6
 8005228:	f7ff ffa8 	bl	800517c <_ZNSt7__cxx114listIP9XFTimeoutSaIS2_EE6insertESt20_List_const_iteratorIS2_ERKS2_>
                    (*i)->substractFromRelTicks(pNewTimeout->getRelTicks());
 800522c:	68a2      	ldr	r2, [r4, #8]
 800522e:	9901      	ldr	r1, [sp, #4]
 8005230:	6953      	ldr	r3, [r2, #20]
 8005232:	6949      	ldr	r1, [r1, #20]
 8005234:	1a5b      	subs	r3, r3, r1
 8005236:	6153      	str	r3, [r2, #20]
 8005238:	e7d7      	b.n	80051ea <_ZN23XFTimeoutManagerDefault10addTimeoutEP9XFTimeout+0x4a>
	return static_cast<_Tp*>(::operator new(__n * sizeof(_Tp)));
 800523a:	200c      	movs	r0, #12
 800523c:	f000 f9cb 	bl	80055d6 <_Znwj>
	{ ::new((void *)__p) _Up(std::forward<_Args>(__args)...); }
 8005240:	9b01      	ldr	r3, [sp, #4]
	 __tmp->_M_hook(__position._M_node);
 8005242:	4631      	mov	r1, r6
 8005244:	6083      	str	r3, [r0, #8]
 8005246:	f000 f9f2 	bl	800562e <_ZNSt8__detail15_List_node_base7_M_hookEPS0_>
      void _M_inc_size(size_t __n) { *_M_impl._M_node._M_valptr() += __n; }
 800524a:	693b      	ldr	r3, [r7, #16]
 800524c:	3301      	adds	r3, #1
 800524e:	613b      	str	r3, [r7, #16]
}
 8005250:	b003      	add	sp, #12
 8005252:	bdf0      	pop	{r4, r5, r6, r7, pc}
 8005254:	4631      	mov	r1, r6
 8005256:	e7db      	b.n	8005210 <_ZN23XFTimeoutManagerDefault10addTimeoutEP9XFTimeout+0x70>

08005258 <_ZN2XF10initializeEiiPPc.part.0>:
void XF_execOnce()
{
    XF::execOnce();
}

void XF::initialize(int timeInterval /* = 10 */, int argc /* = 0 */, char * argv[] /* = nullptr */)
 8005258:	b510      	push	{r4, lr}
 800525a:	4604      	mov	r4, r0
{
    if (!_bInitialized)
    {
        // Create and initialize TimeoutManager
        XFTimeoutManager::getInstance()->initialize(timeInterval);
 800525c:	f7ff ff7a 	bl	8005154 <_ZN9interface16XFTimeoutManager11getInstanceEv>
 8005260:	6802      	ldr	r2, [r0, #0]
 8005262:	4907      	ldr	r1, [pc, #28]	; (8005280 <_ZN2XF10initializeEiiPPc.part.0+0x28>)
 8005264:	6892      	ldr	r2, [r2, #8]
 8005266:	428a      	cmp	r2, r1
 8005268:	d104      	bne.n	8005274 <_ZN2XF10initializeEiiPPc.part.0+0x1c>

        _bInitialized = true;
 800526a:	4b06      	ldr	r3, [pc, #24]	; (8005284 <_ZN2XF10initializeEiiPPc.part.0+0x2c>)
 800526c:	2201      	movs	r2, #1
        _tickInterval = tickInterval;
 800526e:	6044      	str	r4, [r0, #4]
 8005270:	701a      	strb	r2, [r3, #0]
    }
}
 8005272:	bd10      	pop	{r4, pc}
        XFTimeoutManager::getInstance()->initialize(timeInterval);
 8005274:	4621      	mov	r1, r4
 8005276:	4790      	blx	r2
        _bInitialized = true;
 8005278:	4b02      	ldr	r3, [pc, #8]	; (8005284 <_ZN2XF10initializeEiiPPc.part.0+0x2c>)
 800527a:	2201      	movs	r2, #1
 800527c:	701a      	strb	r2, [r3, #0]
}
 800527e:	bd10      	pop	{r4, pc}
 8005280:	08004ef9 	.word	0x08004ef9
 8005284:	200002d4 	.word	0x200002d4

08005288 <XF_initialize>:
    if (!_bInitialized)
 8005288:	4b02      	ldr	r3, [pc, #8]	; (8005294 <XF_initialize+0xc>)
 800528a:	781b      	ldrb	r3, [r3, #0]
 800528c:	b103      	cbz	r3, 8005290 <XF_initialize+0x8>
}
 800528e:	4770      	bx	lr
 8005290:	f7ff bfe2 	b.w	8005258 <_ZN2XF10initializeEiiPPc.part.0>
 8005294:	200002d4 	.word	0x200002d4

08005298 <_ZN2XF4execEv>:

int XF::exec()
{
 8005298:	b510      	push	{r4, lr}
	// Start timeout manager
	XFTimeoutManager::getInstance()->start();
 800529a:	f7ff ff5b 	bl	8005154 <_ZN9interface16XFTimeoutManager11getInstanceEv>
 800529e:	6803      	ldr	r3, [r0, #0]
 80052a0:	691b      	ldr	r3, [r3, #16]
 80052a2:	4798      	blx	r3

	// Start default dispatcher
	XFResourceFactory::getInstance()->getDefaultDispatcher()->start();
 80052a4:	f7ff fdec 	bl	8004e80 <_ZN9interface17XFResourceFactory11getInstanceEv>
 80052a8:	6803      	ldr	r3, [r0, #0]
 80052aa:	681b      	ldr	r3, [r3, #0]
 80052ac:	4798      	blx	r3
 80052ae:	6803      	ldr	r3, [r0, #0]
 80052b0:	68db      	ldr	r3, [r3, #12]
 80052b2:	4798      	blx	r3

	// In case default dispatcher does not have a thread executing it,
	// call it with this thread
	if (!XFResourceFactory::getInstance()->getDefaultDispatcher()->isActive())
 80052b4:	f7ff fde4 	bl	8004e80 <_ZN9interface17XFResourceFactory11getInstanceEv>
 80052b8:	6803      	ldr	r3, [r0, #0]
 80052ba:	681b      	ldr	r3, [r3, #0]
 80052bc:	4798      	blx	r3
 80052be:	6803      	ldr	r3, [r0, #0]
 80052c0:	689b      	ldr	r3, [r3, #8]
 80052c2:	4798      	blx	r3
 80052c4:	b948      	cbnz	r0, 80052da <_ZN2XF4execEv+0x42>
 80052c6:	4604      	mov	r4, r0
	{
		XFResourceFactory::getInstance()->getDefaultDispatcher()->execute();
 80052c8:	f7ff fdda 	bl	8004e80 <_ZN9interface17XFResourceFactory11getInstanceEv>
 80052cc:	6803      	ldr	r3, [r0, #0]
 80052ce:	681b      	ldr	r3, [r3, #0]
 80052d0:	4798      	blx	r3
 80052d2:	6803      	ldr	r3, [r0, #0]
 80052d4:	4621      	mov	r1, r4
 80052d6:	6a5b      	ldr	r3, [r3, #36]	; 0x24
 80052d8:	4798      	blx	r3
	}
    return 0;
}
 80052da:	2000      	movs	r0, #0
 80052dc:	bd10      	pop	{r4, pc}
 80052de:	bf00      	nop

080052e0 <XF_exec>:
    XF::exec();
 80052e0:	f7ff bfda 	b.w	8005298 <_ZN2XF4execEv>

080052e4 <_ZNK19XFEventQueueDefault5emptyEv>:
  // are in scope (for additional details, see libstdc++/3628)
  template<typename _Tp, typename _Ref, typename _Ptr>
    inline bool
    operator==(const _Deque_iterator<_Tp, _Ref, _Ptr>& __x,
	       const _Deque_iterator<_Tp, _Ref, _Ptr>& __y) _GLIBCXX_NOEXCEPT
    { return __x._M_cur == __y._M_cur; }
 80052e4:	6a02      	ldr	r2, [r0, #32]
 80052e6:	6900      	ldr	r0, [r0, #16]
}

bool XFEventQueueDefault::empty() const
{
    return _queue.empty();
}
 80052e8:	1a10      	subs	r0, r2, r0
 80052ea:	fab0 f080 	clz	r0, r0
 80052ee:	0940      	lsrs	r0, r0, #5
 80052f0:	4770      	bx	lr
 80052f2:	bf00      	nop

080052f4 <_ZN19XFEventQueueDefault4pendEv>:
bool XFEventQueueDefault::pend()
{
    // Method cannot be used in an IDF! Waiting within
    // this method would block the whole XF
    return false;
}
 80052f4:	2000      	movs	r0, #0
 80052f6:	4770      	bx	lr

080052f8 <_ZN19XFEventQueueDefaultC1Ev>:
XFEventQueueDefault::XFEventQueueDefault()
 80052f8:	4b17      	ldr	r3, [pc, #92]	; (8005358 <_ZN19XFEventQueueDefaultC1Ev+0x60>)
 80052fa:	b570      	push	{r4, r5, r6, lr}
 80052fc:	4604      	mov	r4, r0
 80052fe:	f840 3b04 	str.w	r3, [r0], #4
 8005302:	f000 f93d 	bl	8005580 <_ZN14XFMutexDefaultC1Ev>
	iterator _M_start;
	iterator _M_finish;

	_Deque_impl()
	: _Tp_alloc_type(), _M_map(), _M_map_size(0),
	  _M_start(), _M_finish()
 8005306:	2300      	movs	r3, #0
    _M_initialize_map(size_t __num_elements)
    {
      const size_t __num_nodes = (__num_elements/ __deque_buf_size(sizeof(_Tp))
				  + 1);

      this->_M_impl._M_map_size = std::max((size_t) _S_initial_map_size,
 8005308:	2208      	movs	r2, #8
	return static_cast<_Tp*>(::operator new(__n * sizeof(_Tp)));
 800530a:	2020      	movs	r0, #32
	  _M_start(), _M_finish()
 800530c:	e9c4 3202 	strd	r3, r2, [r4, #8]
      : _M_cur(), _M_first(), _M_last(), _M_node() { }
 8005310:	e9c4 3304 	strd	r3, r3, [r4, #16]
 8005314:	e9c4 3306 	strd	r3, r3, [r4, #24]
 8005318:	e9c4 3308 	strd	r3, r3, [r4, #32]
 800531c:	e9c4 330a 	strd	r3, r3, [r4, #40]	; 0x28
 8005320:	f000 f959 	bl	80055d6 <_Znwj>
      // starts in the middle elements and grows outwards.  So nstart may be
      // the beginning of _M_map, but for small maps it may be as far in as
      // _M_map+3.

      _Map_pointer __nstart = (this->_M_impl._M_map
			       + (this->_M_impl._M_map_size - __num_nodes) / 2);
 8005324:	68e5      	ldr	r5, [r4, #12]
 8005326:	4606      	mov	r6, r0
 8005328:	f44f 7000 	mov.w	r0, #512	; 0x200
 800532c:	3d01      	subs	r5, #1
      this->_M_impl._M_map = _M_allocate_map(this->_M_impl._M_map_size);
 800532e:	60a6      	str	r6, [r4, #8]
 8005330:	f000 f951 	bl	80055d6 <_Znwj>
 8005334:	4603      	mov	r3, r0
			       + (this->_M_impl._M_map_size - __num_nodes) / 2);
 8005336:	086d      	lsrs	r5, r5, #1
}
 8005338:	4620      	mov	r0, r4
	_M_last = _M_first + difference_type(_S_buffer_size());
 800533a:	f503 7200 	add.w	r2, r3, #512	; 0x200
	_M_first = *__new_node;
 800533e:	6163      	str	r3, [r4, #20]
      _Map_pointer __nstart = (this->_M_impl._M_map
 8005340:	eb06 0185 	add.w	r1, r6, r5, lsl #2
    {
      _Map_pointer __cur;
      __try
	{
	  for (__cur = __nstart; __cur < __nfinish; ++__cur)
	    *__cur = this->_M_allocate_node();
 8005344:	f846 3025 	str.w	r3, [r6, r5, lsl #2]
	_M_first = *__new_node;
 8005348:	6263      	str	r3, [r4, #36]	; 0x24
	_M_node = __new_node;
 800534a:	61e1      	str	r1, [r4, #28]
 800534c:	62e1      	str	r1, [r4, #44]	; 0x2c
      this->_M_impl._M_start._M_cur = _M_impl._M_start._M_first;
 800534e:	6123      	str	r3, [r4, #16]
      this->_M_impl._M_finish._M_cur = (this->_M_impl._M_finish._M_first
 8005350:	6223      	str	r3, [r4, #32]
	_M_last = _M_first + difference_type(_S_buffer_size());
 8005352:	61a2      	str	r2, [r4, #24]
 8005354:	62a2      	str	r2, [r4, #40]	; 0x28
 8005356:	bd70      	pop	{r4, r5, r6, pc}
 8005358:	08006ee0 	.word	0x08006ee0

0800535c <_ZNSt11_Deque_baseIPK7XFEventSaIS2_EED1Ev>:
    _Deque_base<_Tp, _Alloc>::
 800535c:	b570      	push	{r4, r5, r6, lr}
 800535e:	4606      	mov	r6, r0
      if (this->_M_impl._M_map)
 8005360:	6800      	ldr	r0, [r0, #0]
 8005362:	b168      	cbz	r0, 8005380 <_ZNSt11_Deque_baseIPK7XFEventSaIS2_EED1Ev+0x24>
	  _M_destroy_nodes(this->_M_impl._M_start._M_node,
 8005364:	6a75      	ldr	r5, [r6, #36]	; 0x24
 8005366:	6974      	ldr	r4, [r6, #20]
 8005368:	3504      	adds	r5, #4
    void
    _Deque_base<_Tp, _Alloc>::
    _M_destroy_nodes(_Map_pointer __nstart,
		     _Map_pointer __nfinish) _GLIBCXX_NOEXCEPT
    {
      for (_Map_pointer __n = __nstart; __n < __nfinish; ++__n)
 800536a:	42ac      	cmp	r4, r5
 800536c:	d206      	bcs.n	800537c <_ZNSt11_Deque_baseIPK7XFEventSaIS2_EED1Ev+0x20>
	::operator delete(__p);
 800536e:	f854 0b04 	ldr.w	r0, [r4], #4
 8005372:	f000 f949 	bl	8005608 <_ZdlPv>
 8005376:	42a5      	cmp	r5, r4
 8005378:	d8f9      	bhi.n	800536e <_ZNSt11_Deque_baseIPK7XFEventSaIS2_EED1Ev+0x12>
 800537a:	6830      	ldr	r0, [r6, #0]
 800537c:	f000 f944 	bl	8005608 <_ZdlPv>
    }
 8005380:	4630      	mov	r0, r6
 8005382:	bd70      	pop	{r4, r5, r6, pc}

08005384 <_ZN19XFEventQueueDefaultD1Ev>:
XFEventQueueDefault::~XFEventQueueDefault()
 8005384:	4b05      	ldr	r3, [pc, #20]	; (800539c <_ZN19XFEventQueueDefaultD1Ev+0x18>)
 8005386:	b510      	push	{r4, lr}
 8005388:	4604      	mov	r4, r0
 800538a:	f840 3b08 	str.w	r3, [r0], #8
       *  The dtor only erases the elements, and note that if the elements
       *  themselves are pointers, the pointed-to memory is not touched in any
       *  way.  Managing the pointer is the user's responsibility.
       */
      ~deque()
      { _M_destroy_data(begin(), end(), _M_get_Tp_allocator()); }
 800538e:	f7ff ffe5 	bl	800535c <_ZNSt11_Deque_baseIPK7XFEventSaIS2_EED1Ev>
 8005392:	1d20      	adds	r0, r4, #4
 8005394:	f000 f8da 	bl	800554c <_ZN14XFMutexDefaultD1Ev>
}
 8005398:	4620      	mov	r0, r4
 800539a:	bd10      	pop	{r4, pc}
 800539c:	08006ee0 	.word	0x08006ee0

080053a0 <_ZN19XFEventQueueDefaultD0Ev>:
XFEventQueueDefault::~XFEventQueueDefault()
 80053a0:	4b07      	ldr	r3, [pc, #28]	; (80053c0 <_ZN19XFEventQueueDefaultD0Ev+0x20>)
 80053a2:	b510      	push	{r4, lr}
 80053a4:	4604      	mov	r4, r0
 80053a6:	f840 3b08 	str.w	r3, [r0], #8
 80053aa:	f7ff ffd7 	bl	800535c <_ZNSt11_Deque_baseIPK7XFEventSaIS2_EED1Ev>
 80053ae:	1d20      	adds	r0, r4, #4
 80053b0:	f000 f8cc 	bl	800554c <_ZN14XFMutexDefaultD1Ev>
}
 80053b4:	4620      	mov	r0, r4
 80053b6:	2130      	movs	r1, #48	; 0x30
 80053b8:	f000 f90b 	bl	80055d2 <_ZdlPvj>
 80053bc:	4620      	mov	r0, r4
 80053be:	bd10      	pop	{r4, pc}
 80053c0:	08006ee0 	.word	0x08006ee0

080053c4 <_ZN19XFEventQueueDefault4pushEPK7XFEvent>:
{
 80053c4:	e92d 4df0 	stmdb	sp!, {r4, r5, r6, r7, r8, sl, fp, lr}
    _mutex.lock();
 80053c8:	1d05      	adds	r5, r0, #4
{
 80053ca:	4604      	mov	r4, r0
 80053cc:	460e      	mov	r6, r1
    _mutex.lock();
 80053ce:	4628      	mov	r0, r5
 80053d0:	f000 f8c8 	bl	8005564 <_ZN14XFMutexDefault4lockEv>
       */
      void
      push_back(const value_type& __x)
      {
	if (this->_M_impl._M_finish._M_cur
	    != this->_M_impl._M_finish._M_last - 1)
 80053d4:	6aa2      	ldr	r2, [r4, #40]	; 0x28
	if (this->_M_impl._M_finish._M_cur
 80053d6:	6a23      	ldr	r3, [r4, #32]
	    != this->_M_impl._M_finish._M_last - 1)
 80053d8:	3a04      	subs	r2, #4
	if (this->_M_impl._M_finish._M_cur
 80053da:	4293      	cmp	r3, r2
 80053dc:	d009      	beq.n	80053f2 <_ZN19XFEventQueueDefault4pushEPK7XFEvent+0x2e>
	{ ::new((void *)__p) _Up(std::forward<_Args>(__args)...); }
 80053de:	b103      	cbz	r3, 80053e2 <_ZN19XFEventQueueDefault4pushEPK7XFEvent+0x1e>
 80053e0:	601e      	str	r6, [r3, #0]
	  {
	    _Alloc_traits::construct(this->_M_impl,
				     this->_M_impl._M_finish._M_cur, __x);
	    ++this->_M_impl._M_finish._M_cur;
 80053e2:	3304      	adds	r3, #4
    _mutex.unlock();
 80053e4:	4628      	mov	r0, r5
 80053e6:	6223      	str	r3, [r4, #32]
 80053e8:	f000 f8be 	bl	8005568 <_ZN14XFMutexDefault6unlockEv>
}
 80053ec:	2001      	movs	r0, #1
 80053ee:	e8bd 8df0 	ldmia.w	sp!, {r4, r5, r6, r7, r8, sl, fp, pc}
       *  (And consequently, %deque iterators.)
       */
      void
      _M_reserve_map_at_back(size_type __nodes_to_add = 1)
      {
	if (__nodes_to_add + 1 > this->_M_impl._M_map_size
 80053f2:	e9d4 0202 	ldrd	r0, r2, [r4, #8]
	    - (this->_M_impl._M_finish._M_node - this->_M_impl._M_map))
 80053f6:	6ae7      	ldr	r7, [r4, #44]	; 0x2c
 80053f8:	1a3b      	subs	r3, r7, r0
 80053fa:	eba2 03a3 	sub.w	r3, r2, r3, asr #2
	if (__nodes_to_add + 1 > this->_M_impl._M_map_size
 80053fe:	2b01      	cmp	r3, #1
 8005400:	d916      	bls.n	8005430 <_ZN19XFEventQueueDefault4pushEPK7XFEvent+0x6c>
	return static_cast<_Tp*>(::operator new(__n * sizeof(_Tp)));
 8005402:	f44f 7000 	mov.w	r0, #512	; 0x200
 8005406:	f000 f8e6 	bl	80055d6 <_Znwj>
      deque<_Tp, _Alloc>::
      _M_push_back_aux(const value_type& __t)
#endif
      {
	_M_reserve_map_at_back();
	*(this->_M_impl._M_finish._M_node + 1) = this->_M_allocate_node();
 800540a:	6078      	str	r0, [r7, #4]
	__try
	  {
#if __cplusplus >= 201103L
	    _Alloc_traits::construct(this->_M_impl,
 800540c:	6a23      	ldr	r3, [r4, #32]
	{ ::new((void *)__p) _Up(std::forward<_Args>(__args)...); }
 800540e:	b103      	cbz	r3, 8005412 <_ZN19XFEventQueueDefault4pushEPK7XFEvent+0x4e>
 8005410:	601e      	str	r6, [r3, #0]
	                             this->_M_impl._M_finish._M_cur,
			             std::forward<_Args>(__args)...);
#else
	    this->_M_impl.construct(this->_M_impl._M_finish._M_cur, __t);
#endif
	    this->_M_impl._M_finish._M_set_node(this->_M_impl._M_finish._M_node
 8005412:	6ae3      	ldr	r3, [r4, #44]	; 0x2c
    _mutex.unlock();
 8005414:	4628      	mov	r0, r5
	_M_first = *__new_node;
 8005416:	685a      	ldr	r2, [r3, #4]
 8005418:	3304      	adds	r3, #4
	_M_last = _M_first + difference_type(_S_buffer_size());
 800541a:	f502 7100 	add.w	r1, r2, #512	; 0x200
						+ 1);
	    this->_M_impl._M_finish._M_cur = this->_M_impl._M_finish._M_first;
 800541e:	e9c4 2208 	strd	r2, r2, [r4, #32]
	_M_node = __new_node;
 8005422:	e9c4 130a 	strd	r1, r3, [r4, #40]	; 0x28
 8005426:	f000 f89f 	bl	8005568 <_ZN14XFMutexDefault6unlockEv>
}
 800542a:	2001      	movs	r0, #1
 800542c:	e8bd 8df0 	ldmia.w	sp!, {r4, r5, r6, r7, r8, sl, fp, pc}
    void
    deque<_Tp, _Alloc>::
    _M_reallocate_map(size_type __nodes_to_add, bool __add_at_front)
    {
      const size_type __old_num_nodes
	= this->_M_impl._M_finish._M_node - this->_M_impl._M_start._M_node + 1;
 8005430:	69e1      	ldr	r1, [r4, #28]
 8005432:	eba7 0a01 	sub.w	sl, r7, r1
 8005436:	ea4f 0aaa 	mov.w	sl, sl, asr #2
 800543a:	f10a 0a01 	add.w	sl, sl, #1
      const size_type __new_num_nodes = __old_num_nodes + __nodes_to_add;
 800543e:	f10a 0801 	add.w	r8, sl, #1

      _Map_pointer __new_nstart;
      if (this->_M_impl._M_map_size > 2 * __new_num_nodes)
 8005442:	ebb2 0f48 	cmp.w	r2, r8, lsl #1
 8005446:	d833      	bhi.n	80054b0 <_ZN19XFEventQueueDefault4pushEPK7XFEvent+0xec>
      if (__a < __b)
 8005448:	2a00      	cmp	r2, #0
 800544a:	d041      	beq.n	80054d0 <_ZN19XFEventQueueDefault4pushEPK7XFEvent+0x10c>
			       __new_nstart + __old_num_nodes);
	}
      else
	{
	  size_type __new_map_size = this->_M_impl._M_map_size
	                             + std::max(this->_M_impl._M_map_size,
 800544c:	0052      	lsls	r2, r2, #1
	  size_type __new_map_size = this->_M_impl._M_map_size
 800544e:	1c97      	adds	r7, r2, #2
	if (__n > this->max_size())
 8005450:	f1b7 4f80 	cmp.w	r7, #1073741824	; 0x40000000
 8005454:	d246      	bcs.n	80054e4 <_ZN19XFEventQueueDefault4pushEPK7XFEvent+0x120>
	return static_cast<_Tp*>(::operator new(__n * sizeof(_Tp)));
 8005456:	00b8      	lsls	r0, r7, #2
						__nodes_to_add) + 2;

	  _Map_pointer __new_map = this->_M_allocate_map(__new_map_size);
	  __new_nstart = __new_map + (__new_map_size - __new_num_nodes) / 2
 8005458:	eba7 0808 	sub.w	r8, r7, r8
 800545c:	f000 f8bb 	bl	80055d6 <_Znwj>
	                 + (__add_at_front ? __nodes_to_add : 0);
	  std::copy(this->_M_impl._M_start._M_node,
 8005460:	6ae2      	ldr	r2, [r4, #44]	; 0x2c
 8005462:	69e1      	ldr	r1, [r4, #28]
	  __new_nstart = __new_map + (__new_map_size - __new_num_nodes) / 2
 8005464:	ea4f 0858 	mov.w	r8, r8, lsr #1
	  std::copy(this->_M_impl._M_start._M_node,
 8005468:	3204      	adds	r2, #4
 800546a:	4683      	mov	fp, r0
	  __new_nstart = __new_map + (__new_map_size - __new_num_nodes) / 2
 800546c:	eb00 0888 	add.w	r8, r0, r8, lsl #2
	  if (_Num)
 8005470:	428a      	cmp	r2, r1
 8005472:	d003      	beq.n	800547c <_ZN19XFEventQueueDefault4pushEPK7XFEvent+0xb8>
	    __builtin_memmove(__result, __first, sizeof(_Tp) * _Num);
 8005474:	1a52      	subs	r2, r2, r1
 8005476:	4640      	mov	r0, r8
 8005478:	f000 fa17 	bl	80058aa <memmove>
	::operator delete(__p);
 800547c:	68a0      	ldr	r0, [r4, #8]
 800547e:	f000 f8c3 	bl	8005608 <_ZdlPv>
		    this->_M_impl._M_finish._M_node + 1,
		    __new_nstart);
	  _M_deallocate_map(this->_M_impl._M_map, this->_M_impl._M_map_size);

	  this->_M_impl._M_map = __new_map;
	  this->_M_impl._M_map_size = __new_map_size;
 8005482:	e9c4 b702 	strd	fp, r7, [r4, #8]
	_M_first = *__new_node;
 8005486:	f8d8 2000 	ldr.w	r2, [r8]
	}

      this->_M_impl._M_start._M_set_node(__new_nstart);
      this->_M_impl._M_finish._M_set_node(__new_nstart + __old_num_nodes - 1);
 800548a:	f06f 4340 	mvn.w	r3, #3221225472	; 0xc0000000
	_M_node = __new_node;
 800548e:	f8c4 801c 	str.w	r8, [r4, #28]
 8005492:	4453      	add	r3, sl
	_M_last = _M_first + difference_type(_S_buffer_size());
 8005494:	f502 7100 	add.w	r1, r2, #512	; 0x200
 8005498:	eb08 0783 	add.w	r7, r8, r3, lsl #2
 800549c:	e9c4 2105 	strd	r2, r1, [r4, #20]
	_M_first = *__new_node;
 80054a0:	f858 3023 	ldr.w	r3, [r8, r3, lsl #2]
	_M_node = __new_node;
 80054a4:	62e7      	str	r7, [r4, #44]	; 0x2c
	_M_last = _M_first + difference_type(_S_buffer_size());
 80054a6:	f503 7200 	add.w	r2, r3, #512	; 0x200
 80054aa:	e9c4 3209 	strd	r3, r2, [r4, #36]	; 0x24
 80054ae:	e7a8      	b.n	8005402 <_ZN19XFEventQueueDefault4pushEPK7XFEvent+0x3e>
					 - __new_num_nodes) / 2
 80054b0:	eba2 0808 	sub.w	r8, r2, r8
 80054b4:	3704      	adds	r7, #4
 80054b6:	ea4f 0858 	mov.w	r8, r8, lsr #1
 80054ba:	1a7a      	subs	r2, r7, r1
	  __new_nstart = this->_M_impl._M_map + (this->_M_impl._M_map_size
 80054bc:	eb00 0888 	add.w	r8, r0, r8, lsl #2
	  if (__new_nstart < this->_M_impl._M_start._M_node)
 80054c0:	4541      	cmp	r1, r8
 80054c2:	d907      	bls.n	80054d4 <_ZN19XFEventQueueDefault4pushEPK7XFEvent+0x110>
	  if (_Num)
 80054c4:	42b9      	cmp	r1, r7
 80054c6:	d0de      	beq.n	8005486 <_ZN19XFEventQueueDefault4pushEPK7XFEvent+0xc2>
	    __builtin_memmove(__result, __first, sizeof(_Tp) * _Num);
 80054c8:	4640      	mov	r0, r8
 80054ca:	f000 f9ee 	bl	80058aa <memmove>
 80054ce:	e7da      	b.n	8005486 <_ZN19XFEventQueueDefault4pushEPK7XFEvent+0xc2>
	  size_type __new_map_size = this->_M_impl._M_map_size
 80054d0:	2703      	movs	r7, #3
 80054d2:	e7c0      	b.n	8005456 <_ZN19XFEventQueueDefault4pushEPK7XFEvent+0x92>
					   is_copy_assignable<_Tp>>;
	  // trivial types can have deleted assignment
	  static_assert( __assignable::type::value, "type is not assignable" );
#endif
	  const ptrdiff_t _Num = __last - __first;
	  if (_Num)
 80054d4:	42b9      	cmp	r1, r7
 80054d6:	d0d6      	beq.n	8005486 <_ZN19XFEventQueueDefault4pushEPK7XFEvent+0xc2>
	    __builtin_memmove(__result - _Num, __first, sizeof(_Tp) * _Num);
 80054d8:	ebc2 008a 	rsb	r0, r2, sl, lsl #2
 80054dc:	4440      	add	r0, r8
 80054de:	f000 f9e4 	bl	80058aa <memmove>
 80054e2:	e7d0      	b.n	8005486 <_ZN19XFEventQueueDefault4pushEPK7XFEvent+0xc2>
	  std::__throw_bad_alloc();
 80054e4:	f000 f8af 	bl	8005646 <_ZSt17__throw_bad_allocv>

080054e8 <_ZN19XFEventQueueDefault5frontEv>:
{
 80054e8:	b538      	push	{r3, r4, r5, lr}
    _mutex.lock();
 80054ea:	1d04      	adds	r4, r0, #4
{
 80054ec:	4605      	mov	r5, r0
    _mutex.lock();
 80054ee:	4620      	mov	r0, r4
 80054f0:	f000 f838 	bl	8005564 <_ZN14XFMutexDefault4lockEv>
        event =  _queue.front();
 80054f4:	692b      	ldr	r3, [r5, #16]
    _mutex.unlock();
 80054f6:	4620      	mov	r0, r4
        event =  _queue.front();
 80054f8:	681c      	ldr	r4, [r3, #0]
    _mutex.unlock();
 80054fa:	f000 f835 	bl	8005568 <_ZN14XFMutexDefault6unlockEv>
}
 80054fe:	4620      	mov	r0, r4
 8005500:	bd38      	pop	{r3, r4, r5, pc}
 8005502:	bf00      	nop

08005504 <_ZN19XFEventQueueDefault3popEv>:
{
 8005504:	b538      	push	{r3, r4, r5, lr}
    _mutex.lock();
 8005506:	1d05      	adds	r5, r0, #4
{
 8005508:	4604      	mov	r4, r0
    _mutex.lock();
 800550a:	4628      	mov	r0, r5
 800550c:	f000 f82a 	bl	8005564 <_ZN14XFMutexDefault4lockEv>
	    != this->_M_impl._M_start._M_last - 1)
 8005510:	69a2      	ldr	r2, [r4, #24]
	if (this->_M_impl._M_start._M_cur
 8005512:	6923      	ldr	r3, [r4, #16]
	    != this->_M_impl._M_start._M_last - 1)
 8005514:	3a04      	subs	r2, #4
	if (this->_M_impl._M_start._M_cur
 8005516:	4293      	cmp	r3, r2
 8005518:	d006      	beq.n	8005528 <_ZN19XFEventQueueDefault3popEv+0x24>
	    ++this->_M_impl._M_start._M_cur;
 800551a:	3304      	adds	r3, #4
    _mutex.unlock();
 800551c:	4628      	mov	r0, r5
 800551e:	6123      	str	r3, [r4, #16]
}
 8005520:	e8bd 4038 	ldmia.w	sp!, {r3, r4, r5, lr}
    _mutex.unlock();
 8005524:	f000 b820 	b.w	8005568 <_ZN14XFMutexDefault6unlockEv>
	::operator delete(__p);
 8005528:	6960      	ldr	r0, [r4, #20]
 800552a:	f000 f86d 	bl	8005608 <_ZdlPv>
      this->_M_impl._M_start._M_set_node(this->_M_impl._M_start._M_node + 1);
 800552e:	69e3      	ldr	r3, [r4, #28]
 8005530:	4628      	mov	r0, r5
	_M_first = *__new_node;
 8005532:	685a      	ldr	r2, [r3, #4]
 8005534:	3304      	adds	r3, #4
	_M_last = _M_first + difference_type(_S_buffer_size());
 8005536:	f502 7100 	add.w	r1, r2, #512	; 0x200
      this->_M_impl._M_start._M_cur = this->_M_impl._M_start._M_first;
 800553a:	e9c4 2204 	strd	r2, r2, [r4, #16]
	_M_node = __new_node;
 800553e:	e9c4 1306 	strd	r1, r3, [r4, #24]
}
 8005542:	e8bd 4038 	ldmia.w	sp!, {r3, r4, r5, lr}
    _mutex.unlock();
 8005546:	f000 b80f 	b.w	8005568 <_ZN14XFMutexDefault6unlockEv>
 800554a:	bf00      	nop

0800554c <_ZN14XFMutexDefaultD1Ev>:
{
}

XFMutexDefault::~XFMutexDefault()
{
}
 800554c:	4770      	bx	lr
 800554e:	bf00      	nop

08005550 <_ZN14XFMutexDefault7tryLockEl>:
}

bool XFMutexDefault::tryLock(int32_t timeout /* = 0 */)
{
	return true;	// Always allow
}
 8005550:	2001      	movs	r0, #1
 8005552:	4770      	bx	lr

08005554 <_ZN14XFMutexDefaultD0Ev>:
XFMutexDefault::~XFMutexDefault()
 8005554:	b510      	push	{r4, lr}
 8005556:	4604      	mov	r4, r0
}
 8005558:	2104      	movs	r1, #4
 800555a:	f000 f83a 	bl	80055d2 <_ZdlPvj>
 800555e:	4620      	mov	r0, r4
 8005560:	bd10      	pop	{r4, pc}
 8005562:	bf00      	nop

08005564 <_ZN14XFMutexDefault4lockEv>:
	enterCritical();
 8005564:	f7ff b9dc 	b.w	8004920 <_Z13enterCriticalv>

08005568 <_ZN14XFMutexDefault6unlockEv>:
	exitCritical();
 8005568:	f7ff b9e8 	b.w	800493c <_Z12exitCriticalv>

0800556c <_ZN9interface7XFMutex6createEv>:
{
 800556c:	b508      	push	{r3, lr}
    return new XFMutexDefault;
 800556e:	2004      	movs	r0, #4
 8005570:	f000 f831 	bl	80055d6 <_Znwj>
XFMutexDefault::XFMutexDefault()
 8005574:	4b01      	ldr	r3, [pc, #4]	; (800557c <_ZN9interface7XFMutex6createEv+0x10>)
 8005576:	6003      	str	r3, [r0, #0]
}
 8005578:	bd08      	pop	{r3, pc}
 800557a:	bf00      	nop
 800557c:	08006f04 	.word	0x08006f04

08005580 <_ZN14XFMutexDefaultC1Ev>:
XFMutexDefault::XFMutexDefault()
 8005580:	4b01      	ldr	r3, [pc, #4]	; (8005588 <_ZN14XFMutexDefaultC1Ev+0x8>)
 8005582:	6003      	str	r3, [r0, #0]
}
 8005584:	4770      	bx	lr
 8005586:	bf00      	nop
 8005588:	08006f04 	.word	0x08006f04

0800558c <XF_startTimeoutManagerTimer>:
{
    (void)tickInterval;

    // SysTick gets already started by the STM32CubeMX HAL.
    // So nothing to do here.
}
 800558c:	4770      	bx	lr
 800558e:	bf00      	nop

08005590 <XF_tick>:
 * SysTick_Handler() function is already implemented in the STM32CubeMX generated
 * code (see Src/stm32fxxx_it.c file). Therefore, we must provide here a function
 * which can be explicitly called in SysTick_Handler() to tick the XF.
 */
void XF_tick()
{
 8005590:	b510      	push	{r4, lr}
	bInISR = true;								// Tell critical section we are in an ISR
 8005592:	2301      	movs	r3, #1
 8005594:	4c04      	ldr	r4, [pc, #16]	; (80055a8 <XF_tick+0x18>)
 8005596:	6023      	str	r3, [r4, #0]
	XFTimeoutManager::getInstance()->tick();    // Call framework hook tick function
 8005598:	f7ff fddc 	bl	8005154 <_ZN9interface16XFTimeoutManager11getInstanceEv>
 800559c:	6803      	ldr	r3, [r0, #0]
 800559e:	69db      	ldr	r3, [r3, #28]
 80055a0:	4798      	blx	r3
	bInISR = false;
 80055a2:	2300      	movs	r3, #0
 80055a4:	6023      	str	r3, [r4, #0]
}
 80055a6:	bd10      	pop	{r4, pc}
 80055a8:	20000254 	.word	0x20000254

080055ac <XF_tickIntervalInMilliseconds>:

/**
 * C function wrapping getTickInterval() method of XFTimeoutManager.
 */
int32_t XF_tickIntervalInMilliseconds()
{
 80055ac:	b510      	push	{r4, lr}
    return XFTimeoutManager::getInstance()->getTickInterval();
 80055ae:	f7ff fdd1 	bl	8005154 <_ZN9interface16XFTimeoutManager11getInstanceEv>
 80055b2:	6802      	ldr	r2, [r0, #0]
 80055b4:	4904      	ldr	r1, [pc, #16]	; (80055c8 <XF_tickIntervalInMilliseconds+0x1c>)
 80055b6:	68d2      	ldr	r2, [r2, #12]
 80055b8:	428a      	cmp	r2, r1
 80055ba:	d101      	bne.n	80055c0 <XF_tickIntervalInMilliseconds+0x14>
        return _tickInterval;
 80055bc:	6840      	ldr	r0, [r0, #4]
}
 80055be:	bd10      	pop	{r4, pc}
 80055c0:	e8bd 4010 	ldmia.w	sp!, {r4, lr}
    return XFTimeoutManager::getInstance()->getTickInterval();
 80055c4:	4710      	bx	r2
 80055c6:	bf00      	nop
 80055c8:	08004efd 	.word	0x08004efd

080055cc <__cxa_pure_virtual>:
 80055cc:	b508      	push	{r3, lr}
 80055ce:	f000 f829 	bl	8005624 <_ZSt9terminatev>

080055d2 <_ZdlPvj>:
 80055d2:	f000 b819 	b.w	8005608 <_ZdlPv>

080055d6 <_Znwj>:
 80055d6:	b510      	push	{r4, lr}
 80055d8:	2800      	cmp	r0, #0
 80055da:	bf14      	ite	ne
 80055dc:	4604      	movne	r4, r0
 80055de:	2401      	moveq	r4, #1
 80055e0:	4620      	mov	r0, r4
 80055e2:	f000 f947 	bl	8005874 <malloc>
 80055e6:	b930      	cbnz	r0, 80055f6 <_Znwj+0x20>
 80055e8:	f000 f806 	bl	80055f8 <_ZSt15get_new_handlerv>
 80055ec:	b908      	cbnz	r0, 80055f2 <_Znwj+0x1c>
 80055ee:	f000 f8d9 	bl	80057a4 <abort>
 80055f2:	4780      	blx	r0
 80055f4:	e7f4      	b.n	80055e0 <_Znwj+0xa>
 80055f6:	bd10      	pop	{r4, pc}

080055f8 <_ZSt15get_new_handlerv>:
 80055f8:	4b02      	ldr	r3, [pc, #8]	; (8005604 <_ZSt15get_new_handlerv+0xc>)
 80055fa:	6818      	ldr	r0, [r3, #0]
 80055fc:	f3bf 8f5b 	dmb	ish
 8005600:	4770      	bx	lr
 8005602:	bf00      	nop
 8005604:	200002d8 	.word	0x200002d8

08005608 <_ZdlPv>:
 8005608:	f000 b93c 	b.w	8005884 <free>

0800560c <_ZN10__cxxabiv111__terminateEPFvvE>:
 800560c:	b508      	push	{r3, lr}
 800560e:	4780      	blx	r0
 8005610:	f000 f8c8 	bl	80057a4 <abort>

08005614 <_ZSt13get_terminatev>:
 8005614:	4b02      	ldr	r3, [pc, #8]	; (8005620 <_ZSt13get_terminatev+0xc>)
 8005616:	6818      	ldr	r0, [r3, #0]
 8005618:	f3bf 8f5b 	dmb	ish
 800561c:	4770      	bx	lr
 800561e:	bf00      	nop
 8005620:	2000000c 	.word	0x2000000c

08005624 <_ZSt9terminatev>:
 8005624:	b508      	push	{r3, lr}
 8005626:	f7ff fff5 	bl	8005614 <_ZSt13get_terminatev>
 800562a:	f7ff ffef 	bl	800560c <_ZN10__cxxabiv111__terminateEPFvvE>

0800562e <_ZNSt8__detail15_List_node_base7_M_hookEPS0_>:
 800562e:	684b      	ldr	r3, [r1, #4]
 8005630:	6043      	str	r3, [r0, #4]
 8005632:	684b      	ldr	r3, [r1, #4]
 8005634:	6001      	str	r1, [r0, #0]
 8005636:	6018      	str	r0, [r3, #0]
 8005638:	6048      	str	r0, [r1, #4]
 800563a:	4770      	bx	lr

0800563c <_ZNSt8__detail15_List_node_base9_M_unhookEv>:
 800563c:	e9d0 3200 	ldrd	r3, r2, [r0]
 8005640:	6013      	str	r3, [r2, #0]
 8005642:	605a      	str	r2, [r3, #4]
 8005644:	4770      	bx	lr

08005646 <_ZSt17__throw_bad_allocv>:
 8005646:	b508      	push	{r3, lr}
 8005648:	f000 f8ac 	bl	80057a4 <abort>

0800564c <_ZSt19__throw_logic_errorPKc>:
 800564c:	b508      	push	{r3, lr}
 800564e:	f000 f8a9 	bl	80057a4 <abort>

08005652 <_ZSt24__throw_out_of_range_fmtPKcz>:
 8005652:	b40f      	push	{r0, r1, r2, r3}
 8005654:	b580      	push	{r7, lr}
 8005656:	b082      	sub	sp, #8
 8005658:	af00      	add	r7, sp, #0
 800565a:	f107 0410 	add.w	r4, r7, #16
 800565e:	f854 5b04 	ldr.w	r5, [r4], #4
 8005662:	4628      	mov	r0, r5
 8005664:	f7fa fe24 	bl	80002b0 <strlen>
 8005668:	f200 230e 	addw	r3, r0, #526	; 0x20e
 800566c:	f023 0307 	bic.w	r3, r3, #7
 8005670:	ebad 0d03 	sub.w	sp, sp, r3
 8005674:	f500 7100 	add.w	r1, r0, #512	; 0x200
 8005678:	4623      	mov	r3, r4
 800567a:	462a      	mov	r2, r5
 800567c:	4668      	mov	r0, sp
 800567e:	607c      	str	r4, [r7, #4]
 8005680:	f000 f850 	bl	8005724 <_ZN9__gnu_cxx15__snprintf_liteEPcjPKcSt9__va_list>
 8005684:	f000 f88e 	bl	80057a4 <abort>

08005688 <_ZN9__gnu_cxx26__throw_insufficient_spaceEPKcS1_>:
 8005688:	b580      	push	{r7, lr}
 800568a:	b09c      	sub	sp, #112	; 0x70
 800568c:	af00      	add	r7, sp, #0
 800568e:	1a0e      	subs	r6, r1, r0
 8005690:	4680      	mov	r8, r0
 8005692:	2269      	movs	r2, #105	; 0x69
 8005694:	490e      	ldr	r1, [pc, #56]	; (80056d0 <_ZN9__gnu_cxx26__throw_insufficient_spaceEPKcS1_+0x48>)
 8005696:	1d38      	adds	r0, r7, #4
 8005698:	f000 f8fc 	bl	8005894 <memcpy>
 800569c:	f106 0377 	add.w	r3, r6, #119	; 0x77
 80056a0:	f023 0307 	bic.w	r3, r3, #7
 80056a4:	ebad 0d03 	sub.w	sp, sp, r3
 80056a8:	466c      	mov	r4, sp
 80056aa:	2268      	movs	r2, #104	; 0x68
 80056ac:	1d39      	adds	r1, r7, #4
 80056ae:	1c75      	adds	r5, r6, #1
 80056b0:	4620      	mov	r0, r4
 80056b2:	f000 f8ef 	bl	8005894 <memcpy>
 80056b6:	4425      	add	r5, r4
 80056b8:	4632      	mov	r2, r6
 80056ba:	4641      	mov	r1, r8
 80056bc:	f104 0068 	add.w	r0, r4, #104	; 0x68
 80056c0:	f000 f8e8 	bl	8005894 <memcpy>
 80056c4:	2300      	movs	r3, #0
 80056c6:	f885 3067 	strb.w	r3, [r5, #103]	; 0x67
 80056ca:	4620      	mov	r0, r4
 80056cc:	f7ff ffbe 	bl	800564c <_ZSt19__throw_logic_errorPKc>
 80056d0:	0800726f 	.word	0x0800726f

080056d4 <_ZN9__gnu_cxx15__concat_size_tEPcjj>:
 80056d4:	b5f8      	push	{r3, r4, r5, r6, r7, lr}
 80056d6:	af00      	add	r7, sp, #0
 80056d8:	b086      	sub	sp, #24
 80056da:	466d      	mov	r5, sp
 80056dc:	f105 040c 	add.w	r4, r5, #12
 80056e0:	f8df e03c 	ldr.w	lr, [pc, #60]	; 8005720 <_ZN9__gnu_cxx15__concat_size_tEPcjj+0x4c>
 80056e4:	4623      	mov	r3, r4
 80056e6:	f04f 0c0a 	mov.w	ip, #10
 80056ea:	fbb2 f6fc 	udiv	r6, r2, ip
 80056ee:	fb0c 2216 	mls	r2, ip, r6, r2
 80056f2:	f81e 2002 	ldrb.w	r2, [lr, r2]
 80056f6:	f803 2d01 	strb.w	r2, [r3, #-1]!
 80056fa:	4632      	mov	r2, r6
 80056fc:	2e00      	cmp	r6, #0
 80056fe:	d1f4      	bne.n	80056ea <_ZN9__gnu_cxx15__concat_size_tEPcjj+0x16>
 8005700:	1ae4      	subs	r4, r4, r3
 8005702:	428c      	cmp	r4, r1
 8005704:	d808      	bhi.n	8005718 <_ZN9__gnu_cxx15__concat_size_tEPcjj+0x44>
 8005706:	f1c4 010c 	rsb	r1, r4, #12
 800570a:	4622      	mov	r2, r4
 800570c:	4429      	add	r1, r5
 800570e:	f000 f8c1 	bl	8005894 <memcpy>
 8005712:	4620      	mov	r0, r4
 8005714:	46bd      	mov	sp, r7
 8005716:	bdf8      	pop	{r3, r4, r5, r6, r7, pc}
 8005718:	f04f 34ff 	mov.w	r4, #4294967295
 800571c:	e7f9      	b.n	8005712 <_ZN9__gnu_cxx15__concat_size_tEPcjj+0x3e>
 800571e:	bf00      	nop
 8005720:	08007264 	.word	0x08007264

08005724 <_ZN9__gnu_cxx15__snprintf_liteEPcjPKcSt9__va_list>:
 8005724:	3901      	subs	r1, #1
 8005726:	e92d 41f0 	stmdb	sp!, {r4, r5, r6, r7, r8, lr}
 800572a:	4606      	mov	r6, r0
 800572c:	4615      	mov	r5, r2
 800572e:	1847      	adds	r7, r0, r1
 8005730:	4604      	mov	r4, r0
 8005732:	782a      	ldrb	r2, [r5, #0]
 8005734:	b392      	cbz	r2, 800579c <_ZN9__gnu_cxx15__snprintf_liteEPcjPKcSt9__va_list+0x78>
 8005736:	42bc      	cmp	r4, r7
 8005738:	d22c      	bcs.n	8005794 <_ZN9__gnu_cxx15__snprintf_liteEPcjPKcSt9__va_list+0x70>
 800573a:	2a25      	cmp	r2, #37	; 0x25
 800573c:	d107      	bne.n	800574e <_ZN9__gnu_cxx15__snprintf_liteEPcjPKcSt9__va_list+0x2a>
 800573e:	786a      	ldrb	r2, [r5, #1]
 8005740:	2a73      	cmp	r2, #115	; 0x73
 8005742:	d009      	beq.n	8005758 <_ZN9__gnu_cxx15__snprintf_liteEPcjPKcSt9__va_list+0x34>
 8005744:	2a7a      	cmp	r2, #122	; 0x7a
 8005746:	d012      	beq.n	800576e <_ZN9__gnu_cxx15__snprintf_liteEPcjPKcSt9__va_list+0x4a>
 8005748:	2a25      	cmp	r2, #37	; 0x25
 800574a:	d100      	bne.n	800574e <_ZN9__gnu_cxx15__snprintf_liteEPcjPKcSt9__va_list+0x2a>
 800574c:	3501      	adds	r5, #1
 800574e:	782a      	ldrb	r2, [r5, #0]
 8005750:	7022      	strb	r2, [r4, #0]
 8005752:	3501      	adds	r5, #1
 8005754:	3401      	adds	r4, #1
 8005756:	e7ec      	b.n	8005732 <_ZN9__gnu_cxx15__snprintf_liteEPcjPKcSt9__va_list+0xe>
 8005758:	1d19      	adds	r1, r3, #4
 800575a:	681b      	ldr	r3, [r3, #0]
 800575c:	3b01      	subs	r3, #1
 800575e:	f813 2f01 	ldrb.w	r2, [r3, #1]!
 8005762:	b1a2      	cbz	r2, 800578e <_ZN9__gnu_cxx15__snprintf_liteEPcjPKcSt9__va_list+0x6a>
 8005764:	42bc      	cmp	r4, r7
 8005766:	d015      	beq.n	8005794 <_ZN9__gnu_cxx15__snprintf_liteEPcjPKcSt9__va_list+0x70>
 8005768:	f804 2b01 	strb.w	r2, [r4], #1
 800576c:	e7f7      	b.n	800575e <_ZN9__gnu_cxx15__snprintf_liteEPcjPKcSt9__va_list+0x3a>
 800576e:	78aa      	ldrb	r2, [r5, #2]
 8005770:	2a75      	cmp	r2, #117	; 0x75
 8005772:	d1ec      	bne.n	800574e <_ZN9__gnu_cxx15__snprintf_liteEPcjPKcSt9__va_list+0x2a>
 8005774:	681a      	ldr	r2, [r3, #0]
 8005776:	1b39      	subs	r1, r7, r4
 8005778:	4620      	mov	r0, r4
 800577a:	f103 0804 	add.w	r8, r3, #4
 800577e:	f7ff ffa9 	bl	80056d4 <_ZN9__gnu_cxx15__concat_size_tEPcjj>
 8005782:	2800      	cmp	r0, #0
 8005784:	dd06      	ble.n	8005794 <_ZN9__gnu_cxx15__snprintf_liteEPcjPKcSt9__va_list+0x70>
 8005786:	4404      	add	r4, r0
 8005788:	3503      	adds	r5, #3
 800578a:	4643      	mov	r3, r8
 800578c:	e7d1      	b.n	8005732 <_ZN9__gnu_cxx15__snprintf_liteEPcjPKcSt9__va_list+0xe>
 800578e:	3502      	adds	r5, #2
 8005790:	460b      	mov	r3, r1
 8005792:	e7ce      	b.n	8005732 <_ZN9__gnu_cxx15__snprintf_liteEPcjPKcSt9__va_list+0xe>
 8005794:	4621      	mov	r1, r4
 8005796:	4630      	mov	r0, r6
 8005798:	f7ff ff76 	bl	8005688 <_ZN9__gnu_cxx26__throw_insufficient_spaceEPKcS1_>
 800579c:	7022      	strb	r2, [r4, #0]
 800579e:	1ba0      	subs	r0, r4, r6
 80057a0:	e8bd 81f0 	ldmia.w	sp!, {r4, r5, r6, r7, r8, pc}

080057a4 <abort>:
 80057a4:	b508      	push	{r3, lr}
 80057a6:	2006      	movs	r0, #6
 80057a8:	f000 fc48 	bl	800603c <raise>
 80057ac:	2001      	movs	r0, #1
 80057ae:	f7fe fbc5 	bl	8003f3c <_exit>
	...

080057b4 <__assert_func>:
 80057b4:	b51f      	push	{r0, r1, r2, r3, r4, lr}
 80057b6:	461c      	mov	r4, r3
 80057b8:	4b09      	ldr	r3, [pc, #36]	; (80057e0 <__assert_func+0x2c>)
 80057ba:	681b      	ldr	r3, [r3, #0]
 80057bc:	4605      	mov	r5, r0
 80057be:	68d8      	ldr	r0, [r3, #12]
 80057c0:	b152      	cbz	r2, 80057d8 <__assert_func+0x24>
 80057c2:	4b08      	ldr	r3, [pc, #32]	; (80057e4 <__assert_func+0x30>)
 80057c4:	9100      	str	r1, [sp, #0]
 80057c6:	e9cd 3201 	strd	r3, r2, [sp, #4]
 80057ca:	4907      	ldr	r1, [pc, #28]	; (80057e8 <__assert_func+0x34>)
 80057cc:	462b      	mov	r3, r5
 80057ce:	4622      	mov	r2, r4
 80057d0:	f000 f81a 	bl	8005808 <fiprintf>
 80057d4:	f7ff ffe6 	bl	80057a4 <abort>
 80057d8:	4b04      	ldr	r3, [pc, #16]	; (80057ec <__assert_func+0x38>)
 80057da:	461a      	mov	r2, r3
 80057dc:	e7f2      	b.n	80057c4 <__assert_func+0x10>
 80057de:	bf00      	nop
 80057e0:	20000010 	.word	0x20000010
 80057e4:	080072d8 	.word	0x080072d8
 80057e8:	080072e5 	.word	0x080072e5
 80057ec:	08007313 	.word	0x08007313

080057f0 <atexit>:
 80057f0:	2300      	movs	r3, #0
 80057f2:	4601      	mov	r1, r0
 80057f4:	461a      	mov	r2, r3
 80057f6:	4618      	mov	r0, r3
 80057f8:	f000 bd1c 	b.w	8006234 <__register_exitproc>

080057fc <__errno>:
 80057fc:	4b01      	ldr	r3, [pc, #4]	; (8005804 <__errno+0x8>)
 80057fe:	6818      	ldr	r0, [r3, #0]
 8005800:	4770      	bx	lr
 8005802:	bf00      	nop
 8005804:	20000010 	.word	0x20000010

08005808 <fiprintf>:
 8005808:	b40e      	push	{r1, r2, r3}
 800580a:	b503      	push	{r0, r1, lr}
 800580c:	4601      	mov	r1, r0
 800580e:	ab03      	add	r3, sp, #12
 8005810:	4805      	ldr	r0, [pc, #20]	; (8005828 <fiprintf+0x20>)
 8005812:	f853 2b04 	ldr.w	r2, [r3], #4
 8005816:	6800      	ldr	r0, [r0, #0]
 8005818:	9301      	str	r3, [sp, #4]
 800581a:	f000 f939 	bl	8005a90 <_vfiprintf_r>
 800581e:	b002      	add	sp, #8
 8005820:	f85d eb04 	ldr.w	lr, [sp], #4
 8005824:	b003      	add	sp, #12
 8005826:	4770      	bx	lr
 8005828:	20000010 	.word	0x20000010

0800582c <__libc_init_array>:
 800582c:	b570      	push	{r4, r5, r6, lr}
 800582e:	4e0d      	ldr	r6, [pc, #52]	; (8005864 <__libc_init_array+0x38>)
 8005830:	4c0d      	ldr	r4, [pc, #52]	; (8005868 <__libc_init_array+0x3c>)
 8005832:	1ba4      	subs	r4, r4, r6
 8005834:	10a4      	asrs	r4, r4, #2
 8005836:	2500      	movs	r5, #0
 8005838:	42a5      	cmp	r5, r4
 800583a:	d109      	bne.n	8005850 <__libc_init_array+0x24>
 800583c:	4e0b      	ldr	r6, [pc, #44]	; (800586c <__libc_init_array+0x40>)
 800583e:	4c0c      	ldr	r4, [pc, #48]	; (8005870 <__libc_init_array+0x44>)
 8005840:	f001 f968 	bl	8006b14 <_init>
 8005844:	1ba4      	subs	r4, r4, r6
 8005846:	10a4      	asrs	r4, r4, #2
 8005848:	2500      	movs	r5, #0
 800584a:	42a5      	cmp	r5, r4
 800584c:	d105      	bne.n	800585a <__libc_init_array+0x2e>
 800584e:	bd70      	pop	{r4, r5, r6, pc}
 8005850:	f856 3025 	ldr.w	r3, [r6, r5, lsl #2]
 8005854:	4798      	blx	r3
 8005856:	3501      	adds	r5, #1
 8005858:	e7ee      	b.n	8005838 <__libc_init_array+0xc>
 800585a:	f856 3025 	ldr.w	r3, [r6, r5, lsl #2]
 800585e:	4798      	blx	r3
 8005860:	3501      	adds	r5, #1
 8005862:	e7f2      	b.n	800584a <__libc_init_array+0x1e>
 8005864:	080073b4 	.word	0x080073b4
 8005868:	080073b4 	.word	0x080073b4
 800586c:	080073b4 	.word	0x080073b4
 8005870:	080073bc 	.word	0x080073bc

08005874 <malloc>:
 8005874:	4b02      	ldr	r3, [pc, #8]	; (8005880 <malloc+0xc>)
 8005876:	4601      	mov	r1, r0
 8005878:	6818      	ldr	r0, [r3, #0]
 800587a:	f000 b885 	b.w	8005988 <_malloc_r>
 800587e:	bf00      	nop
 8005880:	20000010 	.word	0x20000010

08005884 <free>:
 8005884:	4b02      	ldr	r3, [pc, #8]	; (8005890 <free+0xc>)
 8005886:	4601      	mov	r1, r0
 8005888:	6818      	ldr	r0, [r3, #0]
 800588a:	f000 b82f 	b.w	80058ec <_free_r>
 800588e:	bf00      	nop
 8005890:	20000010 	.word	0x20000010

08005894 <memcpy>:
 8005894:	b510      	push	{r4, lr}
 8005896:	1e43      	subs	r3, r0, #1
 8005898:	440a      	add	r2, r1
 800589a:	4291      	cmp	r1, r2
 800589c:	d100      	bne.n	80058a0 <memcpy+0xc>
 800589e:	bd10      	pop	{r4, pc}
 80058a0:	f811 4b01 	ldrb.w	r4, [r1], #1
 80058a4:	f803 4f01 	strb.w	r4, [r3, #1]!
 80058a8:	e7f7      	b.n	800589a <memcpy+0x6>

080058aa <memmove>:
 80058aa:	4288      	cmp	r0, r1
 80058ac:	b510      	push	{r4, lr}
 80058ae:	eb01 0302 	add.w	r3, r1, r2
 80058b2:	d807      	bhi.n	80058c4 <memmove+0x1a>
 80058b4:	1e42      	subs	r2, r0, #1
 80058b6:	4299      	cmp	r1, r3
 80058b8:	d00a      	beq.n	80058d0 <memmove+0x26>
 80058ba:	f811 4b01 	ldrb.w	r4, [r1], #1
 80058be:	f802 4f01 	strb.w	r4, [r2, #1]!
 80058c2:	e7f8      	b.n	80058b6 <memmove+0xc>
 80058c4:	4283      	cmp	r3, r0
 80058c6:	d9f5      	bls.n	80058b4 <memmove+0xa>
 80058c8:	1881      	adds	r1, r0, r2
 80058ca:	1ad2      	subs	r2, r2, r3
 80058cc:	42d3      	cmn	r3, r2
 80058ce:	d100      	bne.n	80058d2 <memmove+0x28>
 80058d0:	bd10      	pop	{r4, pc}
 80058d2:	f813 4d01 	ldrb.w	r4, [r3, #-1]!
 80058d6:	f801 4d01 	strb.w	r4, [r1, #-1]!
 80058da:	e7f7      	b.n	80058cc <memmove+0x22>

080058dc <memset>:
 80058dc:	4402      	add	r2, r0
 80058de:	4603      	mov	r3, r0
 80058e0:	4293      	cmp	r3, r2
 80058e2:	d100      	bne.n	80058e6 <memset+0xa>
 80058e4:	4770      	bx	lr
 80058e6:	f803 1b01 	strb.w	r1, [r3], #1
 80058ea:	e7f9      	b.n	80058e0 <memset+0x4>

080058ec <_free_r>:
 80058ec:	b538      	push	{r3, r4, r5, lr}
 80058ee:	4605      	mov	r5, r0
 80058f0:	2900      	cmp	r1, #0
 80058f2:	d045      	beq.n	8005980 <_free_r+0x94>
 80058f4:	f851 3c04 	ldr.w	r3, [r1, #-4]
 80058f8:	1f0c      	subs	r4, r1, #4
 80058fa:	2b00      	cmp	r3, #0
 80058fc:	bfb8      	it	lt
 80058fe:	18e4      	addlt	r4, r4, r3
 8005900:	f000 feda 	bl	80066b8 <__malloc_lock>
 8005904:	4a1f      	ldr	r2, [pc, #124]	; (8005984 <_free_r+0x98>)
 8005906:	6813      	ldr	r3, [r2, #0]
 8005908:	4610      	mov	r0, r2
 800590a:	b933      	cbnz	r3, 800591a <_free_r+0x2e>
 800590c:	6063      	str	r3, [r4, #4]
 800590e:	6014      	str	r4, [r2, #0]
 8005910:	4628      	mov	r0, r5
 8005912:	e8bd 4038 	ldmia.w	sp!, {r3, r4, r5, lr}
 8005916:	f000 bed0 	b.w	80066ba <__malloc_unlock>
 800591a:	42a3      	cmp	r3, r4
 800591c:	d90c      	bls.n	8005938 <_free_r+0x4c>
 800591e:	6821      	ldr	r1, [r4, #0]
 8005920:	1862      	adds	r2, r4, r1
 8005922:	4293      	cmp	r3, r2
 8005924:	bf04      	itt	eq
 8005926:	681a      	ldreq	r2, [r3, #0]
 8005928:	685b      	ldreq	r3, [r3, #4]
 800592a:	6063      	str	r3, [r4, #4]
 800592c:	bf04      	itt	eq
 800592e:	1852      	addeq	r2, r2, r1
 8005930:	6022      	streq	r2, [r4, #0]
 8005932:	6004      	str	r4, [r0, #0]
 8005934:	e7ec      	b.n	8005910 <_free_r+0x24>
 8005936:	4613      	mov	r3, r2
 8005938:	685a      	ldr	r2, [r3, #4]
 800593a:	b10a      	cbz	r2, 8005940 <_free_r+0x54>
 800593c:	42a2      	cmp	r2, r4
 800593e:	d9fa      	bls.n	8005936 <_free_r+0x4a>
 8005940:	6819      	ldr	r1, [r3, #0]
 8005942:	1858      	adds	r0, r3, r1
 8005944:	42a0      	cmp	r0, r4
 8005946:	d10b      	bne.n	8005960 <_free_r+0x74>
 8005948:	6820      	ldr	r0, [r4, #0]
 800594a:	4401      	add	r1, r0
 800594c:	1858      	adds	r0, r3, r1
 800594e:	4282      	cmp	r2, r0
 8005950:	6019      	str	r1, [r3, #0]
 8005952:	d1dd      	bne.n	8005910 <_free_r+0x24>
 8005954:	6810      	ldr	r0, [r2, #0]
 8005956:	6852      	ldr	r2, [r2, #4]
 8005958:	605a      	str	r2, [r3, #4]
 800595a:	4401      	add	r1, r0
 800595c:	6019      	str	r1, [r3, #0]
 800595e:	e7d7      	b.n	8005910 <_free_r+0x24>
 8005960:	d902      	bls.n	8005968 <_free_r+0x7c>
 8005962:	230c      	movs	r3, #12
 8005964:	602b      	str	r3, [r5, #0]
 8005966:	e7d3      	b.n	8005910 <_free_r+0x24>
 8005968:	6820      	ldr	r0, [r4, #0]
 800596a:	1821      	adds	r1, r4, r0
 800596c:	428a      	cmp	r2, r1
 800596e:	bf04      	itt	eq
 8005970:	6811      	ldreq	r1, [r2, #0]
 8005972:	6852      	ldreq	r2, [r2, #4]
 8005974:	6062      	str	r2, [r4, #4]
 8005976:	bf04      	itt	eq
 8005978:	1809      	addeq	r1, r1, r0
 800597a:	6021      	streq	r1, [r4, #0]
 800597c:	605c      	str	r4, [r3, #4]
 800597e:	e7c7      	b.n	8005910 <_free_r+0x24>
 8005980:	bd38      	pop	{r3, r4, r5, pc}
 8005982:	bf00      	nop
 8005984:	200002dc 	.word	0x200002dc

08005988 <_malloc_r>:
 8005988:	b570      	push	{r4, r5, r6, lr}
 800598a:	1ccd      	adds	r5, r1, #3
 800598c:	f025 0503 	bic.w	r5, r5, #3
 8005990:	3508      	adds	r5, #8
 8005992:	2d0c      	cmp	r5, #12
 8005994:	bf38      	it	cc
 8005996:	250c      	movcc	r5, #12
 8005998:	2d00      	cmp	r5, #0
 800599a:	4606      	mov	r6, r0
 800599c:	db01      	blt.n	80059a2 <_malloc_r+0x1a>
 800599e:	42a9      	cmp	r1, r5
 80059a0:	d903      	bls.n	80059aa <_malloc_r+0x22>
 80059a2:	230c      	movs	r3, #12
 80059a4:	6033      	str	r3, [r6, #0]
 80059a6:	2000      	movs	r0, #0
 80059a8:	bd70      	pop	{r4, r5, r6, pc}
 80059aa:	f000 fe85 	bl	80066b8 <__malloc_lock>
 80059ae:	4a21      	ldr	r2, [pc, #132]	; (8005a34 <_malloc_r+0xac>)
 80059b0:	6814      	ldr	r4, [r2, #0]
 80059b2:	4621      	mov	r1, r4
 80059b4:	b991      	cbnz	r1, 80059dc <_malloc_r+0x54>
 80059b6:	4c20      	ldr	r4, [pc, #128]	; (8005a38 <_malloc_r+0xb0>)
 80059b8:	6823      	ldr	r3, [r4, #0]
 80059ba:	b91b      	cbnz	r3, 80059c4 <_malloc_r+0x3c>
 80059bc:	4630      	mov	r0, r6
 80059be:	f000 fb05 	bl	8005fcc <_sbrk_r>
 80059c2:	6020      	str	r0, [r4, #0]
 80059c4:	4629      	mov	r1, r5
 80059c6:	4630      	mov	r0, r6
 80059c8:	f000 fb00 	bl	8005fcc <_sbrk_r>
 80059cc:	1c43      	adds	r3, r0, #1
 80059ce:	d124      	bne.n	8005a1a <_malloc_r+0x92>
 80059d0:	230c      	movs	r3, #12
 80059d2:	6033      	str	r3, [r6, #0]
 80059d4:	4630      	mov	r0, r6
 80059d6:	f000 fe70 	bl	80066ba <__malloc_unlock>
 80059da:	e7e4      	b.n	80059a6 <_malloc_r+0x1e>
 80059dc:	680b      	ldr	r3, [r1, #0]
 80059de:	1b5b      	subs	r3, r3, r5
 80059e0:	d418      	bmi.n	8005a14 <_malloc_r+0x8c>
 80059e2:	2b0b      	cmp	r3, #11
 80059e4:	d90f      	bls.n	8005a06 <_malloc_r+0x7e>
 80059e6:	600b      	str	r3, [r1, #0]
 80059e8:	50cd      	str	r5, [r1, r3]
 80059ea:	18cc      	adds	r4, r1, r3
 80059ec:	4630      	mov	r0, r6
 80059ee:	f000 fe64 	bl	80066ba <__malloc_unlock>
 80059f2:	f104 000b 	add.w	r0, r4, #11
 80059f6:	1d23      	adds	r3, r4, #4
 80059f8:	f020 0007 	bic.w	r0, r0, #7
 80059fc:	1ac3      	subs	r3, r0, r3
 80059fe:	d0d3      	beq.n	80059a8 <_malloc_r+0x20>
 8005a00:	425a      	negs	r2, r3
 8005a02:	50e2      	str	r2, [r4, r3]
 8005a04:	e7d0      	b.n	80059a8 <_malloc_r+0x20>
 8005a06:	428c      	cmp	r4, r1
 8005a08:	684b      	ldr	r3, [r1, #4]
 8005a0a:	bf16      	itet	ne
 8005a0c:	6063      	strne	r3, [r4, #4]
 8005a0e:	6013      	streq	r3, [r2, #0]
 8005a10:	460c      	movne	r4, r1
 8005a12:	e7eb      	b.n	80059ec <_malloc_r+0x64>
 8005a14:	460c      	mov	r4, r1
 8005a16:	6849      	ldr	r1, [r1, #4]
 8005a18:	e7cc      	b.n	80059b4 <_malloc_r+0x2c>
 8005a1a:	1cc4      	adds	r4, r0, #3
 8005a1c:	f024 0403 	bic.w	r4, r4, #3
 8005a20:	42a0      	cmp	r0, r4
 8005a22:	d005      	beq.n	8005a30 <_malloc_r+0xa8>
 8005a24:	1a21      	subs	r1, r4, r0
 8005a26:	4630      	mov	r0, r6
 8005a28:	f000 fad0 	bl	8005fcc <_sbrk_r>
 8005a2c:	3001      	adds	r0, #1
 8005a2e:	d0cf      	beq.n	80059d0 <_malloc_r+0x48>
 8005a30:	6025      	str	r5, [r4, #0]
 8005a32:	e7db      	b.n	80059ec <_malloc_r+0x64>
 8005a34:	200002dc 	.word	0x200002dc
 8005a38:	200002e0 	.word	0x200002e0

08005a3c <__sfputc_r>:
 8005a3c:	6893      	ldr	r3, [r2, #8]
 8005a3e:	3b01      	subs	r3, #1
 8005a40:	2b00      	cmp	r3, #0
 8005a42:	b410      	push	{r4}
 8005a44:	6093      	str	r3, [r2, #8]
 8005a46:	da08      	bge.n	8005a5a <__sfputc_r+0x1e>
 8005a48:	6994      	ldr	r4, [r2, #24]
 8005a4a:	42a3      	cmp	r3, r4
 8005a4c:	db01      	blt.n	8005a52 <__sfputc_r+0x16>
 8005a4e:	290a      	cmp	r1, #10
 8005a50:	d103      	bne.n	8005a5a <__sfputc_r+0x1e>
 8005a52:	f85d 4b04 	ldr.w	r4, [sp], #4
 8005a56:	f000 bb2d 	b.w	80060b4 <__swbuf_r>
 8005a5a:	6813      	ldr	r3, [r2, #0]
 8005a5c:	1c58      	adds	r0, r3, #1
 8005a5e:	6010      	str	r0, [r2, #0]
 8005a60:	7019      	strb	r1, [r3, #0]
 8005a62:	4608      	mov	r0, r1
 8005a64:	f85d 4b04 	ldr.w	r4, [sp], #4
 8005a68:	4770      	bx	lr

08005a6a <__sfputs_r>:
 8005a6a:	b5f8      	push	{r3, r4, r5, r6, r7, lr}
 8005a6c:	4606      	mov	r6, r0
 8005a6e:	460f      	mov	r7, r1
 8005a70:	4614      	mov	r4, r2
 8005a72:	18d5      	adds	r5, r2, r3
 8005a74:	42ac      	cmp	r4, r5
 8005a76:	d101      	bne.n	8005a7c <__sfputs_r+0x12>
 8005a78:	2000      	movs	r0, #0
 8005a7a:	e007      	b.n	8005a8c <__sfputs_r+0x22>
 8005a7c:	463a      	mov	r2, r7
 8005a7e:	f814 1b01 	ldrb.w	r1, [r4], #1
 8005a82:	4630      	mov	r0, r6
 8005a84:	f7ff ffda 	bl	8005a3c <__sfputc_r>
 8005a88:	1c43      	adds	r3, r0, #1
 8005a8a:	d1f3      	bne.n	8005a74 <__sfputs_r+0xa>
 8005a8c:	bdf8      	pop	{r3, r4, r5, r6, r7, pc}
	...

08005a90 <_vfiprintf_r>:
 8005a90:	e92d 4ff0 	stmdb	sp!, {r4, r5, r6, r7, r8, r9, sl, fp, lr}
 8005a94:	460c      	mov	r4, r1
 8005a96:	b09d      	sub	sp, #116	; 0x74
 8005a98:	4617      	mov	r7, r2
 8005a9a:	461d      	mov	r5, r3
 8005a9c:	4606      	mov	r6, r0
 8005a9e:	b118      	cbz	r0, 8005aa8 <_vfiprintf_r+0x18>
 8005aa0:	6983      	ldr	r3, [r0, #24]
 8005aa2:	b90b      	cbnz	r3, 8005aa8 <_vfiprintf_r+0x18>
 8005aa4:	f000 fd1a 	bl	80064dc <__sinit>
 8005aa8:	4b7c      	ldr	r3, [pc, #496]	; (8005c9c <_vfiprintf_r+0x20c>)
 8005aaa:	429c      	cmp	r4, r3
 8005aac:	d158      	bne.n	8005b60 <_vfiprintf_r+0xd0>
 8005aae:	6874      	ldr	r4, [r6, #4]
 8005ab0:	89a3      	ldrh	r3, [r4, #12]
 8005ab2:	0718      	lsls	r0, r3, #28
 8005ab4:	d55e      	bpl.n	8005b74 <_vfiprintf_r+0xe4>
 8005ab6:	6923      	ldr	r3, [r4, #16]
 8005ab8:	2b00      	cmp	r3, #0
 8005aba:	d05b      	beq.n	8005b74 <_vfiprintf_r+0xe4>
 8005abc:	2300      	movs	r3, #0
 8005abe:	9309      	str	r3, [sp, #36]	; 0x24
 8005ac0:	2320      	movs	r3, #32
 8005ac2:	f88d 3029 	strb.w	r3, [sp, #41]	; 0x29
 8005ac6:	2330      	movs	r3, #48	; 0x30
 8005ac8:	f88d 302a 	strb.w	r3, [sp, #42]	; 0x2a
 8005acc:	9503      	str	r5, [sp, #12]
 8005ace:	f04f 0b01 	mov.w	fp, #1
 8005ad2:	46b8      	mov	r8, r7
 8005ad4:	4645      	mov	r5, r8
 8005ad6:	f815 3b01 	ldrb.w	r3, [r5], #1
 8005ada:	b10b      	cbz	r3, 8005ae0 <_vfiprintf_r+0x50>
 8005adc:	2b25      	cmp	r3, #37	; 0x25
 8005ade:	d154      	bne.n	8005b8a <_vfiprintf_r+0xfa>
 8005ae0:	ebb8 0a07 	subs.w	sl, r8, r7
 8005ae4:	d00b      	beq.n	8005afe <_vfiprintf_r+0x6e>
 8005ae6:	4653      	mov	r3, sl
 8005ae8:	463a      	mov	r2, r7
 8005aea:	4621      	mov	r1, r4
 8005aec:	4630      	mov	r0, r6
 8005aee:	f7ff ffbc 	bl	8005a6a <__sfputs_r>
 8005af2:	3001      	adds	r0, #1
 8005af4:	f000 80c2 	beq.w	8005c7c <_vfiprintf_r+0x1ec>
 8005af8:	9b09      	ldr	r3, [sp, #36]	; 0x24
 8005afa:	4453      	add	r3, sl
 8005afc:	9309      	str	r3, [sp, #36]	; 0x24
 8005afe:	f898 3000 	ldrb.w	r3, [r8]
 8005b02:	2b00      	cmp	r3, #0
 8005b04:	f000 80ba 	beq.w	8005c7c <_vfiprintf_r+0x1ec>
 8005b08:	2300      	movs	r3, #0
 8005b0a:	f04f 32ff 	mov.w	r2, #4294967295
 8005b0e:	e9cd 2305 	strd	r2, r3, [sp, #20]
 8005b12:	9304      	str	r3, [sp, #16]
 8005b14:	9307      	str	r3, [sp, #28]
 8005b16:	f88d 3053 	strb.w	r3, [sp, #83]	; 0x53
 8005b1a:	931a      	str	r3, [sp, #104]	; 0x68
 8005b1c:	46a8      	mov	r8, r5
 8005b1e:	2205      	movs	r2, #5
 8005b20:	f818 1b01 	ldrb.w	r1, [r8], #1
 8005b24:	485e      	ldr	r0, [pc, #376]	; (8005ca0 <_vfiprintf_r+0x210>)
 8005b26:	f7fa fb73 	bl	8000210 <memchr>
 8005b2a:	9b04      	ldr	r3, [sp, #16]
 8005b2c:	bb78      	cbnz	r0, 8005b8e <_vfiprintf_r+0xfe>
 8005b2e:	06d9      	lsls	r1, r3, #27
 8005b30:	bf44      	itt	mi
 8005b32:	2220      	movmi	r2, #32
 8005b34:	f88d 2053 	strbmi.w	r2, [sp, #83]	; 0x53
 8005b38:	071a      	lsls	r2, r3, #28
 8005b3a:	bf44      	itt	mi
 8005b3c:	222b      	movmi	r2, #43	; 0x2b
 8005b3e:	f88d 2053 	strbmi.w	r2, [sp, #83]	; 0x53
 8005b42:	782a      	ldrb	r2, [r5, #0]
 8005b44:	2a2a      	cmp	r2, #42	; 0x2a
 8005b46:	d02a      	beq.n	8005b9e <_vfiprintf_r+0x10e>
 8005b48:	9a07      	ldr	r2, [sp, #28]
 8005b4a:	46a8      	mov	r8, r5
 8005b4c:	2000      	movs	r0, #0
 8005b4e:	250a      	movs	r5, #10
 8005b50:	4641      	mov	r1, r8
 8005b52:	f811 3b01 	ldrb.w	r3, [r1], #1
 8005b56:	3b30      	subs	r3, #48	; 0x30
 8005b58:	2b09      	cmp	r3, #9
 8005b5a:	d969      	bls.n	8005c30 <_vfiprintf_r+0x1a0>
 8005b5c:	b360      	cbz	r0, 8005bb8 <_vfiprintf_r+0x128>
 8005b5e:	e024      	b.n	8005baa <_vfiprintf_r+0x11a>
 8005b60:	4b50      	ldr	r3, [pc, #320]	; (8005ca4 <_vfiprintf_r+0x214>)
 8005b62:	429c      	cmp	r4, r3
 8005b64:	d101      	bne.n	8005b6a <_vfiprintf_r+0xda>
 8005b66:	68b4      	ldr	r4, [r6, #8]
 8005b68:	e7a2      	b.n	8005ab0 <_vfiprintf_r+0x20>
 8005b6a:	4b4f      	ldr	r3, [pc, #316]	; (8005ca8 <_vfiprintf_r+0x218>)
 8005b6c:	429c      	cmp	r4, r3
 8005b6e:	bf08      	it	eq
 8005b70:	68f4      	ldreq	r4, [r6, #12]
 8005b72:	e79d      	b.n	8005ab0 <_vfiprintf_r+0x20>
 8005b74:	4621      	mov	r1, r4
 8005b76:	4630      	mov	r0, r6
 8005b78:	f000 faee 	bl	8006158 <__swsetup_r>
 8005b7c:	2800      	cmp	r0, #0
 8005b7e:	d09d      	beq.n	8005abc <_vfiprintf_r+0x2c>
 8005b80:	f04f 30ff 	mov.w	r0, #4294967295
 8005b84:	b01d      	add	sp, #116	; 0x74
 8005b86:	e8bd 8ff0 	ldmia.w	sp!, {r4, r5, r6, r7, r8, r9, sl, fp, pc}
 8005b8a:	46a8      	mov	r8, r5
 8005b8c:	e7a2      	b.n	8005ad4 <_vfiprintf_r+0x44>
 8005b8e:	4a44      	ldr	r2, [pc, #272]	; (8005ca0 <_vfiprintf_r+0x210>)
 8005b90:	1a80      	subs	r0, r0, r2
 8005b92:	fa0b f000 	lsl.w	r0, fp, r0
 8005b96:	4318      	orrs	r0, r3
 8005b98:	9004      	str	r0, [sp, #16]
 8005b9a:	4645      	mov	r5, r8
 8005b9c:	e7be      	b.n	8005b1c <_vfiprintf_r+0x8c>
 8005b9e:	9a03      	ldr	r2, [sp, #12]
 8005ba0:	1d11      	adds	r1, r2, #4
 8005ba2:	6812      	ldr	r2, [r2, #0]
 8005ba4:	9103      	str	r1, [sp, #12]
 8005ba6:	2a00      	cmp	r2, #0
 8005ba8:	db01      	blt.n	8005bae <_vfiprintf_r+0x11e>
 8005baa:	9207      	str	r2, [sp, #28]
 8005bac:	e004      	b.n	8005bb8 <_vfiprintf_r+0x128>
 8005bae:	4252      	negs	r2, r2
 8005bb0:	f043 0302 	orr.w	r3, r3, #2
 8005bb4:	9207      	str	r2, [sp, #28]
 8005bb6:	9304      	str	r3, [sp, #16]
 8005bb8:	f898 3000 	ldrb.w	r3, [r8]
 8005bbc:	2b2e      	cmp	r3, #46	; 0x2e
 8005bbe:	d10e      	bne.n	8005bde <_vfiprintf_r+0x14e>
 8005bc0:	f898 3001 	ldrb.w	r3, [r8, #1]
 8005bc4:	2b2a      	cmp	r3, #42	; 0x2a
 8005bc6:	d138      	bne.n	8005c3a <_vfiprintf_r+0x1aa>
 8005bc8:	9b03      	ldr	r3, [sp, #12]
 8005bca:	1d1a      	adds	r2, r3, #4
 8005bcc:	681b      	ldr	r3, [r3, #0]
 8005bce:	9203      	str	r2, [sp, #12]
 8005bd0:	2b00      	cmp	r3, #0
 8005bd2:	bfb8      	it	lt
 8005bd4:	f04f 33ff 	movlt.w	r3, #4294967295
 8005bd8:	f108 0802 	add.w	r8, r8, #2
 8005bdc:	9305      	str	r3, [sp, #20]
 8005bde:	4d33      	ldr	r5, [pc, #204]	; (8005cac <_vfiprintf_r+0x21c>)
 8005be0:	f898 1000 	ldrb.w	r1, [r8]
 8005be4:	2203      	movs	r2, #3
 8005be6:	4628      	mov	r0, r5
 8005be8:	f7fa fb12 	bl	8000210 <memchr>
 8005bec:	b140      	cbz	r0, 8005c00 <_vfiprintf_r+0x170>
 8005bee:	2340      	movs	r3, #64	; 0x40
 8005bf0:	1b40      	subs	r0, r0, r5
 8005bf2:	fa03 f000 	lsl.w	r0, r3, r0
 8005bf6:	9b04      	ldr	r3, [sp, #16]
 8005bf8:	4303      	orrs	r3, r0
 8005bfa:	f108 0801 	add.w	r8, r8, #1
 8005bfe:	9304      	str	r3, [sp, #16]
 8005c00:	f898 1000 	ldrb.w	r1, [r8]
 8005c04:	482a      	ldr	r0, [pc, #168]	; (8005cb0 <_vfiprintf_r+0x220>)
 8005c06:	f88d 1028 	strb.w	r1, [sp, #40]	; 0x28
 8005c0a:	2206      	movs	r2, #6
 8005c0c:	f108 0701 	add.w	r7, r8, #1
 8005c10:	f7fa fafe 	bl	8000210 <memchr>
 8005c14:	2800      	cmp	r0, #0
 8005c16:	d037      	beq.n	8005c88 <_vfiprintf_r+0x1f8>
 8005c18:	4b26      	ldr	r3, [pc, #152]	; (8005cb4 <_vfiprintf_r+0x224>)
 8005c1a:	bb1b      	cbnz	r3, 8005c64 <_vfiprintf_r+0x1d4>
 8005c1c:	9b03      	ldr	r3, [sp, #12]
 8005c1e:	3307      	adds	r3, #7
 8005c20:	f023 0307 	bic.w	r3, r3, #7
 8005c24:	3308      	adds	r3, #8
 8005c26:	9303      	str	r3, [sp, #12]
 8005c28:	9b09      	ldr	r3, [sp, #36]	; 0x24
 8005c2a:	444b      	add	r3, r9
 8005c2c:	9309      	str	r3, [sp, #36]	; 0x24
 8005c2e:	e750      	b.n	8005ad2 <_vfiprintf_r+0x42>
 8005c30:	fb05 3202 	mla	r2, r5, r2, r3
 8005c34:	2001      	movs	r0, #1
 8005c36:	4688      	mov	r8, r1
 8005c38:	e78a      	b.n	8005b50 <_vfiprintf_r+0xc0>
 8005c3a:	2300      	movs	r3, #0
 8005c3c:	f108 0801 	add.w	r8, r8, #1
 8005c40:	9305      	str	r3, [sp, #20]
 8005c42:	4619      	mov	r1, r3
 8005c44:	250a      	movs	r5, #10
 8005c46:	4640      	mov	r0, r8
 8005c48:	f810 2b01 	ldrb.w	r2, [r0], #1
 8005c4c:	3a30      	subs	r2, #48	; 0x30
 8005c4e:	2a09      	cmp	r2, #9
 8005c50:	d903      	bls.n	8005c5a <_vfiprintf_r+0x1ca>
 8005c52:	2b00      	cmp	r3, #0
 8005c54:	d0c3      	beq.n	8005bde <_vfiprintf_r+0x14e>
 8005c56:	9105      	str	r1, [sp, #20]
 8005c58:	e7c1      	b.n	8005bde <_vfiprintf_r+0x14e>
 8005c5a:	fb05 2101 	mla	r1, r5, r1, r2
 8005c5e:	2301      	movs	r3, #1
 8005c60:	4680      	mov	r8, r0
 8005c62:	e7f0      	b.n	8005c46 <_vfiprintf_r+0x1b6>
 8005c64:	ab03      	add	r3, sp, #12
 8005c66:	9300      	str	r3, [sp, #0]
 8005c68:	4622      	mov	r2, r4
 8005c6a:	4b13      	ldr	r3, [pc, #76]	; (8005cb8 <_vfiprintf_r+0x228>)
 8005c6c:	a904      	add	r1, sp, #16
 8005c6e:	4630      	mov	r0, r6
 8005c70:	f3af 8000 	nop.w
 8005c74:	f1b0 3fff 	cmp.w	r0, #4294967295
 8005c78:	4681      	mov	r9, r0
 8005c7a:	d1d5      	bne.n	8005c28 <_vfiprintf_r+0x198>
 8005c7c:	89a3      	ldrh	r3, [r4, #12]
 8005c7e:	065b      	lsls	r3, r3, #25
 8005c80:	f53f af7e 	bmi.w	8005b80 <_vfiprintf_r+0xf0>
 8005c84:	9809      	ldr	r0, [sp, #36]	; 0x24
 8005c86:	e77d      	b.n	8005b84 <_vfiprintf_r+0xf4>
 8005c88:	ab03      	add	r3, sp, #12
 8005c8a:	9300      	str	r3, [sp, #0]
 8005c8c:	4622      	mov	r2, r4
 8005c8e:	4b0a      	ldr	r3, [pc, #40]	; (8005cb8 <_vfiprintf_r+0x228>)
 8005c90:	a904      	add	r1, sp, #16
 8005c92:	4630      	mov	r0, r6
 8005c94:	f000 f888 	bl	8005da8 <_printf_i>
 8005c98:	e7ec      	b.n	8005c74 <_vfiprintf_r+0x1e4>
 8005c9a:	bf00      	nop
 8005c9c:	0800736c 	.word	0x0800736c
 8005ca0:	08007318 	.word	0x08007318
 8005ca4:	0800738c 	.word	0x0800738c
 8005ca8:	0800734c 	.word	0x0800734c
 8005cac:	0800731e 	.word	0x0800731e
 8005cb0:	08007322 	.word	0x08007322
 8005cb4:	00000000 	.word	0x00000000
 8005cb8:	08005a6b 	.word	0x08005a6b

08005cbc <_printf_common>:
 8005cbc:	e92d 47f0 	stmdb	sp!, {r4, r5, r6, r7, r8, r9, sl, lr}
 8005cc0:	4691      	mov	r9, r2
 8005cc2:	461f      	mov	r7, r3
 8005cc4:	688a      	ldr	r2, [r1, #8]
 8005cc6:	690b      	ldr	r3, [r1, #16]
 8005cc8:	f8dd 8020 	ldr.w	r8, [sp, #32]
 8005ccc:	4293      	cmp	r3, r2
 8005cce:	bfb8      	it	lt
 8005cd0:	4613      	movlt	r3, r2
 8005cd2:	f8c9 3000 	str.w	r3, [r9]
 8005cd6:	f891 2043 	ldrb.w	r2, [r1, #67]	; 0x43
 8005cda:	4606      	mov	r6, r0
 8005cdc:	460c      	mov	r4, r1
 8005cde:	b112      	cbz	r2, 8005ce6 <_printf_common+0x2a>
 8005ce0:	3301      	adds	r3, #1
 8005ce2:	f8c9 3000 	str.w	r3, [r9]
 8005ce6:	6823      	ldr	r3, [r4, #0]
 8005ce8:	0699      	lsls	r1, r3, #26
 8005cea:	bf42      	ittt	mi
 8005cec:	f8d9 3000 	ldrmi.w	r3, [r9]
 8005cf0:	3302      	addmi	r3, #2
 8005cf2:	f8c9 3000 	strmi.w	r3, [r9]
 8005cf6:	6825      	ldr	r5, [r4, #0]
 8005cf8:	f015 0506 	ands.w	r5, r5, #6
 8005cfc:	d107      	bne.n	8005d0e <_printf_common+0x52>
 8005cfe:	f104 0a19 	add.w	sl, r4, #25
 8005d02:	68e3      	ldr	r3, [r4, #12]
 8005d04:	f8d9 2000 	ldr.w	r2, [r9]
 8005d08:	1a9b      	subs	r3, r3, r2
 8005d0a:	42ab      	cmp	r3, r5
 8005d0c:	dc28      	bgt.n	8005d60 <_printf_common+0xa4>
 8005d0e:	f894 3043 	ldrb.w	r3, [r4, #67]	; 0x43
 8005d12:	6822      	ldr	r2, [r4, #0]
 8005d14:	3300      	adds	r3, #0
 8005d16:	bf18      	it	ne
 8005d18:	2301      	movne	r3, #1
 8005d1a:	0692      	lsls	r2, r2, #26
 8005d1c:	d42d      	bmi.n	8005d7a <_printf_common+0xbe>
 8005d1e:	f104 0243 	add.w	r2, r4, #67	; 0x43
 8005d22:	4639      	mov	r1, r7
 8005d24:	4630      	mov	r0, r6
 8005d26:	47c0      	blx	r8
 8005d28:	3001      	adds	r0, #1
 8005d2a:	d020      	beq.n	8005d6e <_printf_common+0xb2>
 8005d2c:	6823      	ldr	r3, [r4, #0]
 8005d2e:	68e5      	ldr	r5, [r4, #12]
 8005d30:	f8d9 2000 	ldr.w	r2, [r9]
 8005d34:	f003 0306 	and.w	r3, r3, #6
 8005d38:	2b04      	cmp	r3, #4
 8005d3a:	bf08      	it	eq
 8005d3c:	1aad      	subeq	r5, r5, r2
 8005d3e:	68a3      	ldr	r3, [r4, #8]
 8005d40:	6922      	ldr	r2, [r4, #16]
 8005d42:	bf0c      	ite	eq
 8005d44:	ea25 75e5 	biceq.w	r5, r5, r5, asr #31
 8005d48:	2500      	movne	r5, #0
 8005d4a:	4293      	cmp	r3, r2
 8005d4c:	bfc4      	itt	gt
 8005d4e:	1a9b      	subgt	r3, r3, r2
 8005d50:	18ed      	addgt	r5, r5, r3
 8005d52:	f04f 0900 	mov.w	r9, #0
 8005d56:	341a      	adds	r4, #26
 8005d58:	454d      	cmp	r5, r9
 8005d5a:	d11a      	bne.n	8005d92 <_printf_common+0xd6>
 8005d5c:	2000      	movs	r0, #0
 8005d5e:	e008      	b.n	8005d72 <_printf_common+0xb6>
 8005d60:	2301      	movs	r3, #1
 8005d62:	4652      	mov	r2, sl
 8005d64:	4639      	mov	r1, r7
 8005d66:	4630      	mov	r0, r6
 8005d68:	47c0      	blx	r8
 8005d6a:	3001      	adds	r0, #1
 8005d6c:	d103      	bne.n	8005d76 <_printf_common+0xba>
 8005d6e:	f04f 30ff 	mov.w	r0, #4294967295
 8005d72:	e8bd 87f0 	ldmia.w	sp!, {r4, r5, r6, r7, r8, r9, sl, pc}
 8005d76:	3501      	adds	r5, #1
 8005d78:	e7c3      	b.n	8005d02 <_printf_common+0x46>
 8005d7a:	18e1      	adds	r1, r4, r3
 8005d7c:	1c5a      	adds	r2, r3, #1
 8005d7e:	2030      	movs	r0, #48	; 0x30
 8005d80:	f881 0043 	strb.w	r0, [r1, #67]	; 0x43
 8005d84:	4422      	add	r2, r4
 8005d86:	f894 1045 	ldrb.w	r1, [r4, #69]	; 0x45
 8005d8a:	f882 1043 	strb.w	r1, [r2, #67]	; 0x43
 8005d8e:	3302      	adds	r3, #2
 8005d90:	e7c5      	b.n	8005d1e <_printf_common+0x62>
 8005d92:	2301      	movs	r3, #1
 8005d94:	4622      	mov	r2, r4
 8005d96:	4639      	mov	r1, r7
 8005d98:	4630      	mov	r0, r6
 8005d9a:	47c0      	blx	r8
 8005d9c:	3001      	adds	r0, #1
 8005d9e:	d0e6      	beq.n	8005d6e <_printf_common+0xb2>
 8005da0:	f109 0901 	add.w	r9, r9, #1
 8005da4:	e7d8      	b.n	8005d58 <_printf_common+0x9c>
	...

08005da8 <_printf_i>:
 8005da8:	e92d 43f0 	stmdb	sp!, {r4, r5, r6, r7, r8, r9, lr}
 8005dac:	f101 0c43 	add.w	ip, r1, #67	; 0x43
 8005db0:	460c      	mov	r4, r1
 8005db2:	7e09      	ldrb	r1, [r1, #24]
 8005db4:	b085      	sub	sp, #20
 8005db6:	296e      	cmp	r1, #110	; 0x6e
 8005db8:	4617      	mov	r7, r2
 8005dba:	4606      	mov	r6, r0
 8005dbc:	4698      	mov	r8, r3
 8005dbe:	9a0c      	ldr	r2, [sp, #48]	; 0x30
 8005dc0:	f000 80b3 	beq.w	8005f2a <_printf_i+0x182>
 8005dc4:	d822      	bhi.n	8005e0c <_printf_i+0x64>
 8005dc6:	2963      	cmp	r1, #99	; 0x63
 8005dc8:	d036      	beq.n	8005e38 <_printf_i+0x90>
 8005dca:	d80a      	bhi.n	8005de2 <_printf_i+0x3a>
 8005dcc:	2900      	cmp	r1, #0
 8005dce:	f000 80b9 	beq.w	8005f44 <_printf_i+0x19c>
 8005dd2:	2958      	cmp	r1, #88	; 0x58
 8005dd4:	f000 8083 	beq.w	8005ede <_printf_i+0x136>
 8005dd8:	f104 0542 	add.w	r5, r4, #66	; 0x42
 8005ddc:	f884 1042 	strb.w	r1, [r4, #66]	; 0x42
 8005de0:	e032      	b.n	8005e48 <_printf_i+0xa0>
 8005de2:	2964      	cmp	r1, #100	; 0x64
 8005de4:	d001      	beq.n	8005dea <_printf_i+0x42>
 8005de6:	2969      	cmp	r1, #105	; 0x69
 8005de8:	d1f6      	bne.n	8005dd8 <_printf_i+0x30>
 8005dea:	6820      	ldr	r0, [r4, #0]
 8005dec:	6813      	ldr	r3, [r2, #0]
 8005dee:	0605      	lsls	r5, r0, #24
 8005df0:	f103 0104 	add.w	r1, r3, #4
 8005df4:	d52a      	bpl.n	8005e4c <_printf_i+0xa4>
 8005df6:	681b      	ldr	r3, [r3, #0]
 8005df8:	6011      	str	r1, [r2, #0]
 8005dfa:	2b00      	cmp	r3, #0
 8005dfc:	da03      	bge.n	8005e06 <_printf_i+0x5e>
 8005dfe:	222d      	movs	r2, #45	; 0x2d
 8005e00:	425b      	negs	r3, r3
 8005e02:	f884 2043 	strb.w	r2, [r4, #67]	; 0x43
 8005e06:	486f      	ldr	r0, [pc, #444]	; (8005fc4 <_printf_i+0x21c>)
 8005e08:	220a      	movs	r2, #10
 8005e0a:	e039      	b.n	8005e80 <_printf_i+0xd8>
 8005e0c:	2973      	cmp	r1, #115	; 0x73
 8005e0e:	f000 809d 	beq.w	8005f4c <_printf_i+0x1a4>
 8005e12:	d808      	bhi.n	8005e26 <_printf_i+0x7e>
 8005e14:	296f      	cmp	r1, #111	; 0x6f
 8005e16:	d020      	beq.n	8005e5a <_printf_i+0xb2>
 8005e18:	2970      	cmp	r1, #112	; 0x70
 8005e1a:	d1dd      	bne.n	8005dd8 <_printf_i+0x30>
 8005e1c:	6823      	ldr	r3, [r4, #0]
 8005e1e:	f043 0320 	orr.w	r3, r3, #32
 8005e22:	6023      	str	r3, [r4, #0]
 8005e24:	e003      	b.n	8005e2e <_printf_i+0x86>
 8005e26:	2975      	cmp	r1, #117	; 0x75
 8005e28:	d017      	beq.n	8005e5a <_printf_i+0xb2>
 8005e2a:	2978      	cmp	r1, #120	; 0x78
 8005e2c:	d1d4      	bne.n	8005dd8 <_printf_i+0x30>
 8005e2e:	2378      	movs	r3, #120	; 0x78
 8005e30:	f884 3045 	strb.w	r3, [r4, #69]	; 0x45
 8005e34:	4864      	ldr	r0, [pc, #400]	; (8005fc8 <_printf_i+0x220>)
 8005e36:	e055      	b.n	8005ee4 <_printf_i+0x13c>
 8005e38:	6813      	ldr	r3, [r2, #0]
 8005e3a:	1d19      	adds	r1, r3, #4
 8005e3c:	681b      	ldr	r3, [r3, #0]
 8005e3e:	6011      	str	r1, [r2, #0]
 8005e40:	f104 0542 	add.w	r5, r4, #66	; 0x42
 8005e44:	f884 3042 	strb.w	r3, [r4, #66]	; 0x42
 8005e48:	2301      	movs	r3, #1
 8005e4a:	e08c      	b.n	8005f66 <_printf_i+0x1be>
 8005e4c:	681b      	ldr	r3, [r3, #0]
 8005e4e:	6011      	str	r1, [r2, #0]
 8005e50:	f010 0f40 	tst.w	r0, #64	; 0x40
 8005e54:	bf18      	it	ne
 8005e56:	b21b      	sxthne	r3, r3
 8005e58:	e7cf      	b.n	8005dfa <_printf_i+0x52>
 8005e5a:	6813      	ldr	r3, [r2, #0]
 8005e5c:	6825      	ldr	r5, [r4, #0]
 8005e5e:	1d18      	adds	r0, r3, #4
 8005e60:	6010      	str	r0, [r2, #0]
 8005e62:	0628      	lsls	r0, r5, #24
 8005e64:	d501      	bpl.n	8005e6a <_printf_i+0xc2>
 8005e66:	681b      	ldr	r3, [r3, #0]
 8005e68:	e002      	b.n	8005e70 <_printf_i+0xc8>
 8005e6a:	0668      	lsls	r0, r5, #25
 8005e6c:	d5fb      	bpl.n	8005e66 <_printf_i+0xbe>
 8005e6e:	881b      	ldrh	r3, [r3, #0]
 8005e70:	4854      	ldr	r0, [pc, #336]	; (8005fc4 <_printf_i+0x21c>)
 8005e72:	296f      	cmp	r1, #111	; 0x6f
 8005e74:	bf14      	ite	ne
 8005e76:	220a      	movne	r2, #10
 8005e78:	2208      	moveq	r2, #8
 8005e7a:	2100      	movs	r1, #0
 8005e7c:	f884 1043 	strb.w	r1, [r4, #67]	; 0x43
 8005e80:	6865      	ldr	r5, [r4, #4]
 8005e82:	60a5      	str	r5, [r4, #8]
 8005e84:	2d00      	cmp	r5, #0
 8005e86:	f2c0 8095 	blt.w	8005fb4 <_printf_i+0x20c>
 8005e8a:	6821      	ldr	r1, [r4, #0]
 8005e8c:	f021 0104 	bic.w	r1, r1, #4
 8005e90:	6021      	str	r1, [r4, #0]
 8005e92:	2b00      	cmp	r3, #0
 8005e94:	d13d      	bne.n	8005f12 <_printf_i+0x16a>
 8005e96:	2d00      	cmp	r5, #0
 8005e98:	f040 808e 	bne.w	8005fb8 <_printf_i+0x210>
 8005e9c:	4665      	mov	r5, ip
 8005e9e:	2a08      	cmp	r2, #8
 8005ea0:	d10b      	bne.n	8005eba <_printf_i+0x112>
 8005ea2:	6823      	ldr	r3, [r4, #0]
 8005ea4:	07db      	lsls	r3, r3, #31
 8005ea6:	d508      	bpl.n	8005eba <_printf_i+0x112>
 8005ea8:	6923      	ldr	r3, [r4, #16]
 8005eaa:	6862      	ldr	r2, [r4, #4]
 8005eac:	429a      	cmp	r2, r3
 8005eae:	bfde      	ittt	le
 8005eb0:	2330      	movle	r3, #48	; 0x30
 8005eb2:	f805 3c01 	strble.w	r3, [r5, #-1]
 8005eb6:	f105 35ff 	addle.w	r5, r5, #4294967295
 8005eba:	ebac 0305 	sub.w	r3, ip, r5
 8005ebe:	6123      	str	r3, [r4, #16]
 8005ec0:	f8cd 8000 	str.w	r8, [sp]
 8005ec4:	463b      	mov	r3, r7
 8005ec6:	aa03      	add	r2, sp, #12
 8005ec8:	4621      	mov	r1, r4
 8005eca:	4630      	mov	r0, r6
 8005ecc:	f7ff fef6 	bl	8005cbc <_printf_common>
 8005ed0:	3001      	adds	r0, #1
 8005ed2:	d14d      	bne.n	8005f70 <_printf_i+0x1c8>
 8005ed4:	f04f 30ff 	mov.w	r0, #4294967295
 8005ed8:	b005      	add	sp, #20
 8005eda:	e8bd 83f0 	ldmia.w	sp!, {r4, r5, r6, r7, r8, r9, pc}
 8005ede:	4839      	ldr	r0, [pc, #228]	; (8005fc4 <_printf_i+0x21c>)
 8005ee0:	f884 1045 	strb.w	r1, [r4, #69]	; 0x45
 8005ee4:	6813      	ldr	r3, [r2, #0]
 8005ee6:	6821      	ldr	r1, [r4, #0]
 8005ee8:	1d1d      	adds	r5, r3, #4
 8005eea:	681b      	ldr	r3, [r3, #0]
 8005eec:	6015      	str	r5, [r2, #0]
 8005eee:	060a      	lsls	r2, r1, #24
 8005ef0:	d50b      	bpl.n	8005f0a <_printf_i+0x162>
 8005ef2:	07ca      	lsls	r2, r1, #31
 8005ef4:	bf44      	itt	mi
 8005ef6:	f041 0120 	orrmi.w	r1, r1, #32
 8005efa:	6021      	strmi	r1, [r4, #0]
 8005efc:	b91b      	cbnz	r3, 8005f06 <_printf_i+0x15e>
 8005efe:	6822      	ldr	r2, [r4, #0]
 8005f00:	f022 0220 	bic.w	r2, r2, #32
 8005f04:	6022      	str	r2, [r4, #0]
 8005f06:	2210      	movs	r2, #16
 8005f08:	e7b7      	b.n	8005e7a <_printf_i+0xd2>
 8005f0a:	064d      	lsls	r5, r1, #25
 8005f0c:	bf48      	it	mi
 8005f0e:	b29b      	uxthmi	r3, r3
 8005f10:	e7ef      	b.n	8005ef2 <_printf_i+0x14a>
 8005f12:	4665      	mov	r5, ip
 8005f14:	fbb3 f1f2 	udiv	r1, r3, r2
 8005f18:	fb02 3311 	mls	r3, r2, r1, r3
 8005f1c:	5cc3      	ldrb	r3, [r0, r3]
 8005f1e:	f805 3d01 	strb.w	r3, [r5, #-1]!
 8005f22:	460b      	mov	r3, r1
 8005f24:	2900      	cmp	r1, #0
 8005f26:	d1f5      	bne.n	8005f14 <_printf_i+0x16c>
 8005f28:	e7b9      	b.n	8005e9e <_printf_i+0xf6>
 8005f2a:	6813      	ldr	r3, [r2, #0]
 8005f2c:	6825      	ldr	r5, [r4, #0]
 8005f2e:	6961      	ldr	r1, [r4, #20]
 8005f30:	1d18      	adds	r0, r3, #4
 8005f32:	6010      	str	r0, [r2, #0]
 8005f34:	0628      	lsls	r0, r5, #24
 8005f36:	681b      	ldr	r3, [r3, #0]
 8005f38:	d501      	bpl.n	8005f3e <_printf_i+0x196>
 8005f3a:	6019      	str	r1, [r3, #0]
 8005f3c:	e002      	b.n	8005f44 <_printf_i+0x19c>
 8005f3e:	066a      	lsls	r2, r5, #25
 8005f40:	d5fb      	bpl.n	8005f3a <_printf_i+0x192>
 8005f42:	8019      	strh	r1, [r3, #0]
 8005f44:	2300      	movs	r3, #0
 8005f46:	6123      	str	r3, [r4, #16]
 8005f48:	4665      	mov	r5, ip
 8005f4a:	e7b9      	b.n	8005ec0 <_printf_i+0x118>
 8005f4c:	6813      	ldr	r3, [r2, #0]
 8005f4e:	1d19      	adds	r1, r3, #4
 8005f50:	6011      	str	r1, [r2, #0]
 8005f52:	681d      	ldr	r5, [r3, #0]
 8005f54:	6862      	ldr	r2, [r4, #4]
 8005f56:	2100      	movs	r1, #0
 8005f58:	4628      	mov	r0, r5
 8005f5a:	f7fa f959 	bl	8000210 <memchr>
 8005f5e:	b108      	cbz	r0, 8005f64 <_printf_i+0x1bc>
 8005f60:	1b40      	subs	r0, r0, r5
 8005f62:	6060      	str	r0, [r4, #4]
 8005f64:	6863      	ldr	r3, [r4, #4]
 8005f66:	6123      	str	r3, [r4, #16]
 8005f68:	2300      	movs	r3, #0
 8005f6a:	f884 3043 	strb.w	r3, [r4, #67]	; 0x43
 8005f6e:	e7a7      	b.n	8005ec0 <_printf_i+0x118>
 8005f70:	6923      	ldr	r3, [r4, #16]
 8005f72:	462a      	mov	r2, r5
 8005f74:	4639      	mov	r1, r7
 8005f76:	4630      	mov	r0, r6
 8005f78:	47c0      	blx	r8
 8005f7a:	3001      	adds	r0, #1
 8005f7c:	d0aa      	beq.n	8005ed4 <_printf_i+0x12c>
 8005f7e:	6823      	ldr	r3, [r4, #0]
 8005f80:	079b      	lsls	r3, r3, #30
 8005f82:	d413      	bmi.n	8005fac <_printf_i+0x204>
 8005f84:	68e0      	ldr	r0, [r4, #12]
 8005f86:	9b03      	ldr	r3, [sp, #12]
 8005f88:	4298      	cmp	r0, r3
 8005f8a:	bfb8      	it	lt
 8005f8c:	4618      	movlt	r0, r3
 8005f8e:	e7a3      	b.n	8005ed8 <_printf_i+0x130>
 8005f90:	2301      	movs	r3, #1
 8005f92:	464a      	mov	r2, r9
 8005f94:	4639      	mov	r1, r7
 8005f96:	4630      	mov	r0, r6
 8005f98:	47c0      	blx	r8
 8005f9a:	3001      	adds	r0, #1
 8005f9c:	d09a      	beq.n	8005ed4 <_printf_i+0x12c>
 8005f9e:	3501      	adds	r5, #1
 8005fa0:	68e3      	ldr	r3, [r4, #12]
 8005fa2:	9a03      	ldr	r2, [sp, #12]
 8005fa4:	1a9b      	subs	r3, r3, r2
 8005fa6:	42ab      	cmp	r3, r5
 8005fa8:	dcf2      	bgt.n	8005f90 <_printf_i+0x1e8>
 8005faa:	e7eb      	b.n	8005f84 <_printf_i+0x1dc>
 8005fac:	2500      	movs	r5, #0
 8005fae:	f104 0919 	add.w	r9, r4, #25
 8005fb2:	e7f5      	b.n	8005fa0 <_printf_i+0x1f8>
 8005fb4:	2b00      	cmp	r3, #0
 8005fb6:	d1ac      	bne.n	8005f12 <_printf_i+0x16a>
 8005fb8:	7803      	ldrb	r3, [r0, #0]
 8005fba:	f884 3042 	strb.w	r3, [r4, #66]	; 0x42
 8005fbe:	f104 0542 	add.w	r5, r4, #66	; 0x42
 8005fc2:	e76c      	b.n	8005e9e <_printf_i+0xf6>
 8005fc4:	08007329 	.word	0x08007329
 8005fc8:	0800733a 	.word	0x0800733a

08005fcc <_sbrk_r>:
 8005fcc:	b538      	push	{r3, r4, r5, lr}
 8005fce:	4c06      	ldr	r4, [pc, #24]	; (8005fe8 <_sbrk_r+0x1c>)
 8005fd0:	2300      	movs	r3, #0
 8005fd2:	4605      	mov	r5, r0
 8005fd4:	4608      	mov	r0, r1
 8005fd6:	6023      	str	r3, [r4, #0]
 8005fd8:	f7fd ffd2 	bl	8003f80 <_sbrk>
 8005fdc:	1c43      	adds	r3, r0, #1
 8005fde:	d102      	bne.n	8005fe6 <_sbrk_r+0x1a>
 8005fe0:	6823      	ldr	r3, [r4, #0]
 8005fe2:	b103      	cbz	r3, 8005fe6 <_sbrk_r+0x1a>
 8005fe4:	602b      	str	r3, [r5, #0]
 8005fe6:	bd38      	pop	{r3, r4, r5, pc}
 8005fe8:	200007b8 	.word	0x200007b8

08005fec <_raise_r>:
 8005fec:	291f      	cmp	r1, #31
 8005fee:	b538      	push	{r3, r4, r5, lr}
 8005ff0:	4604      	mov	r4, r0
 8005ff2:	460d      	mov	r5, r1
 8005ff4:	d904      	bls.n	8006000 <_raise_r+0x14>
 8005ff6:	2316      	movs	r3, #22
 8005ff8:	6003      	str	r3, [r0, #0]
 8005ffa:	f04f 30ff 	mov.w	r0, #4294967295
 8005ffe:	bd38      	pop	{r3, r4, r5, pc}
 8006000:	6c42      	ldr	r2, [r0, #68]	; 0x44
 8006002:	b112      	cbz	r2, 800600a <_raise_r+0x1e>
 8006004:	f852 3021 	ldr.w	r3, [r2, r1, lsl #2]
 8006008:	b94b      	cbnz	r3, 800601e <_raise_r+0x32>
 800600a:	4620      	mov	r0, r4
 800600c:	f000 f830 	bl	8006070 <_getpid_r>
 8006010:	462a      	mov	r2, r5
 8006012:	4601      	mov	r1, r0
 8006014:	4620      	mov	r0, r4
 8006016:	e8bd 4038 	ldmia.w	sp!, {r3, r4, r5, lr}
 800601a:	f000 b817 	b.w	800604c <_kill_r>
 800601e:	2b01      	cmp	r3, #1
 8006020:	d00a      	beq.n	8006038 <_raise_r+0x4c>
 8006022:	1c59      	adds	r1, r3, #1
 8006024:	d103      	bne.n	800602e <_raise_r+0x42>
 8006026:	2316      	movs	r3, #22
 8006028:	6003      	str	r3, [r0, #0]
 800602a:	2001      	movs	r0, #1
 800602c:	e7e7      	b.n	8005ffe <_raise_r+0x12>
 800602e:	2400      	movs	r4, #0
 8006030:	f842 4025 	str.w	r4, [r2, r5, lsl #2]
 8006034:	4628      	mov	r0, r5
 8006036:	4798      	blx	r3
 8006038:	2000      	movs	r0, #0
 800603a:	e7e0      	b.n	8005ffe <_raise_r+0x12>

0800603c <raise>:
 800603c:	4b02      	ldr	r3, [pc, #8]	; (8006048 <raise+0xc>)
 800603e:	4601      	mov	r1, r0
 8006040:	6818      	ldr	r0, [r3, #0]
 8006042:	f7ff bfd3 	b.w	8005fec <_raise_r>
 8006046:	bf00      	nop
 8006048:	20000010 	.word	0x20000010

0800604c <_kill_r>:
 800604c:	b538      	push	{r3, r4, r5, lr}
 800604e:	4c07      	ldr	r4, [pc, #28]	; (800606c <_kill_r+0x20>)
 8006050:	2300      	movs	r3, #0
 8006052:	4605      	mov	r5, r0
 8006054:	4608      	mov	r0, r1
 8006056:	4611      	mov	r1, r2
 8006058:	6023      	str	r3, [r4, #0]
 800605a:	f7fd ff67 	bl	8003f2c <_kill>
 800605e:	1c43      	adds	r3, r0, #1
 8006060:	d102      	bne.n	8006068 <_kill_r+0x1c>
 8006062:	6823      	ldr	r3, [r4, #0]
 8006064:	b103      	cbz	r3, 8006068 <_kill_r+0x1c>
 8006066:	602b      	str	r3, [r5, #0]
 8006068:	bd38      	pop	{r3, r4, r5, pc}
 800606a:	bf00      	nop
 800606c:	200007b8 	.word	0x200007b8

08006070 <_getpid_r>:
 8006070:	f7fd bf5a 	b.w	8003f28 <_getpid>

08006074 <_vsiprintf_r>:
 8006074:	b500      	push	{lr}
 8006076:	b09b      	sub	sp, #108	; 0x6c
 8006078:	9100      	str	r1, [sp, #0]
 800607a:	9104      	str	r1, [sp, #16]
 800607c:	f06f 4100 	mvn.w	r1, #2147483648	; 0x80000000
 8006080:	9105      	str	r1, [sp, #20]
 8006082:	9102      	str	r1, [sp, #8]
 8006084:	4905      	ldr	r1, [pc, #20]	; (800609c <_vsiprintf_r+0x28>)
 8006086:	9103      	str	r1, [sp, #12]
 8006088:	4669      	mov	r1, sp
 800608a:	f000 fb97 	bl	80067bc <_svfiprintf_r>
 800608e:	9b00      	ldr	r3, [sp, #0]
 8006090:	2200      	movs	r2, #0
 8006092:	701a      	strb	r2, [r3, #0]
 8006094:	b01b      	add	sp, #108	; 0x6c
 8006096:	f85d fb04 	ldr.w	pc, [sp], #4
 800609a:	bf00      	nop
 800609c:	ffff0208 	.word	0xffff0208

080060a0 <vsiprintf>:
 80060a0:	4613      	mov	r3, r2
 80060a2:	460a      	mov	r2, r1
 80060a4:	4601      	mov	r1, r0
 80060a6:	4802      	ldr	r0, [pc, #8]	; (80060b0 <vsiprintf+0x10>)
 80060a8:	6800      	ldr	r0, [r0, #0]
 80060aa:	f7ff bfe3 	b.w	8006074 <_vsiprintf_r>
 80060ae:	bf00      	nop
 80060b0:	20000010 	.word	0x20000010

080060b4 <__swbuf_r>:
 80060b4:	b5f8      	push	{r3, r4, r5, r6, r7, lr}
 80060b6:	460e      	mov	r6, r1
 80060b8:	4614      	mov	r4, r2
 80060ba:	4605      	mov	r5, r0
 80060bc:	b118      	cbz	r0, 80060c6 <__swbuf_r+0x12>
 80060be:	6983      	ldr	r3, [r0, #24]
 80060c0:	b90b      	cbnz	r3, 80060c6 <__swbuf_r+0x12>
 80060c2:	f000 fa0b 	bl	80064dc <__sinit>
 80060c6:	4b21      	ldr	r3, [pc, #132]	; (800614c <__swbuf_r+0x98>)
 80060c8:	429c      	cmp	r4, r3
 80060ca:	d12a      	bne.n	8006122 <__swbuf_r+0x6e>
 80060cc:	686c      	ldr	r4, [r5, #4]
 80060ce:	69a3      	ldr	r3, [r4, #24]
 80060d0:	60a3      	str	r3, [r4, #8]
 80060d2:	89a3      	ldrh	r3, [r4, #12]
 80060d4:	071a      	lsls	r2, r3, #28
 80060d6:	d52e      	bpl.n	8006136 <__swbuf_r+0x82>
 80060d8:	6923      	ldr	r3, [r4, #16]
 80060da:	b363      	cbz	r3, 8006136 <__swbuf_r+0x82>
 80060dc:	6923      	ldr	r3, [r4, #16]
 80060de:	6820      	ldr	r0, [r4, #0]
 80060e0:	1ac0      	subs	r0, r0, r3
 80060e2:	6963      	ldr	r3, [r4, #20]
 80060e4:	b2f6      	uxtb	r6, r6
 80060e6:	4283      	cmp	r3, r0
 80060e8:	4637      	mov	r7, r6
 80060ea:	dc04      	bgt.n	80060f6 <__swbuf_r+0x42>
 80060ec:	4621      	mov	r1, r4
 80060ee:	4628      	mov	r0, r5
 80060f0:	f000 f98a 	bl	8006408 <_fflush_r>
 80060f4:	bb28      	cbnz	r0, 8006142 <__swbuf_r+0x8e>
 80060f6:	68a3      	ldr	r3, [r4, #8]
 80060f8:	3b01      	subs	r3, #1
 80060fa:	60a3      	str	r3, [r4, #8]
 80060fc:	6823      	ldr	r3, [r4, #0]
 80060fe:	1c5a      	adds	r2, r3, #1
 8006100:	6022      	str	r2, [r4, #0]
 8006102:	701e      	strb	r6, [r3, #0]
 8006104:	6963      	ldr	r3, [r4, #20]
 8006106:	3001      	adds	r0, #1
 8006108:	4283      	cmp	r3, r0
 800610a:	d004      	beq.n	8006116 <__swbuf_r+0x62>
 800610c:	89a3      	ldrh	r3, [r4, #12]
 800610e:	07db      	lsls	r3, r3, #31
 8006110:	d519      	bpl.n	8006146 <__swbuf_r+0x92>
 8006112:	2e0a      	cmp	r6, #10
 8006114:	d117      	bne.n	8006146 <__swbuf_r+0x92>
 8006116:	4621      	mov	r1, r4
 8006118:	4628      	mov	r0, r5
 800611a:	f000 f975 	bl	8006408 <_fflush_r>
 800611e:	b190      	cbz	r0, 8006146 <__swbuf_r+0x92>
 8006120:	e00f      	b.n	8006142 <__swbuf_r+0x8e>
 8006122:	4b0b      	ldr	r3, [pc, #44]	; (8006150 <__swbuf_r+0x9c>)
 8006124:	429c      	cmp	r4, r3
 8006126:	d101      	bne.n	800612c <__swbuf_r+0x78>
 8006128:	68ac      	ldr	r4, [r5, #8]
 800612a:	e7d0      	b.n	80060ce <__swbuf_r+0x1a>
 800612c:	4b09      	ldr	r3, [pc, #36]	; (8006154 <__swbuf_r+0xa0>)
 800612e:	429c      	cmp	r4, r3
 8006130:	bf08      	it	eq
 8006132:	68ec      	ldreq	r4, [r5, #12]
 8006134:	e7cb      	b.n	80060ce <__swbuf_r+0x1a>
 8006136:	4621      	mov	r1, r4
 8006138:	4628      	mov	r0, r5
 800613a:	f000 f80d 	bl	8006158 <__swsetup_r>
 800613e:	2800      	cmp	r0, #0
 8006140:	d0cc      	beq.n	80060dc <__swbuf_r+0x28>
 8006142:	f04f 37ff 	mov.w	r7, #4294967295
 8006146:	4638      	mov	r0, r7
 8006148:	bdf8      	pop	{r3, r4, r5, r6, r7, pc}
 800614a:	bf00      	nop
 800614c:	0800736c 	.word	0x0800736c
 8006150:	0800738c 	.word	0x0800738c
 8006154:	0800734c 	.word	0x0800734c

08006158 <__swsetup_r>:
 8006158:	4b32      	ldr	r3, [pc, #200]	; (8006224 <__swsetup_r+0xcc>)
 800615a:	b570      	push	{r4, r5, r6, lr}
 800615c:	681d      	ldr	r5, [r3, #0]
 800615e:	4606      	mov	r6, r0
 8006160:	460c      	mov	r4, r1
 8006162:	b125      	cbz	r5, 800616e <__swsetup_r+0x16>
 8006164:	69ab      	ldr	r3, [r5, #24]
 8006166:	b913      	cbnz	r3, 800616e <__swsetup_r+0x16>
 8006168:	4628      	mov	r0, r5
 800616a:	f000 f9b7 	bl	80064dc <__sinit>
 800616e:	4b2e      	ldr	r3, [pc, #184]	; (8006228 <__swsetup_r+0xd0>)
 8006170:	429c      	cmp	r4, r3
 8006172:	d10f      	bne.n	8006194 <__swsetup_r+0x3c>
 8006174:	686c      	ldr	r4, [r5, #4]
 8006176:	f9b4 300c 	ldrsh.w	r3, [r4, #12]
 800617a:	b29a      	uxth	r2, r3
 800617c:	0715      	lsls	r5, r2, #28
 800617e:	d42c      	bmi.n	80061da <__swsetup_r+0x82>
 8006180:	06d0      	lsls	r0, r2, #27
 8006182:	d411      	bmi.n	80061a8 <__swsetup_r+0x50>
 8006184:	2209      	movs	r2, #9
 8006186:	6032      	str	r2, [r6, #0]
 8006188:	f043 0340 	orr.w	r3, r3, #64	; 0x40
 800618c:	81a3      	strh	r3, [r4, #12]
 800618e:	f04f 30ff 	mov.w	r0, #4294967295
 8006192:	e03e      	b.n	8006212 <__swsetup_r+0xba>
 8006194:	4b25      	ldr	r3, [pc, #148]	; (800622c <__swsetup_r+0xd4>)
 8006196:	429c      	cmp	r4, r3
 8006198:	d101      	bne.n	800619e <__swsetup_r+0x46>
 800619a:	68ac      	ldr	r4, [r5, #8]
 800619c:	e7eb      	b.n	8006176 <__swsetup_r+0x1e>
 800619e:	4b24      	ldr	r3, [pc, #144]	; (8006230 <__swsetup_r+0xd8>)
 80061a0:	429c      	cmp	r4, r3
 80061a2:	bf08      	it	eq
 80061a4:	68ec      	ldreq	r4, [r5, #12]
 80061a6:	e7e6      	b.n	8006176 <__swsetup_r+0x1e>
 80061a8:	0751      	lsls	r1, r2, #29
 80061aa:	d512      	bpl.n	80061d2 <__swsetup_r+0x7a>
 80061ac:	6b61      	ldr	r1, [r4, #52]	; 0x34
 80061ae:	b141      	cbz	r1, 80061c2 <__swsetup_r+0x6a>
 80061b0:	f104 0344 	add.w	r3, r4, #68	; 0x44
 80061b4:	4299      	cmp	r1, r3
 80061b6:	d002      	beq.n	80061be <__swsetup_r+0x66>
 80061b8:	4630      	mov	r0, r6
 80061ba:	f7ff fb97 	bl	80058ec <_free_r>
 80061be:	2300      	movs	r3, #0
 80061c0:	6363      	str	r3, [r4, #52]	; 0x34
 80061c2:	89a3      	ldrh	r3, [r4, #12]
 80061c4:	f023 0324 	bic.w	r3, r3, #36	; 0x24
 80061c8:	81a3      	strh	r3, [r4, #12]
 80061ca:	2300      	movs	r3, #0
 80061cc:	6063      	str	r3, [r4, #4]
 80061ce:	6923      	ldr	r3, [r4, #16]
 80061d0:	6023      	str	r3, [r4, #0]
 80061d2:	89a3      	ldrh	r3, [r4, #12]
 80061d4:	f043 0308 	orr.w	r3, r3, #8
 80061d8:	81a3      	strh	r3, [r4, #12]
 80061da:	6923      	ldr	r3, [r4, #16]
 80061dc:	b94b      	cbnz	r3, 80061f2 <__swsetup_r+0x9a>
 80061de:	89a3      	ldrh	r3, [r4, #12]
 80061e0:	f403 7320 	and.w	r3, r3, #640	; 0x280
 80061e4:	f5b3 7f00 	cmp.w	r3, #512	; 0x200
 80061e8:	d003      	beq.n	80061f2 <__swsetup_r+0x9a>
 80061ea:	4621      	mov	r1, r4
 80061ec:	4630      	mov	r0, r6
 80061ee:	f000 fa23 	bl	8006638 <__smakebuf_r>
 80061f2:	89a2      	ldrh	r2, [r4, #12]
 80061f4:	f012 0301 	ands.w	r3, r2, #1
 80061f8:	d00c      	beq.n	8006214 <__swsetup_r+0xbc>
 80061fa:	2300      	movs	r3, #0
 80061fc:	60a3      	str	r3, [r4, #8]
 80061fe:	6963      	ldr	r3, [r4, #20]
 8006200:	425b      	negs	r3, r3
 8006202:	61a3      	str	r3, [r4, #24]
 8006204:	6923      	ldr	r3, [r4, #16]
 8006206:	b953      	cbnz	r3, 800621e <__swsetup_r+0xc6>
 8006208:	f9b4 300c 	ldrsh.w	r3, [r4, #12]
 800620c:	f013 0080 	ands.w	r0, r3, #128	; 0x80
 8006210:	d1ba      	bne.n	8006188 <__swsetup_r+0x30>
 8006212:	bd70      	pop	{r4, r5, r6, pc}
 8006214:	0792      	lsls	r2, r2, #30
 8006216:	bf58      	it	pl
 8006218:	6963      	ldrpl	r3, [r4, #20]
 800621a:	60a3      	str	r3, [r4, #8]
 800621c:	e7f2      	b.n	8006204 <__swsetup_r+0xac>
 800621e:	2000      	movs	r0, #0
 8006220:	e7f7      	b.n	8006212 <__swsetup_r+0xba>
 8006222:	bf00      	nop
 8006224:	20000010 	.word	0x20000010
 8006228:	0800736c 	.word	0x0800736c
 800622c:	0800738c 	.word	0x0800738c
 8006230:	0800734c 	.word	0x0800734c

08006234 <__register_exitproc>:
 8006234:	e92d 43f8 	stmdb	sp!, {r3, r4, r5, r6, r7, r8, r9, lr}
 8006238:	4d2c      	ldr	r5, [pc, #176]	; (80062ec <__register_exitproc+0xb8>)
 800623a:	682c      	ldr	r4, [r5, #0]
 800623c:	4607      	mov	r7, r0
 800623e:	460e      	mov	r6, r1
 8006240:	4691      	mov	r9, r2
 8006242:	4698      	mov	r8, r3
 8006244:	b934      	cbnz	r4, 8006254 <__register_exitproc+0x20>
 8006246:	4b2a      	ldr	r3, [pc, #168]	; (80062f0 <__register_exitproc+0xbc>)
 8006248:	4c2a      	ldr	r4, [pc, #168]	; (80062f4 <__register_exitproc+0xc0>)
 800624a:	602c      	str	r4, [r5, #0]
 800624c:	b113      	cbz	r3, 8006254 <__register_exitproc+0x20>
 800624e:	681b      	ldr	r3, [r3, #0]
 8006250:	f8c4 3088 	str.w	r3, [r4, #136]	; 0x88
 8006254:	6863      	ldr	r3, [r4, #4]
 8006256:	2b1f      	cmp	r3, #31
 8006258:	dd3d      	ble.n	80062d6 <__register_exitproc+0xa2>
 800625a:	4b27      	ldr	r3, [pc, #156]	; (80062f8 <__register_exitproc+0xc4>)
 800625c:	b91b      	cbnz	r3, 8006266 <__register_exitproc+0x32>
 800625e:	f04f 30ff 	mov.w	r0, #4294967295
 8006262:	e8bd 83f8 	ldmia.w	sp!, {r3, r4, r5, r6, r7, r8, r9, pc}
 8006266:	208c      	movs	r0, #140	; 0x8c
 8006268:	f7ff fb04 	bl	8005874 <malloc>
 800626c:	4604      	mov	r4, r0
 800626e:	2800      	cmp	r0, #0
 8006270:	d0f5      	beq.n	800625e <__register_exitproc+0x2a>
 8006272:	2300      	movs	r3, #0
 8006274:	682a      	ldr	r2, [r5, #0]
 8006276:	6002      	str	r2, [r0, #0]
 8006278:	6043      	str	r3, [r0, #4]
 800627a:	6028      	str	r0, [r5, #0]
 800627c:	f8c0 3088 	str.w	r3, [r0, #136]	; 0x88
 8006280:	b30f      	cbz	r7, 80062c6 <__register_exitproc+0x92>
 8006282:	f44f 7084 	mov.w	r0, #264	; 0x108
 8006286:	f7ff faf5 	bl	8005874 <malloc>
 800628a:	2800      	cmp	r0, #0
 800628c:	d0e7      	beq.n	800625e <__register_exitproc+0x2a>
 800628e:	2300      	movs	r3, #0
 8006290:	f8c0 3100 	str.w	r3, [r0, #256]	; 0x100
 8006294:	f8c0 3104 	str.w	r3, [r0, #260]	; 0x104
 8006298:	f8c4 0088 	str.w	r0, [r4, #136]	; 0x88
 800629c:	6862      	ldr	r2, [r4, #4]
 800629e:	f840 9022 	str.w	r9, [r0, r2, lsl #2]
 80062a2:	2301      	movs	r3, #1
 80062a4:	4093      	lsls	r3, r2
 80062a6:	eb00 0182 	add.w	r1, r0, r2, lsl #2
 80062aa:	f8d0 2100 	ldr.w	r2, [r0, #256]	; 0x100
 80062ae:	431a      	orrs	r2, r3
 80062b0:	2f02      	cmp	r7, #2
 80062b2:	f8c0 2100 	str.w	r2, [r0, #256]	; 0x100
 80062b6:	f8c1 8080 	str.w	r8, [r1, #128]	; 0x80
 80062ba:	bf02      	ittt	eq
 80062bc:	f8d0 2104 	ldreq.w	r2, [r0, #260]	; 0x104
 80062c0:	4313      	orreq	r3, r2
 80062c2:	f8c0 3104 	streq.w	r3, [r0, #260]	; 0x104
 80062c6:	6863      	ldr	r3, [r4, #4]
 80062c8:	1c5a      	adds	r2, r3, #1
 80062ca:	3302      	adds	r3, #2
 80062cc:	6062      	str	r2, [r4, #4]
 80062ce:	2000      	movs	r0, #0
 80062d0:	f844 6023 	str.w	r6, [r4, r3, lsl #2]
 80062d4:	e7c5      	b.n	8006262 <__register_exitproc+0x2e>
 80062d6:	2f00      	cmp	r7, #0
 80062d8:	d0f5      	beq.n	80062c6 <__register_exitproc+0x92>
 80062da:	f8d4 0088 	ldr.w	r0, [r4, #136]	; 0x88
 80062de:	2800      	cmp	r0, #0
 80062e0:	d1dc      	bne.n	800629c <__register_exitproc+0x68>
 80062e2:	4b05      	ldr	r3, [pc, #20]	; (80062f8 <__register_exitproc+0xc4>)
 80062e4:	2b00      	cmp	r3, #0
 80062e6:	d0ba      	beq.n	800625e <__register_exitproc+0x2a>
 80062e8:	e7cb      	b.n	8006282 <__register_exitproc+0x4e>
 80062ea:	bf00      	nop
 80062ec:	20000370 	.word	0x20000370
 80062f0:	00000000 	.word	0x00000000
 80062f4:	200002e4 	.word	0x200002e4
 80062f8:	08005875 	.word	0x08005875

080062fc <__sflush_r>:
 80062fc:	898a      	ldrh	r2, [r1, #12]
 80062fe:	e92d 41f0 	stmdb	sp!, {r4, r5, r6, r7, r8, lr}
 8006302:	4605      	mov	r5, r0
 8006304:	0710      	lsls	r0, r2, #28
 8006306:	460c      	mov	r4, r1
 8006308:	d458      	bmi.n	80063bc <__sflush_r+0xc0>
 800630a:	684b      	ldr	r3, [r1, #4]
 800630c:	2b00      	cmp	r3, #0
 800630e:	dc05      	bgt.n	800631c <__sflush_r+0x20>
 8006310:	6c0b      	ldr	r3, [r1, #64]	; 0x40
 8006312:	2b00      	cmp	r3, #0
 8006314:	dc02      	bgt.n	800631c <__sflush_r+0x20>
 8006316:	2000      	movs	r0, #0
 8006318:	e8bd 81f0 	ldmia.w	sp!, {r4, r5, r6, r7, r8, pc}
 800631c:	6ae6      	ldr	r6, [r4, #44]	; 0x2c
 800631e:	2e00      	cmp	r6, #0
 8006320:	d0f9      	beq.n	8006316 <__sflush_r+0x1a>
 8006322:	2300      	movs	r3, #0
 8006324:	f412 5280 	ands.w	r2, r2, #4096	; 0x1000
 8006328:	682f      	ldr	r7, [r5, #0]
 800632a:	6a21      	ldr	r1, [r4, #32]
 800632c:	602b      	str	r3, [r5, #0]
 800632e:	d032      	beq.n	8006396 <__sflush_r+0x9a>
 8006330:	6d60      	ldr	r0, [r4, #84]	; 0x54
 8006332:	89a3      	ldrh	r3, [r4, #12]
 8006334:	075a      	lsls	r2, r3, #29
 8006336:	d505      	bpl.n	8006344 <__sflush_r+0x48>
 8006338:	6863      	ldr	r3, [r4, #4]
 800633a:	1ac0      	subs	r0, r0, r3
 800633c:	6b63      	ldr	r3, [r4, #52]	; 0x34
 800633e:	b10b      	cbz	r3, 8006344 <__sflush_r+0x48>
 8006340:	6c23      	ldr	r3, [r4, #64]	; 0x40
 8006342:	1ac0      	subs	r0, r0, r3
 8006344:	2300      	movs	r3, #0
 8006346:	4602      	mov	r2, r0
 8006348:	6ae6      	ldr	r6, [r4, #44]	; 0x2c
 800634a:	6a21      	ldr	r1, [r4, #32]
 800634c:	4628      	mov	r0, r5
 800634e:	47b0      	blx	r6
 8006350:	1c43      	adds	r3, r0, #1
 8006352:	89a3      	ldrh	r3, [r4, #12]
 8006354:	d106      	bne.n	8006364 <__sflush_r+0x68>
 8006356:	6829      	ldr	r1, [r5, #0]
 8006358:	291d      	cmp	r1, #29
 800635a:	d848      	bhi.n	80063ee <__sflush_r+0xf2>
 800635c:	4a29      	ldr	r2, [pc, #164]	; (8006404 <__sflush_r+0x108>)
 800635e:	40ca      	lsrs	r2, r1
 8006360:	07d6      	lsls	r6, r2, #31
 8006362:	d544      	bpl.n	80063ee <__sflush_r+0xf2>
 8006364:	2200      	movs	r2, #0
 8006366:	6062      	str	r2, [r4, #4]
 8006368:	04d9      	lsls	r1, r3, #19
 800636a:	6922      	ldr	r2, [r4, #16]
 800636c:	6022      	str	r2, [r4, #0]
 800636e:	d504      	bpl.n	800637a <__sflush_r+0x7e>
 8006370:	1c42      	adds	r2, r0, #1
 8006372:	d101      	bne.n	8006378 <__sflush_r+0x7c>
 8006374:	682b      	ldr	r3, [r5, #0]
 8006376:	b903      	cbnz	r3, 800637a <__sflush_r+0x7e>
 8006378:	6560      	str	r0, [r4, #84]	; 0x54
 800637a:	6b61      	ldr	r1, [r4, #52]	; 0x34
 800637c:	602f      	str	r7, [r5, #0]
 800637e:	2900      	cmp	r1, #0
 8006380:	d0c9      	beq.n	8006316 <__sflush_r+0x1a>
 8006382:	f104 0344 	add.w	r3, r4, #68	; 0x44
 8006386:	4299      	cmp	r1, r3
 8006388:	d002      	beq.n	8006390 <__sflush_r+0x94>
 800638a:	4628      	mov	r0, r5
 800638c:	f7ff faae 	bl	80058ec <_free_r>
 8006390:	2000      	movs	r0, #0
 8006392:	6360      	str	r0, [r4, #52]	; 0x34
 8006394:	e7c0      	b.n	8006318 <__sflush_r+0x1c>
 8006396:	2301      	movs	r3, #1
 8006398:	4628      	mov	r0, r5
 800639a:	47b0      	blx	r6
 800639c:	1c41      	adds	r1, r0, #1
 800639e:	d1c8      	bne.n	8006332 <__sflush_r+0x36>
 80063a0:	682b      	ldr	r3, [r5, #0]
 80063a2:	2b00      	cmp	r3, #0
 80063a4:	d0c5      	beq.n	8006332 <__sflush_r+0x36>
 80063a6:	2b1d      	cmp	r3, #29
 80063a8:	d001      	beq.n	80063ae <__sflush_r+0xb2>
 80063aa:	2b16      	cmp	r3, #22
 80063ac:	d101      	bne.n	80063b2 <__sflush_r+0xb6>
 80063ae:	602f      	str	r7, [r5, #0]
 80063b0:	e7b1      	b.n	8006316 <__sflush_r+0x1a>
 80063b2:	89a3      	ldrh	r3, [r4, #12]
 80063b4:	f043 0340 	orr.w	r3, r3, #64	; 0x40
 80063b8:	81a3      	strh	r3, [r4, #12]
 80063ba:	e7ad      	b.n	8006318 <__sflush_r+0x1c>
 80063bc:	690f      	ldr	r7, [r1, #16]
 80063be:	2f00      	cmp	r7, #0
 80063c0:	d0a9      	beq.n	8006316 <__sflush_r+0x1a>
 80063c2:	0793      	lsls	r3, r2, #30
 80063c4:	680e      	ldr	r6, [r1, #0]
 80063c6:	bf08      	it	eq
 80063c8:	694b      	ldreq	r3, [r1, #20]
 80063ca:	600f      	str	r7, [r1, #0]
 80063cc:	bf18      	it	ne
 80063ce:	2300      	movne	r3, #0
 80063d0:	eba6 0807 	sub.w	r8, r6, r7
 80063d4:	608b      	str	r3, [r1, #8]
 80063d6:	f1b8 0f00 	cmp.w	r8, #0
 80063da:	dd9c      	ble.n	8006316 <__sflush_r+0x1a>
 80063dc:	4643      	mov	r3, r8
 80063de:	463a      	mov	r2, r7
 80063e0:	6a21      	ldr	r1, [r4, #32]
 80063e2:	6aa6      	ldr	r6, [r4, #40]	; 0x28
 80063e4:	4628      	mov	r0, r5
 80063e6:	47b0      	blx	r6
 80063e8:	2800      	cmp	r0, #0
 80063ea:	dc06      	bgt.n	80063fa <__sflush_r+0xfe>
 80063ec:	89a3      	ldrh	r3, [r4, #12]
 80063ee:	f043 0340 	orr.w	r3, r3, #64	; 0x40
 80063f2:	81a3      	strh	r3, [r4, #12]
 80063f4:	f04f 30ff 	mov.w	r0, #4294967295
 80063f8:	e78e      	b.n	8006318 <__sflush_r+0x1c>
 80063fa:	4407      	add	r7, r0
 80063fc:	eba8 0800 	sub.w	r8, r8, r0
 8006400:	e7e9      	b.n	80063d6 <__sflush_r+0xda>
 8006402:	bf00      	nop
 8006404:	20400001 	.word	0x20400001

08006408 <_fflush_r>:
 8006408:	b538      	push	{r3, r4, r5, lr}
 800640a:	690b      	ldr	r3, [r1, #16]
 800640c:	4605      	mov	r5, r0
 800640e:	460c      	mov	r4, r1
 8006410:	b1db      	cbz	r3, 800644a <_fflush_r+0x42>
 8006412:	b118      	cbz	r0, 800641c <_fflush_r+0x14>
 8006414:	6983      	ldr	r3, [r0, #24]
 8006416:	b90b      	cbnz	r3, 800641c <_fflush_r+0x14>
 8006418:	f000 f860 	bl	80064dc <__sinit>
 800641c:	4b0c      	ldr	r3, [pc, #48]	; (8006450 <_fflush_r+0x48>)
 800641e:	429c      	cmp	r4, r3
 8006420:	d109      	bne.n	8006436 <_fflush_r+0x2e>
 8006422:	686c      	ldr	r4, [r5, #4]
 8006424:	f9b4 300c 	ldrsh.w	r3, [r4, #12]
 8006428:	b17b      	cbz	r3, 800644a <_fflush_r+0x42>
 800642a:	4621      	mov	r1, r4
 800642c:	4628      	mov	r0, r5
 800642e:	e8bd 4038 	ldmia.w	sp!, {r3, r4, r5, lr}
 8006432:	f7ff bf63 	b.w	80062fc <__sflush_r>
 8006436:	4b07      	ldr	r3, [pc, #28]	; (8006454 <_fflush_r+0x4c>)
 8006438:	429c      	cmp	r4, r3
 800643a:	d101      	bne.n	8006440 <_fflush_r+0x38>
 800643c:	68ac      	ldr	r4, [r5, #8]
 800643e:	e7f1      	b.n	8006424 <_fflush_r+0x1c>
 8006440:	4b05      	ldr	r3, [pc, #20]	; (8006458 <_fflush_r+0x50>)
 8006442:	429c      	cmp	r4, r3
 8006444:	bf08      	it	eq
 8006446:	68ec      	ldreq	r4, [r5, #12]
 8006448:	e7ec      	b.n	8006424 <_fflush_r+0x1c>
 800644a:	2000      	movs	r0, #0
 800644c:	bd38      	pop	{r3, r4, r5, pc}
 800644e:	bf00      	nop
 8006450:	0800736c 	.word	0x0800736c
 8006454:	0800738c 	.word	0x0800738c
 8006458:	0800734c 	.word	0x0800734c

0800645c <std>:
 800645c:	2300      	movs	r3, #0
 800645e:	b510      	push	{r4, lr}
 8006460:	4604      	mov	r4, r0
 8006462:	e9c0 3300 	strd	r3, r3, [r0]
 8006466:	6083      	str	r3, [r0, #8]
 8006468:	8181      	strh	r1, [r0, #12]
 800646a:	6643      	str	r3, [r0, #100]	; 0x64
 800646c:	81c2      	strh	r2, [r0, #14]
 800646e:	e9c0 3304 	strd	r3, r3, [r0, #16]
 8006472:	6183      	str	r3, [r0, #24]
 8006474:	4619      	mov	r1, r3
 8006476:	2208      	movs	r2, #8
 8006478:	305c      	adds	r0, #92	; 0x5c
 800647a:	f7ff fa2f 	bl	80058dc <memset>
 800647e:	4b05      	ldr	r3, [pc, #20]	; (8006494 <std+0x38>)
 8006480:	6263      	str	r3, [r4, #36]	; 0x24
 8006482:	4b05      	ldr	r3, [pc, #20]	; (8006498 <std+0x3c>)
 8006484:	62a3      	str	r3, [r4, #40]	; 0x28
 8006486:	4b05      	ldr	r3, [pc, #20]	; (800649c <std+0x40>)
 8006488:	62e3      	str	r3, [r4, #44]	; 0x2c
 800648a:	4b05      	ldr	r3, [pc, #20]	; (80064a0 <std+0x44>)
 800648c:	6224      	str	r4, [r4, #32]
 800648e:	6323      	str	r3, [r4, #48]	; 0x30
 8006490:	bd10      	pop	{r4, pc}
 8006492:	bf00      	nop
 8006494:	080069ad 	.word	0x080069ad
 8006498:	080069cf 	.word	0x080069cf
 800649c:	08006a07 	.word	0x08006a07
 80064a0:	08006a2b 	.word	0x08006a2b

080064a4 <_cleanup_r>:
 80064a4:	4901      	ldr	r1, [pc, #4]	; (80064ac <_cleanup_r+0x8>)
 80064a6:	f000 b885 	b.w	80065b4 <_fwalk_reent>
 80064aa:	bf00      	nop
 80064ac:	08006409 	.word	0x08006409

080064b0 <__sfmoreglue>:
 80064b0:	b570      	push	{r4, r5, r6, lr}
 80064b2:	1e4a      	subs	r2, r1, #1
 80064b4:	2568      	movs	r5, #104	; 0x68
 80064b6:	4355      	muls	r5, r2
 80064b8:	460e      	mov	r6, r1
 80064ba:	f105 0174 	add.w	r1, r5, #116	; 0x74
 80064be:	f7ff fa63 	bl	8005988 <_malloc_r>
 80064c2:	4604      	mov	r4, r0
 80064c4:	b140      	cbz	r0, 80064d8 <__sfmoreglue+0x28>
 80064c6:	2100      	movs	r1, #0
 80064c8:	e9c0 1600 	strd	r1, r6, [r0]
 80064cc:	300c      	adds	r0, #12
 80064ce:	60a0      	str	r0, [r4, #8]
 80064d0:	f105 0268 	add.w	r2, r5, #104	; 0x68
 80064d4:	f7ff fa02 	bl	80058dc <memset>
 80064d8:	4620      	mov	r0, r4
 80064da:	bd70      	pop	{r4, r5, r6, pc}

080064dc <__sinit>:
 80064dc:	6983      	ldr	r3, [r0, #24]
 80064de:	b510      	push	{r4, lr}
 80064e0:	4604      	mov	r4, r0
 80064e2:	bb33      	cbnz	r3, 8006532 <__sinit+0x56>
 80064e4:	e9c0 3312 	strd	r3, r3, [r0, #72]	; 0x48
 80064e8:	6503      	str	r3, [r0, #80]	; 0x50
 80064ea:	4b12      	ldr	r3, [pc, #72]	; (8006534 <__sinit+0x58>)
 80064ec:	4a12      	ldr	r2, [pc, #72]	; (8006538 <__sinit+0x5c>)
 80064ee:	681b      	ldr	r3, [r3, #0]
 80064f0:	6282      	str	r2, [r0, #40]	; 0x28
 80064f2:	4298      	cmp	r0, r3
 80064f4:	bf04      	itt	eq
 80064f6:	2301      	moveq	r3, #1
 80064f8:	6183      	streq	r3, [r0, #24]
 80064fa:	f000 f81f 	bl	800653c <__sfp>
 80064fe:	6060      	str	r0, [r4, #4]
 8006500:	4620      	mov	r0, r4
 8006502:	f000 f81b 	bl	800653c <__sfp>
 8006506:	60a0      	str	r0, [r4, #8]
 8006508:	4620      	mov	r0, r4
 800650a:	f000 f817 	bl	800653c <__sfp>
 800650e:	2200      	movs	r2, #0
 8006510:	60e0      	str	r0, [r4, #12]
 8006512:	2104      	movs	r1, #4
 8006514:	6860      	ldr	r0, [r4, #4]
 8006516:	f7ff ffa1 	bl	800645c <std>
 800651a:	2201      	movs	r2, #1
 800651c:	2109      	movs	r1, #9
 800651e:	68a0      	ldr	r0, [r4, #8]
 8006520:	f7ff ff9c 	bl	800645c <std>
 8006524:	2202      	movs	r2, #2
 8006526:	2112      	movs	r1, #18
 8006528:	68e0      	ldr	r0, [r4, #12]
 800652a:	f7ff ff97 	bl	800645c <std>
 800652e:	2301      	movs	r3, #1
 8006530:	61a3      	str	r3, [r4, #24]
 8006532:	bd10      	pop	{r4, pc}
 8006534:	08007314 	.word	0x08007314
 8006538:	080064a5 	.word	0x080064a5

0800653c <__sfp>:
 800653c:	b5f8      	push	{r3, r4, r5, r6, r7, lr}
 800653e:	4b1b      	ldr	r3, [pc, #108]	; (80065ac <__sfp+0x70>)
 8006540:	681e      	ldr	r6, [r3, #0]
 8006542:	69b3      	ldr	r3, [r6, #24]
 8006544:	4607      	mov	r7, r0
 8006546:	b913      	cbnz	r3, 800654e <__sfp+0x12>
 8006548:	4630      	mov	r0, r6
 800654a:	f7ff ffc7 	bl	80064dc <__sinit>
 800654e:	3648      	adds	r6, #72	; 0x48
 8006550:	e9d6 3401 	ldrd	r3, r4, [r6, #4]
 8006554:	3b01      	subs	r3, #1
 8006556:	d503      	bpl.n	8006560 <__sfp+0x24>
 8006558:	6833      	ldr	r3, [r6, #0]
 800655a:	b133      	cbz	r3, 800656a <__sfp+0x2e>
 800655c:	6836      	ldr	r6, [r6, #0]
 800655e:	e7f7      	b.n	8006550 <__sfp+0x14>
 8006560:	f9b4 500c 	ldrsh.w	r5, [r4, #12]
 8006564:	b16d      	cbz	r5, 8006582 <__sfp+0x46>
 8006566:	3468      	adds	r4, #104	; 0x68
 8006568:	e7f4      	b.n	8006554 <__sfp+0x18>
 800656a:	2104      	movs	r1, #4
 800656c:	4638      	mov	r0, r7
 800656e:	f7ff ff9f 	bl	80064b0 <__sfmoreglue>
 8006572:	6030      	str	r0, [r6, #0]
 8006574:	2800      	cmp	r0, #0
 8006576:	d1f1      	bne.n	800655c <__sfp+0x20>
 8006578:	230c      	movs	r3, #12
 800657a:	603b      	str	r3, [r7, #0]
 800657c:	4604      	mov	r4, r0
 800657e:	4620      	mov	r0, r4
 8006580:	bdf8      	pop	{r3, r4, r5, r6, r7, pc}
 8006582:	4b0b      	ldr	r3, [pc, #44]	; (80065b0 <__sfp+0x74>)
 8006584:	6665      	str	r5, [r4, #100]	; 0x64
 8006586:	e9c4 5500 	strd	r5, r5, [r4]
 800658a:	60a5      	str	r5, [r4, #8]
 800658c:	e9c4 3503 	strd	r3, r5, [r4, #12]
 8006590:	e9c4 5505 	strd	r5, r5, [r4, #20]
 8006594:	2208      	movs	r2, #8
 8006596:	4629      	mov	r1, r5
 8006598:	f104 005c 	add.w	r0, r4, #92	; 0x5c
 800659c:	f7ff f99e 	bl	80058dc <memset>
 80065a0:	e9c4 550d 	strd	r5, r5, [r4, #52]	; 0x34
 80065a4:	e9c4 5512 	strd	r5, r5, [r4, #72]	; 0x48
 80065a8:	e7e9      	b.n	800657e <__sfp+0x42>
 80065aa:	bf00      	nop
 80065ac:	08007314 	.word	0x08007314
 80065b0:	ffff0001 	.word	0xffff0001

080065b4 <_fwalk_reent>:
 80065b4:	e92d 43f8 	stmdb	sp!, {r3, r4, r5, r6, r7, r8, r9, lr}
 80065b8:	4680      	mov	r8, r0
 80065ba:	4689      	mov	r9, r1
 80065bc:	f100 0448 	add.w	r4, r0, #72	; 0x48
 80065c0:	2600      	movs	r6, #0
 80065c2:	b914      	cbnz	r4, 80065ca <_fwalk_reent+0x16>
 80065c4:	4630      	mov	r0, r6
 80065c6:	e8bd 83f8 	ldmia.w	sp!, {r3, r4, r5, r6, r7, r8, r9, pc}
 80065ca:	e9d4 7501 	ldrd	r7, r5, [r4, #4]
 80065ce:	3f01      	subs	r7, #1
 80065d0:	d501      	bpl.n	80065d6 <_fwalk_reent+0x22>
 80065d2:	6824      	ldr	r4, [r4, #0]
 80065d4:	e7f5      	b.n	80065c2 <_fwalk_reent+0xe>
 80065d6:	89ab      	ldrh	r3, [r5, #12]
 80065d8:	2b01      	cmp	r3, #1
 80065da:	d907      	bls.n	80065ec <_fwalk_reent+0x38>
 80065dc:	f9b5 300e 	ldrsh.w	r3, [r5, #14]
 80065e0:	3301      	adds	r3, #1
 80065e2:	d003      	beq.n	80065ec <_fwalk_reent+0x38>
 80065e4:	4629      	mov	r1, r5
 80065e6:	4640      	mov	r0, r8
 80065e8:	47c8      	blx	r9
 80065ea:	4306      	orrs	r6, r0
 80065ec:	3568      	adds	r5, #104	; 0x68
 80065ee:	e7ee      	b.n	80065ce <_fwalk_reent+0x1a>

080065f0 <__swhatbuf_r>:
 80065f0:	b570      	push	{r4, r5, r6, lr}
 80065f2:	460e      	mov	r6, r1
 80065f4:	f9b1 100e 	ldrsh.w	r1, [r1, #14]
 80065f8:	2900      	cmp	r1, #0
 80065fa:	b096      	sub	sp, #88	; 0x58
 80065fc:	4614      	mov	r4, r2
 80065fe:	461d      	mov	r5, r3
 8006600:	da07      	bge.n	8006612 <__swhatbuf_r+0x22>
 8006602:	2300      	movs	r3, #0
 8006604:	602b      	str	r3, [r5, #0]
 8006606:	89b3      	ldrh	r3, [r6, #12]
 8006608:	061a      	lsls	r2, r3, #24
 800660a:	d410      	bmi.n	800662e <__swhatbuf_r+0x3e>
 800660c:	f44f 6380 	mov.w	r3, #1024	; 0x400
 8006610:	e00e      	b.n	8006630 <__swhatbuf_r+0x40>
 8006612:	466a      	mov	r2, sp
 8006614:	f000 fa30 	bl	8006a78 <_fstat_r>
 8006618:	2800      	cmp	r0, #0
 800661a:	dbf2      	blt.n	8006602 <__swhatbuf_r+0x12>
 800661c:	9a01      	ldr	r2, [sp, #4]
 800661e:	f402 4270 	and.w	r2, r2, #61440	; 0xf000
 8006622:	f5a2 5300 	sub.w	r3, r2, #8192	; 0x2000
 8006626:	425a      	negs	r2, r3
 8006628:	415a      	adcs	r2, r3
 800662a:	602a      	str	r2, [r5, #0]
 800662c:	e7ee      	b.n	800660c <__swhatbuf_r+0x1c>
 800662e:	2340      	movs	r3, #64	; 0x40
 8006630:	2000      	movs	r0, #0
 8006632:	6023      	str	r3, [r4, #0]
 8006634:	b016      	add	sp, #88	; 0x58
 8006636:	bd70      	pop	{r4, r5, r6, pc}

08006638 <__smakebuf_r>:
 8006638:	898b      	ldrh	r3, [r1, #12]
 800663a:	b573      	push	{r0, r1, r4, r5, r6, lr}
 800663c:	079d      	lsls	r5, r3, #30
 800663e:	4606      	mov	r6, r0
 8006640:	460c      	mov	r4, r1
 8006642:	d507      	bpl.n	8006654 <__smakebuf_r+0x1c>
 8006644:	f104 0347 	add.w	r3, r4, #71	; 0x47
 8006648:	6023      	str	r3, [r4, #0]
 800664a:	6123      	str	r3, [r4, #16]
 800664c:	2301      	movs	r3, #1
 800664e:	6163      	str	r3, [r4, #20]
 8006650:	b002      	add	sp, #8
 8006652:	bd70      	pop	{r4, r5, r6, pc}
 8006654:	ab01      	add	r3, sp, #4
 8006656:	466a      	mov	r2, sp
 8006658:	f7ff ffca 	bl	80065f0 <__swhatbuf_r>
 800665c:	9900      	ldr	r1, [sp, #0]
 800665e:	4605      	mov	r5, r0
 8006660:	4630      	mov	r0, r6
 8006662:	f7ff f991 	bl	8005988 <_malloc_r>
 8006666:	b948      	cbnz	r0, 800667c <__smakebuf_r+0x44>
 8006668:	f9b4 300c 	ldrsh.w	r3, [r4, #12]
 800666c:	059a      	lsls	r2, r3, #22
 800666e:	d4ef      	bmi.n	8006650 <__smakebuf_r+0x18>
 8006670:	f023 0303 	bic.w	r3, r3, #3
 8006674:	f043 0302 	orr.w	r3, r3, #2
 8006678:	81a3      	strh	r3, [r4, #12]
 800667a:	e7e3      	b.n	8006644 <__smakebuf_r+0xc>
 800667c:	4b0d      	ldr	r3, [pc, #52]	; (80066b4 <__smakebuf_r+0x7c>)
 800667e:	62b3      	str	r3, [r6, #40]	; 0x28
 8006680:	89a3      	ldrh	r3, [r4, #12]
 8006682:	6020      	str	r0, [r4, #0]
 8006684:	f043 0380 	orr.w	r3, r3, #128	; 0x80
 8006688:	81a3      	strh	r3, [r4, #12]
 800668a:	9b00      	ldr	r3, [sp, #0]
 800668c:	6163      	str	r3, [r4, #20]
 800668e:	9b01      	ldr	r3, [sp, #4]
 8006690:	6120      	str	r0, [r4, #16]
 8006692:	b15b      	cbz	r3, 80066ac <__smakebuf_r+0x74>
 8006694:	f9b4 100e 	ldrsh.w	r1, [r4, #14]
 8006698:	4630      	mov	r0, r6
 800669a:	f000 f9ff 	bl	8006a9c <_isatty_r>
 800669e:	b128      	cbz	r0, 80066ac <__smakebuf_r+0x74>
 80066a0:	89a3      	ldrh	r3, [r4, #12]
 80066a2:	f023 0303 	bic.w	r3, r3, #3
 80066a6:	f043 0301 	orr.w	r3, r3, #1
 80066aa:	81a3      	strh	r3, [r4, #12]
 80066ac:	89a3      	ldrh	r3, [r4, #12]
 80066ae:	431d      	orrs	r5, r3
 80066b0:	81a5      	strh	r5, [r4, #12]
 80066b2:	e7cd      	b.n	8006650 <__smakebuf_r+0x18>
 80066b4:	080064a5 	.word	0x080064a5

080066b8 <__malloc_lock>:
 80066b8:	4770      	bx	lr

080066ba <__malloc_unlock>:
 80066ba:	4770      	bx	lr

080066bc <_realloc_r>:
 80066bc:	b5f8      	push	{r3, r4, r5, r6, r7, lr}
 80066be:	4607      	mov	r7, r0
 80066c0:	4614      	mov	r4, r2
 80066c2:	460e      	mov	r6, r1
 80066c4:	b921      	cbnz	r1, 80066d0 <_realloc_r+0x14>
 80066c6:	4611      	mov	r1, r2
 80066c8:	e8bd 40f8 	ldmia.w	sp!, {r3, r4, r5, r6, r7, lr}
 80066cc:	f7ff b95c 	b.w	8005988 <_malloc_r>
 80066d0:	b922      	cbnz	r2, 80066dc <_realloc_r+0x20>
 80066d2:	f7ff f90b 	bl	80058ec <_free_r>
 80066d6:	4625      	mov	r5, r4
 80066d8:	4628      	mov	r0, r5
 80066da:	bdf8      	pop	{r3, r4, r5, r6, r7, pc}
 80066dc:	f000 fa00 	bl	8006ae0 <_malloc_usable_size_r>
 80066e0:	42a0      	cmp	r0, r4
 80066e2:	d20f      	bcs.n	8006704 <_realloc_r+0x48>
 80066e4:	4621      	mov	r1, r4
 80066e6:	4638      	mov	r0, r7
 80066e8:	f7ff f94e 	bl	8005988 <_malloc_r>
 80066ec:	4605      	mov	r5, r0
 80066ee:	2800      	cmp	r0, #0
 80066f0:	d0f2      	beq.n	80066d8 <_realloc_r+0x1c>
 80066f2:	4631      	mov	r1, r6
 80066f4:	4622      	mov	r2, r4
 80066f6:	f7ff f8cd 	bl	8005894 <memcpy>
 80066fa:	4631      	mov	r1, r6
 80066fc:	4638      	mov	r0, r7
 80066fe:	f7ff f8f5 	bl	80058ec <_free_r>
 8006702:	e7e9      	b.n	80066d8 <_realloc_r+0x1c>
 8006704:	4635      	mov	r5, r6
 8006706:	e7e7      	b.n	80066d8 <_realloc_r+0x1c>

08006708 <__ssputs_r>:
 8006708:	e92d 47f0 	stmdb	sp!, {r4, r5, r6, r7, r8, r9, sl, lr}
 800670c:	688e      	ldr	r6, [r1, #8]
 800670e:	429e      	cmp	r6, r3
 8006710:	4682      	mov	sl, r0
 8006712:	460c      	mov	r4, r1
 8006714:	4690      	mov	r8, r2
 8006716:	4699      	mov	r9, r3
 8006718:	d837      	bhi.n	800678a <__ssputs_r+0x82>
 800671a:	898a      	ldrh	r2, [r1, #12]
 800671c:	f412 6f90 	tst.w	r2, #1152	; 0x480
 8006720:	d031      	beq.n	8006786 <__ssputs_r+0x7e>
 8006722:	6825      	ldr	r5, [r4, #0]
 8006724:	6909      	ldr	r1, [r1, #16]
 8006726:	1a6f      	subs	r7, r5, r1
 8006728:	6965      	ldr	r5, [r4, #20]
 800672a:	2302      	movs	r3, #2
 800672c:	eb05 0545 	add.w	r5, r5, r5, lsl #1
 8006730:	fb95 f5f3 	sdiv	r5, r5, r3
 8006734:	f109 0301 	add.w	r3, r9, #1
 8006738:	443b      	add	r3, r7
 800673a:	429d      	cmp	r5, r3
 800673c:	bf38      	it	cc
 800673e:	461d      	movcc	r5, r3
 8006740:	0553      	lsls	r3, r2, #21
 8006742:	d530      	bpl.n	80067a6 <__ssputs_r+0x9e>
 8006744:	4629      	mov	r1, r5
 8006746:	f7ff f91f 	bl	8005988 <_malloc_r>
 800674a:	4606      	mov	r6, r0
 800674c:	b950      	cbnz	r0, 8006764 <__ssputs_r+0x5c>
 800674e:	230c      	movs	r3, #12
 8006750:	f8ca 3000 	str.w	r3, [sl]
 8006754:	89a3      	ldrh	r3, [r4, #12]
 8006756:	f043 0340 	orr.w	r3, r3, #64	; 0x40
 800675a:	81a3      	strh	r3, [r4, #12]
 800675c:	f04f 30ff 	mov.w	r0, #4294967295
 8006760:	e8bd 87f0 	ldmia.w	sp!, {r4, r5, r6, r7, r8, r9, sl, pc}
 8006764:	463a      	mov	r2, r7
 8006766:	6921      	ldr	r1, [r4, #16]
 8006768:	f7ff f894 	bl	8005894 <memcpy>
 800676c:	89a3      	ldrh	r3, [r4, #12]
 800676e:	f423 6390 	bic.w	r3, r3, #1152	; 0x480
 8006772:	f043 0380 	orr.w	r3, r3, #128	; 0x80
 8006776:	81a3      	strh	r3, [r4, #12]
 8006778:	6126      	str	r6, [r4, #16]
 800677a:	6165      	str	r5, [r4, #20]
 800677c:	443e      	add	r6, r7
 800677e:	1bed      	subs	r5, r5, r7
 8006780:	6026      	str	r6, [r4, #0]
 8006782:	60a5      	str	r5, [r4, #8]
 8006784:	464e      	mov	r6, r9
 8006786:	454e      	cmp	r6, r9
 8006788:	d900      	bls.n	800678c <__ssputs_r+0x84>
 800678a:	464e      	mov	r6, r9
 800678c:	4632      	mov	r2, r6
 800678e:	4641      	mov	r1, r8
 8006790:	6820      	ldr	r0, [r4, #0]
 8006792:	f7ff f88a 	bl	80058aa <memmove>
 8006796:	68a3      	ldr	r3, [r4, #8]
 8006798:	1b9b      	subs	r3, r3, r6
 800679a:	60a3      	str	r3, [r4, #8]
 800679c:	6823      	ldr	r3, [r4, #0]
 800679e:	441e      	add	r6, r3
 80067a0:	6026      	str	r6, [r4, #0]
 80067a2:	2000      	movs	r0, #0
 80067a4:	e7dc      	b.n	8006760 <__ssputs_r+0x58>
 80067a6:	462a      	mov	r2, r5
 80067a8:	f7ff ff88 	bl	80066bc <_realloc_r>
 80067ac:	4606      	mov	r6, r0
 80067ae:	2800      	cmp	r0, #0
 80067b0:	d1e2      	bne.n	8006778 <__ssputs_r+0x70>
 80067b2:	6921      	ldr	r1, [r4, #16]
 80067b4:	4650      	mov	r0, sl
 80067b6:	f7ff f899 	bl	80058ec <_free_r>
 80067ba:	e7c8      	b.n	800674e <__ssputs_r+0x46>

080067bc <_svfiprintf_r>:
 80067bc:	e92d 4ff0 	stmdb	sp!, {r4, r5, r6, r7, r8, r9, sl, fp, lr}
 80067c0:	461d      	mov	r5, r3
 80067c2:	898b      	ldrh	r3, [r1, #12]
 80067c4:	061f      	lsls	r7, r3, #24
 80067c6:	b09d      	sub	sp, #116	; 0x74
 80067c8:	4680      	mov	r8, r0
 80067ca:	460c      	mov	r4, r1
 80067cc:	4616      	mov	r6, r2
 80067ce:	d50f      	bpl.n	80067f0 <_svfiprintf_r+0x34>
 80067d0:	690b      	ldr	r3, [r1, #16]
 80067d2:	b96b      	cbnz	r3, 80067f0 <_svfiprintf_r+0x34>
 80067d4:	2140      	movs	r1, #64	; 0x40
 80067d6:	f7ff f8d7 	bl	8005988 <_malloc_r>
 80067da:	6020      	str	r0, [r4, #0]
 80067dc:	6120      	str	r0, [r4, #16]
 80067de:	b928      	cbnz	r0, 80067ec <_svfiprintf_r+0x30>
 80067e0:	230c      	movs	r3, #12
 80067e2:	f8c8 3000 	str.w	r3, [r8]
 80067e6:	f04f 30ff 	mov.w	r0, #4294967295
 80067ea:	e0c8      	b.n	800697e <_svfiprintf_r+0x1c2>
 80067ec:	2340      	movs	r3, #64	; 0x40
 80067ee:	6163      	str	r3, [r4, #20]
 80067f0:	2300      	movs	r3, #0
 80067f2:	9309      	str	r3, [sp, #36]	; 0x24
 80067f4:	2320      	movs	r3, #32
 80067f6:	f88d 3029 	strb.w	r3, [sp, #41]	; 0x29
 80067fa:	2330      	movs	r3, #48	; 0x30
 80067fc:	f88d 302a 	strb.w	r3, [sp, #42]	; 0x2a
 8006800:	9503      	str	r5, [sp, #12]
 8006802:	f04f 0b01 	mov.w	fp, #1
 8006806:	4637      	mov	r7, r6
 8006808:	463d      	mov	r5, r7
 800680a:	f815 3b01 	ldrb.w	r3, [r5], #1
 800680e:	b10b      	cbz	r3, 8006814 <_svfiprintf_r+0x58>
 8006810:	2b25      	cmp	r3, #37	; 0x25
 8006812:	d13e      	bne.n	8006892 <_svfiprintf_r+0xd6>
 8006814:	ebb7 0a06 	subs.w	sl, r7, r6
 8006818:	d00b      	beq.n	8006832 <_svfiprintf_r+0x76>
 800681a:	4653      	mov	r3, sl
 800681c:	4632      	mov	r2, r6
 800681e:	4621      	mov	r1, r4
 8006820:	4640      	mov	r0, r8
 8006822:	f7ff ff71 	bl	8006708 <__ssputs_r>
 8006826:	3001      	adds	r0, #1
 8006828:	f000 80a4 	beq.w	8006974 <_svfiprintf_r+0x1b8>
 800682c:	9b09      	ldr	r3, [sp, #36]	; 0x24
 800682e:	4453      	add	r3, sl
 8006830:	9309      	str	r3, [sp, #36]	; 0x24
 8006832:	783b      	ldrb	r3, [r7, #0]
 8006834:	2b00      	cmp	r3, #0
 8006836:	f000 809d 	beq.w	8006974 <_svfiprintf_r+0x1b8>
 800683a:	2300      	movs	r3, #0
 800683c:	f04f 32ff 	mov.w	r2, #4294967295
 8006840:	e9cd 2305 	strd	r2, r3, [sp, #20]
 8006844:	9304      	str	r3, [sp, #16]
 8006846:	9307      	str	r3, [sp, #28]
 8006848:	f88d 3053 	strb.w	r3, [sp, #83]	; 0x53
 800684c:	931a      	str	r3, [sp, #104]	; 0x68
 800684e:	462f      	mov	r7, r5
 8006850:	2205      	movs	r2, #5
 8006852:	f817 1b01 	ldrb.w	r1, [r7], #1
 8006856:	4850      	ldr	r0, [pc, #320]	; (8006998 <_svfiprintf_r+0x1dc>)
 8006858:	f7f9 fcda 	bl	8000210 <memchr>
 800685c:	9b04      	ldr	r3, [sp, #16]
 800685e:	b9d0      	cbnz	r0, 8006896 <_svfiprintf_r+0xda>
 8006860:	06d9      	lsls	r1, r3, #27
 8006862:	bf44      	itt	mi
 8006864:	2220      	movmi	r2, #32
 8006866:	f88d 2053 	strbmi.w	r2, [sp, #83]	; 0x53
 800686a:	071a      	lsls	r2, r3, #28
 800686c:	bf44      	itt	mi
 800686e:	222b      	movmi	r2, #43	; 0x2b
 8006870:	f88d 2053 	strbmi.w	r2, [sp, #83]	; 0x53
 8006874:	782a      	ldrb	r2, [r5, #0]
 8006876:	2a2a      	cmp	r2, #42	; 0x2a
 8006878:	d015      	beq.n	80068a6 <_svfiprintf_r+0xea>
 800687a:	9a07      	ldr	r2, [sp, #28]
 800687c:	462f      	mov	r7, r5
 800687e:	2000      	movs	r0, #0
 8006880:	250a      	movs	r5, #10
 8006882:	4639      	mov	r1, r7
 8006884:	f811 3b01 	ldrb.w	r3, [r1], #1
 8006888:	3b30      	subs	r3, #48	; 0x30
 800688a:	2b09      	cmp	r3, #9
 800688c:	d94d      	bls.n	800692a <_svfiprintf_r+0x16e>
 800688e:	b1b8      	cbz	r0, 80068c0 <_svfiprintf_r+0x104>
 8006890:	e00f      	b.n	80068b2 <_svfiprintf_r+0xf6>
 8006892:	462f      	mov	r7, r5
 8006894:	e7b8      	b.n	8006808 <_svfiprintf_r+0x4c>
 8006896:	4a40      	ldr	r2, [pc, #256]	; (8006998 <_svfiprintf_r+0x1dc>)
 8006898:	1a80      	subs	r0, r0, r2
 800689a:	fa0b f000 	lsl.w	r0, fp, r0
 800689e:	4318      	orrs	r0, r3
 80068a0:	9004      	str	r0, [sp, #16]
 80068a2:	463d      	mov	r5, r7
 80068a4:	e7d3      	b.n	800684e <_svfiprintf_r+0x92>
 80068a6:	9a03      	ldr	r2, [sp, #12]
 80068a8:	1d11      	adds	r1, r2, #4
 80068aa:	6812      	ldr	r2, [r2, #0]
 80068ac:	9103      	str	r1, [sp, #12]
 80068ae:	2a00      	cmp	r2, #0
 80068b0:	db01      	blt.n	80068b6 <_svfiprintf_r+0xfa>
 80068b2:	9207      	str	r2, [sp, #28]
 80068b4:	e004      	b.n	80068c0 <_svfiprintf_r+0x104>
 80068b6:	4252      	negs	r2, r2
 80068b8:	f043 0302 	orr.w	r3, r3, #2
 80068bc:	9207      	str	r2, [sp, #28]
 80068be:	9304      	str	r3, [sp, #16]
 80068c0:	783b      	ldrb	r3, [r7, #0]
 80068c2:	2b2e      	cmp	r3, #46	; 0x2e
 80068c4:	d10c      	bne.n	80068e0 <_svfiprintf_r+0x124>
 80068c6:	787b      	ldrb	r3, [r7, #1]
 80068c8:	2b2a      	cmp	r3, #42	; 0x2a
 80068ca:	d133      	bne.n	8006934 <_svfiprintf_r+0x178>
 80068cc:	9b03      	ldr	r3, [sp, #12]
 80068ce:	1d1a      	adds	r2, r3, #4
 80068d0:	681b      	ldr	r3, [r3, #0]
 80068d2:	9203      	str	r2, [sp, #12]
 80068d4:	2b00      	cmp	r3, #0
 80068d6:	bfb8      	it	lt
 80068d8:	f04f 33ff 	movlt.w	r3, #4294967295
 80068dc:	3702      	adds	r7, #2
 80068de:	9305      	str	r3, [sp, #20]
 80068e0:	4d2e      	ldr	r5, [pc, #184]	; (800699c <_svfiprintf_r+0x1e0>)
 80068e2:	7839      	ldrb	r1, [r7, #0]
 80068e4:	2203      	movs	r2, #3
 80068e6:	4628      	mov	r0, r5
 80068e8:	f7f9 fc92 	bl	8000210 <memchr>
 80068ec:	b138      	cbz	r0, 80068fe <_svfiprintf_r+0x142>
 80068ee:	2340      	movs	r3, #64	; 0x40
 80068f0:	1b40      	subs	r0, r0, r5
 80068f2:	fa03 f000 	lsl.w	r0, r3, r0
 80068f6:	9b04      	ldr	r3, [sp, #16]
 80068f8:	4303      	orrs	r3, r0
 80068fa:	3701      	adds	r7, #1
 80068fc:	9304      	str	r3, [sp, #16]
 80068fe:	7839      	ldrb	r1, [r7, #0]
 8006900:	4827      	ldr	r0, [pc, #156]	; (80069a0 <_svfiprintf_r+0x1e4>)
 8006902:	f88d 1028 	strb.w	r1, [sp, #40]	; 0x28
 8006906:	2206      	movs	r2, #6
 8006908:	1c7e      	adds	r6, r7, #1
 800690a:	f7f9 fc81 	bl	8000210 <memchr>
 800690e:	2800      	cmp	r0, #0
 8006910:	d038      	beq.n	8006984 <_svfiprintf_r+0x1c8>
 8006912:	4b24      	ldr	r3, [pc, #144]	; (80069a4 <_svfiprintf_r+0x1e8>)
 8006914:	bb13      	cbnz	r3, 800695c <_svfiprintf_r+0x1a0>
 8006916:	9b03      	ldr	r3, [sp, #12]
 8006918:	3307      	adds	r3, #7
 800691a:	f023 0307 	bic.w	r3, r3, #7
 800691e:	3308      	adds	r3, #8
 8006920:	9303      	str	r3, [sp, #12]
 8006922:	9b09      	ldr	r3, [sp, #36]	; 0x24
 8006924:	444b      	add	r3, r9
 8006926:	9309      	str	r3, [sp, #36]	; 0x24
 8006928:	e76d      	b.n	8006806 <_svfiprintf_r+0x4a>
 800692a:	fb05 3202 	mla	r2, r5, r2, r3
 800692e:	2001      	movs	r0, #1
 8006930:	460f      	mov	r7, r1
 8006932:	e7a6      	b.n	8006882 <_svfiprintf_r+0xc6>
 8006934:	2300      	movs	r3, #0
 8006936:	3701      	adds	r7, #1
 8006938:	9305      	str	r3, [sp, #20]
 800693a:	4619      	mov	r1, r3
 800693c:	250a      	movs	r5, #10
 800693e:	4638      	mov	r0, r7
 8006940:	f810 2b01 	ldrb.w	r2, [r0], #1
 8006944:	3a30      	subs	r2, #48	; 0x30
 8006946:	2a09      	cmp	r2, #9
 8006948:	d903      	bls.n	8006952 <_svfiprintf_r+0x196>
 800694a:	2b00      	cmp	r3, #0
 800694c:	d0c8      	beq.n	80068e0 <_svfiprintf_r+0x124>
 800694e:	9105      	str	r1, [sp, #20]
 8006950:	e7c6      	b.n	80068e0 <_svfiprintf_r+0x124>
 8006952:	fb05 2101 	mla	r1, r5, r1, r2
 8006956:	2301      	movs	r3, #1
 8006958:	4607      	mov	r7, r0
 800695a:	e7f0      	b.n	800693e <_svfiprintf_r+0x182>
 800695c:	ab03      	add	r3, sp, #12
 800695e:	9300      	str	r3, [sp, #0]
 8006960:	4622      	mov	r2, r4
 8006962:	4b11      	ldr	r3, [pc, #68]	; (80069a8 <_svfiprintf_r+0x1ec>)
 8006964:	a904      	add	r1, sp, #16
 8006966:	4640      	mov	r0, r8
 8006968:	f3af 8000 	nop.w
 800696c:	f1b0 3fff 	cmp.w	r0, #4294967295
 8006970:	4681      	mov	r9, r0
 8006972:	d1d6      	bne.n	8006922 <_svfiprintf_r+0x166>
 8006974:	89a3      	ldrh	r3, [r4, #12]
 8006976:	065b      	lsls	r3, r3, #25
 8006978:	f53f af35 	bmi.w	80067e6 <_svfiprintf_r+0x2a>
 800697c:	9809      	ldr	r0, [sp, #36]	; 0x24
 800697e:	b01d      	add	sp, #116	; 0x74
 8006980:	e8bd 8ff0 	ldmia.w	sp!, {r4, r5, r6, r7, r8, r9, sl, fp, pc}
 8006984:	ab03      	add	r3, sp, #12
 8006986:	9300      	str	r3, [sp, #0]
 8006988:	4622      	mov	r2, r4
 800698a:	4b07      	ldr	r3, [pc, #28]	; (80069a8 <_svfiprintf_r+0x1ec>)
 800698c:	a904      	add	r1, sp, #16
 800698e:	4640      	mov	r0, r8
 8006990:	f7ff fa0a 	bl	8005da8 <_printf_i>
 8006994:	e7ea      	b.n	800696c <_svfiprintf_r+0x1b0>
 8006996:	bf00      	nop
 8006998:	08007318 	.word	0x08007318
 800699c:	0800731e 	.word	0x0800731e
 80069a0:	08007322 	.word	0x08007322
 80069a4:	00000000 	.word	0x00000000
 80069a8:	08006709 	.word	0x08006709

080069ac <__sread>:
 80069ac:	b510      	push	{r4, lr}
 80069ae:	460c      	mov	r4, r1
 80069b0:	f9b1 100e 	ldrsh.w	r1, [r1, #14]
 80069b4:	f000 f89c 	bl	8006af0 <_read_r>
 80069b8:	2800      	cmp	r0, #0
 80069ba:	bfab      	itete	ge
 80069bc:	6d63      	ldrge	r3, [r4, #84]	; 0x54
 80069be:	89a3      	ldrhlt	r3, [r4, #12]
 80069c0:	181b      	addge	r3, r3, r0
 80069c2:	f423 5380 	biclt.w	r3, r3, #4096	; 0x1000
 80069c6:	bfac      	ite	ge
 80069c8:	6563      	strge	r3, [r4, #84]	; 0x54
 80069ca:	81a3      	strhlt	r3, [r4, #12]
 80069cc:	bd10      	pop	{r4, pc}

080069ce <__swrite>:
 80069ce:	e92d 41f0 	stmdb	sp!, {r4, r5, r6, r7, r8, lr}
 80069d2:	461f      	mov	r7, r3
 80069d4:	898b      	ldrh	r3, [r1, #12]
 80069d6:	05db      	lsls	r3, r3, #23
 80069d8:	4605      	mov	r5, r0
 80069da:	460c      	mov	r4, r1
 80069dc:	4616      	mov	r6, r2
 80069de:	d505      	bpl.n	80069ec <__swrite+0x1e>
 80069e0:	2302      	movs	r3, #2
 80069e2:	2200      	movs	r2, #0
 80069e4:	f9b1 100e 	ldrsh.w	r1, [r1, #14]
 80069e8:	f000 f868 	bl	8006abc <_lseek_r>
 80069ec:	89a3      	ldrh	r3, [r4, #12]
 80069ee:	f9b4 100e 	ldrsh.w	r1, [r4, #14]
 80069f2:	f423 5380 	bic.w	r3, r3, #4096	; 0x1000
 80069f6:	81a3      	strh	r3, [r4, #12]
 80069f8:	4632      	mov	r2, r6
 80069fa:	463b      	mov	r3, r7
 80069fc:	4628      	mov	r0, r5
 80069fe:	e8bd 41f0 	ldmia.w	sp!, {r4, r5, r6, r7, r8, lr}
 8006a02:	f000 b817 	b.w	8006a34 <_write_r>

08006a06 <__sseek>:
 8006a06:	b510      	push	{r4, lr}
 8006a08:	460c      	mov	r4, r1
 8006a0a:	f9b1 100e 	ldrsh.w	r1, [r1, #14]
 8006a0e:	f000 f855 	bl	8006abc <_lseek_r>
 8006a12:	1c43      	adds	r3, r0, #1
 8006a14:	89a3      	ldrh	r3, [r4, #12]
 8006a16:	bf15      	itete	ne
 8006a18:	6560      	strne	r0, [r4, #84]	; 0x54
 8006a1a:	f423 5380 	biceq.w	r3, r3, #4096	; 0x1000
 8006a1e:	f443 5380 	orrne.w	r3, r3, #4096	; 0x1000
 8006a22:	81a3      	strheq	r3, [r4, #12]
 8006a24:	bf18      	it	ne
 8006a26:	81a3      	strhne	r3, [r4, #12]
 8006a28:	bd10      	pop	{r4, pc}

08006a2a <__sclose>:
 8006a2a:	f9b1 100e 	ldrsh.w	r1, [r1, #14]
 8006a2e:	f000 b813 	b.w	8006a58 <_close_r>
	...

08006a34 <_write_r>:
 8006a34:	b538      	push	{r3, r4, r5, lr}
 8006a36:	4c07      	ldr	r4, [pc, #28]	; (8006a54 <_write_r+0x20>)
 8006a38:	4605      	mov	r5, r0
 8006a3a:	4608      	mov	r0, r1
 8006a3c:	4611      	mov	r1, r2
 8006a3e:	2200      	movs	r2, #0
 8006a40:	6022      	str	r2, [r4, #0]
 8006a42:	461a      	mov	r2, r3
 8006a44:	f7fd fa8e 	bl	8003f64 <_write>
 8006a48:	1c43      	adds	r3, r0, #1
 8006a4a:	d102      	bne.n	8006a52 <_write_r+0x1e>
 8006a4c:	6823      	ldr	r3, [r4, #0]
 8006a4e:	b103      	cbz	r3, 8006a52 <_write_r+0x1e>
 8006a50:	602b      	str	r3, [r5, #0]
 8006a52:	bd38      	pop	{r3, r4, r5, pc}
 8006a54:	200007b8 	.word	0x200007b8

08006a58 <_close_r>:
 8006a58:	b538      	push	{r3, r4, r5, lr}
 8006a5a:	4c06      	ldr	r4, [pc, #24]	; (8006a74 <_close_r+0x1c>)
 8006a5c:	2300      	movs	r3, #0
 8006a5e:	4605      	mov	r5, r0
 8006a60:	4608      	mov	r0, r1
 8006a62:	6023      	str	r3, [r4, #0]
 8006a64:	f7fd faaa 	bl	8003fbc <_close>
 8006a68:	1c43      	adds	r3, r0, #1
 8006a6a:	d102      	bne.n	8006a72 <_close_r+0x1a>
 8006a6c:	6823      	ldr	r3, [r4, #0]
 8006a6e:	b103      	cbz	r3, 8006a72 <_close_r+0x1a>
 8006a70:	602b      	str	r3, [r5, #0]
 8006a72:	bd38      	pop	{r3, r4, r5, pc}
 8006a74:	200007b8 	.word	0x200007b8

08006a78 <_fstat_r>:
 8006a78:	b538      	push	{r3, r4, r5, lr}
 8006a7a:	4c07      	ldr	r4, [pc, #28]	; (8006a98 <_fstat_r+0x20>)
 8006a7c:	2300      	movs	r3, #0
 8006a7e:	4605      	mov	r5, r0
 8006a80:	4608      	mov	r0, r1
 8006a82:	4611      	mov	r1, r2
 8006a84:	6023      	str	r3, [r4, #0]
 8006a86:	f7fd fa9d 	bl	8003fc4 <_fstat>
 8006a8a:	1c43      	adds	r3, r0, #1
 8006a8c:	d102      	bne.n	8006a94 <_fstat_r+0x1c>
 8006a8e:	6823      	ldr	r3, [r4, #0]
 8006a90:	b103      	cbz	r3, 8006a94 <_fstat_r+0x1c>
 8006a92:	602b      	str	r3, [r5, #0]
 8006a94:	bd38      	pop	{r3, r4, r5, pc}
 8006a96:	bf00      	nop
 8006a98:	200007b8 	.word	0x200007b8

08006a9c <_isatty_r>:
 8006a9c:	b538      	push	{r3, r4, r5, lr}
 8006a9e:	4c06      	ldr	r4, [pc, #24]	; (8006ab8 <_isatty_r+0x1c>)
 8006aa0:	2300      	movs	r3, #0
 8006aa2:	4605      	mov	r5, r0
 8006aa4:	4608      	mov	r0, r1
 8006aa6:	6023      	str	r3, [r4, #0]
 8006aa8:	f7fd fa92 	bl	8003fd0 <_isatty>
 8006aac:	1c43      	adds	r3, r0, #1
 8006aae:	d102      	bne.n	8006ab6 <_isatty_r+0x1a>
 8006ab0:	6823      	ldr	r3, [r4, #0]
 8006ab2:	b103      	cbz	r3, 8006ab6 <_isatty_r+0x1a>
 8006ab4:	602b      	str	r3, [r5, #0]
 8006ab6:	bd38      	pop	{r3, r4, r5, pc}
 8006ab8:	200007b8 	.word	0x200007b8

08006abc <_lseek_r>:
 8006abc:	b538      	push	{r3, r4, r5, lr}
 8006abe:	4c07      	ldr	r4, [pc, #28]	; (8006adc <_lseek_r+0x20>)
 8006ac0:	4605      	mov	r5, r0
 8006ac2:	4608      	mov	r0, r1
 8006ac4:	4611      	mov	r1, r2
 8006ac6:	2200      	movs	r2, #0
 8006ac8:	6022      	str	r2, [r4, #0]
 8006aca:	461a      	mov	r2, r3
 8006acc:	f7fd fa82 	bl	8003fd4 <_lseek>
 8006ad0:	1c43      	adds	r3, r0, #1
 8006ad2:	d102      	bne.n	8006ada <_lseek_r+0x1e>
 8006ad4:	6823      	ldr	r3, [r4, #0]
 8006ad6:	b103      	cbz	r3, 8006ada <_lseek_r+0x1e>
 8006ad8:	602b      	str	r3, [r5, #0]
 8006ada:	bd38      	pop	{r3, r4, r5, pc}
 8006adc:	200007b8 	.word	0x200007b8

08006ae0 <_malloc_usable_size_r>:
 8006ae0:	f851 3c04 	ldr.w	r3, [r1, #-4]
 8006ae4:	1f18      	subs	r0, r3, #4
 8006ae6:	2b00      	cmp	r3, #0
 8006ae8:	bfbc      	itt	lt
 8006aea:	580b      	ldrlt	r3, [r1, r0]
 8006aec:	18c0      	addlt	r0, r0, r3
 8006aee:	4770      	bx	lr

08006af0 <_read_r>:
 8006af0:	b538      	push	{r3, r4, r5, lr}
 8006af2:	4c07      	ldr	r4, [pc, #28]	; (8006b10 <_read_r+0x20>)
 8006af4:	4605      	mov	r5, r0
 8006af6:	4608      	mov	r0, r1
 8006af8:	4611      	mov	r1, r2
 8006afa:	2200      	movs	r2, #0
 8006afc:	6022      	str	r2, [r4, #0]
 8006afe:	461a      	mov	r2, r3
 8006b00:	f7fd fa22 	bl	8003f48 <_read>
 8006b04:	1c43      	adds	r3, r0, #1
 8006b06:	d102      	bne.n	8006b0e <_read_r+0x1e>
 8006b08:	6823      	ldr	r3, [r4, #0]
 8006b0a:	b103      	cbz	r3, 8006b0e <_read_r+0x1e>
 8006b0c:	602b      	str	r3, [r5, #0]
 8006b0e:	bd38      	pop	{r3, r4, r5, pc}
 8006b10:	200007b8 	.word	0x200007b8

08006b14 <_init>:
 8006b14:	b5f8      	push	{r3, r4, r5, r6, r7, lr}
 8006b16:	bf00      	nop
 8006b18:	bcf8      	pop	{r3, r4, r5, r6, r7}
 8006b1a:	bc08      	pop	{r3}
 8006b1c:	469e      	mov	lr, r3
 8006b1e:	4770      	bx	lr

08006b20 <_fini>:
 8006b20:	b5f8      	push	{r3, r4, r5, r6, r7, lr}
 8006b22:	bf00      	nop
 8006b24:	bcf8      	pop	{r3, r4, r5, r6, r7}
 8006b26:	bc08      	pop	{r3}
 8006b28:	469e      	mov	lr, r3
 8006b2a:	4770      	bx	lr
